
benchmark/build/stm32f103c8/Release/except_0percent_depth70.cpp.elf:     file format elf32-littlearm


Disassembly of section .text:

08000040 <_Z3endv>:
 8000040:	4b02      	ldr	r3, [pc, #8]	@ (800004c <_Z3endv+0xc>)
 8000042:	2101      	movs	r1, #1
 8000044:	6818      	ldr	r0, [r3, #0]
 8000046:	6803      	ldr	r3, [r0, #0]
 8000048:	68db      	ldr	r3, [r3, #12]
 800004a:	4718      	bx	r3
 800004c:	20000168 	.word	0x20000168

08000050 <_ZN3hal7stm32f127throw_if_pin_is_unavailableENS0_10pin_selectE.part.0>:
 8000050:	b510      	push	{r4, lr}
 8000052:	2018      	movs	r0, #24
 8000054:	f002 ff1c 	bl	8002e90 <__wrap___cxa_allocate_exception>
 8000058:	2410      	movs	r4, #16
 800005a:	2200      	movs	r2, #0
 800005c:	4904      	ldr	r1, [pc, #16]	@ (8000070 <_ZN3hal7stm32f127throw_if_pin_is_unavailableENS0_10pin_selectE.part.0+0x20>)
 800005e:	e9c0 2400 	strd	r2, r4, [r0]
 8000062:	e9c0 2202 	strd	r2, r2, [r0, #8]
 8000066:	e9c0 2204 	strd	r2, r2, [r0, #16]
 800006a:	f002 fe67 	bl	8002d3c <__wrap___cxa_throw>
 800006e:	bf00      	nop
 8000070:	08007304 	.word	0x08007304

08000074 <_ZN3hal7stm32f112_GLOBAL__N_124get_enable_register_infoENS0_10peripheralE.part.0>:
 8000074:	b510      	push	{r4, lr}
 8000076:	2018      	movs	r0, #24
 8000078:	f002 ff0a 	bl	8002e90 <__wrap___cxa_allocate_exception>
 800007c:	2421      	movs	r4, #33	@ 0x21
 800007e:	2200      	movs	r2, #0
 8000080:	4904      	ldr	r1, [pc, #16]	@ (8000094 <_ZN3hal7stm32f112_GLOBAL__N_124get_enable_register_infoENS0_10peripheralE.part.0+0x20>)
 8000082:	e9c0 2400 	strd	r2, r4, [r0]
 8000086:	e9c0 2202 	strd	r2, r2, [r0, #8]
 800008a:	e9c0 2204 	strd	r2, r2, [r0, #16]
 800008e:	f002 fe55 	bl	8002d3c <__wrap___cxa_throw>
 8000092:	bf00      	nop
 8000094:	08007310 	.word	0x08007310

08000098 <_exit>:
 8000098:	b508      	push	{r3, lr}
 800009a:	f000 f801 	bl	80000a0 <_ZSt9terminatev>
	...

080000a0 <_ZSt9terminatev>:
 80000a0:	b508      	push	{r3, lr}
 80000a2:	4b03      	ldr	r3, [pc, #12]	@ (80000b0 <_ZSt9terminatev+0x10>)
 80000a4:	6818      	ldr	r0, [r3, #0]
 80000a6:	f3bf 8f5b 	dmb	ish
 80000aa:	f003 f8ad 	bl	8003208 <_ZN10__cxxabiv111__terminateEPFvvE>
 80000ae:	bf00      	nop
 80000b0:	20000004 	.word	0x20000004

080000b4 <_ZSt17__throw_bad_allocv>:
 80000b4:	b508      	push	{r3, lr}
 80000b6:	2004      	movs	r0, #4
 80000b8:	f002 feea 	bl	8002e90 <__wrap___cxa_allocate_exception>
 80000bc:	4b02      	ldr	r3, [pc, #8]	@ (80000c8 <_ZSt17__throw_bad_allocv+0x14>)
 80000be:	4a03      	ldr	r2, [pc, #12]	@ (80000cc <_ZSt17__throw_bad_allocv+0x18>)
 80000c0:	4903      	ldr	r1, [pc, #12]	@ (80000d0 <_ZSt17__throw_bad_allocv+0x1c>)
 80000c2:	6003      	str	r3, [r0, #0]
 80000c4:	f002 fe3a 	bl	8002d3c <__wrap___cxa_throw>
 80000c8:	08007948 	.word	0x08007948
 80000cc:	080030d5 	.word	0x080030d5
 80000d0:	08007934 	.word	0x08007934

080000d4 <_ZSt19__throw_logic_errorPKc>:
 80000d4:	b510      	push	{r4, lr}
 80000d6:	4604      	mov	r4, r0
 80000d8:	2008      	movs	r0, #8
 80000da:	f002 fed9 	bl	8002e90 <__wrap___cxa_allocate_exception>
 80000de:	4621      	mov	r1, r4
 80000e0:	4604      	mov	r4, r0
 80000e2:	f003 fddd 	bl	8003ca0 <_ZNSt11logic_errorC1EPKc>
 80000e6:	4620      	mov	r0, r4
 80000e8:	4a04      	ldr	r2, [pc, #16]	@ (80000fc <_ZSt19__throw_logic_errorPKc+0x28>)
 80000ea:	4905      	ldr	r1, [pc, #20]	@ (8000100 <_ZSt19__throw_logic_errorPKc+0x2c>)
 80000ec:	f002 fe26 	bl	8002d3c <__wrap___cxa_throw>
 80000f0:	4620      	mov	r0, r4
 80000f2:	f002 ff1f 	bl	8002f34 <__wrap___cxa_free_exception>
 80000f6:	f002 ffb1 	bl	800305c <__wrap___cxa_end_cleanup>
 80000fa:	bf00      	nop
 80000fc:	08003b09 	.word	0x08003b09
 8000100:	08007b70 	.word	0x08007b70

08000104 <_ZSt20__throw_length_errorPKc>:
 8000104:	b510      	push	{r4, lr}
 8000106:	4604      	mov	r4, r0
 8000108:	2008      	movs	r0, #8
 800010a:	f002 fec1 	bl	8002e90 <__wrap___cxa_allocate_exception>
 800010e:	4621      	mov	r1, r4
 8000110:	4604      	mov	r4, r0
 8000112:	f003 fe05 	bl	8003d20 <_ZNSt12length_errorC1EPKc>
 8000116:	4620      	mov	r0, r4
 8000118:	4a04      	ldr	r2, [pc, #16]	@ (800012c <_ZSt20__throw_length_errorPKc+0x28>)
 800011a:	4905      	ldr	r1, [pc, #20]	@ (8000130 <_ZSt20__throw_length_errorPKc+0x2c>)
 800011c:	f002 fe0e 	bl	8002d3c <__wrap___cxa_throw>
 8000120:	4620      	mov	r0, r4
 8000122:	f002 ff07 	bl	8002f34 <__wrap___cxa_free_exception>
 8000126:	f002 ff99 	bl	800305c <__wrap___cxa_end_cleanup>
 800012a:	bf00      	nop
 800012c:	08003b49 	.word	0x08003b49
 8000130:	08007b90 	.word	0x08007b90

08000134 <_ZSt24__throw_out_of_range_fmtPKcz>:
 8000134:	b40f      	push	{r0, r1, r2, r3}
 8000136:	b5b0      	push	{r4, r5, r7, lr}
 8000138:	b082      	sub	sp, #8
 800013a:	af00      	add	r7, sp, #0
 800013c:	f107 0418 	add.w	r4, r7, #24
 8000140:	f854 5b04 	ldr.w	r5, [r4], #4
 8000144:	4628      	mov	r0, r5
 8000146:	f004 ffdf 	bl	8005108 <strlen>
 800014a:	f200 2107 	addw	r1, r0, #519	@ 0x207
 800014e:	f021 0107 	bic.w	r1, r1, #7
 8000152:	ebad 0d01 	sub.w	sp, sp, r1
 8000156:	4623      	mov	r3, r4
 8000158:	f500 7100 	add.w	r1, r0, #512	@ 0x200
 800015c:	462a      	mov	r2, r5
 800015e:	4668      	mov	r0, sp
 8000160:	607c      	str	r4, [r7, #4]
 8000162:	f003 fc29 	bl	80039b8 <_ZN9__gnu_cxx15__snprintf_liteEPcjPKcSt9__va_list>
 8000166:	2008      	movs	r0, #8
 8000168:	f002 fe92 	bl	8002e90 <__wrap___cxa_allocate_exception>
 800016c:	4669      	mov	r1, sp
 800016e:	4604      	mov	r4, r0
 8000170:	f003 fde0 	bl	8003d34 <_ZNSt12out_of_rangeC1EPKc>
 8000174:	4620      	mov	r0, r4
 8000176:	4a04      	ldr	r2, [pc, #16]	@ (8000188 <_ZSt24__throw_out_of_range_fmtPKcz+0x54>)
 8000178:	4904      	ldr	r1, [pc, #16]	@ (800018c <_ZSt24__throw_out_of_range_fmtPKcz+0x58>)
 800017a:	f002 fddf 	bl	8002d3c <__wrap___cxa_throw>
 800017e:	4620      	mov	r0, r4
 8000180:	f002 fed8 	bl	8002f34 <__wrap___cxa_free_exception>
 8000184:	f002 ff6a 	bl	800305c <__wrap___cxa_end_cleanup>
 8000188:	08003b89 	.word	0x08003b89
 800018c:	08007bb0 	.word	0x08007bb0

08000190 <_ZN9__gnu_cxx26__throw_insufficient_spaceEPKcS1_>:
 8000190:	b5f0      	push	{r4, r5, r6, r7, lr}
 8000192:	4606      	mov	r6, r0
 8000194:	460c      	mov	r4, r1
 8000196:	b09d      	sub	sp, #116	@ 0x74
 8000198:	af00      	add	r7, sp, #0
 800019a:	1ba4      	subs	r4, r4, r6
 800019c:	2269      	movs	r2, #105	@ 0x69
 800019e:	490d      	ldr	r1, [pc, #52]	@ (80001d4 <_ZN9__gnu_cxx26__throw_insufficient_spaceEPKcS1_+0x44>)
 80001a0:	1d38      	adds	r0, r7, #4
 80001a2:	f004 ff9b 	bl	80050dc <memcpy>
 80001a6:	f104 0370 	add.w	r3, r4, #112	@ 0x70
 80001aa:	f023 0307 	bic.w	r3, r3, #7
 80001ae:	ebad 0d03 	sub.w	sp, sp, r3
 80001b2:	2268      	movs	r2, #104	@ 0x68
 80001b4:	1d39      	adds	r1, r7, #4
 80001b6:	4668      	mov	r0, sp
 80001b8:	f004 ff90 	bl	80050dc <memcpy>
 80001bc:	4622      	mov	r2, r4
 80001be:	4631      	mov	r1, r6
 80001c0:	a81a      	add	r0, sp, #104	@ 0x68
 80001c2:	f004 ff8b 	bl	80050dc <memcpy>
 80001c6:	2300      	movs	r3, #0
 80001c8:	446c      	add	r4, sp
 80001ca:	4668      	mov	r0, sp
 80001cc:	f884 3068 	strb.w	r3, [r4, #104]	@ 0x68
 80001d0:	f7ff ff80 	bl	80000d4 <_ZSt19__throw_logic_errorPKc>
 80001d4:	080077e0 	.word	0x080077e0

080001d8 <abort>:
 80001d8:	2006      	movs	r0, #6
 80001da:	b508      	push	{r3, lr}
 80001dc:	f006 fb54 	bl	8006888 <raise>
 80001e0:	2001      	movs	r0, #1
 80001e2:	f7ff ff59 	bl	8000098 <_exit>
	...

080001e8 <_ZN2ke5cacheIFvPvPSt9type_infoPFvS1_EEEENS_14instructions_tEPT_>:
 80001e8:	e92d 41f0 	stmdb	sp!, {r4, r5, r6, r7, r8, lr}
 80001ec:	4604      	mov	r4, r0
 80001ee:	4841      	ldr	r0, [pc, #260]	@ (80002f4 <_ZN2ke5cacheIFvPvPSt9type_infoPFvS1_EEEENS_14instructions_tEPT_+0x10c>)
 80001f0:	460d      	mov	r5, r1
 80001f2:	f004 ff5f 	bl	80050b4 <__emutls_get_address>
 80001f6:	7803      	ldrb	r3, [r0, #0]
 80001f8:	b90b      	cbnz	r3, 80001fe <_ZN2ke5cacheIFvPvPSt9type_infoPFvS1_EEEENS_14instructions_tEPT_+0x16>
 80001fa:	f000 ff77 	bl	80010ec <__tls_init.part.0>
 80001fe:	483e      	ldr	r0, [pc, #248]	@ (80002f8 <_ZN2ke5cacheIFvPvPSt9type_infoPFvS1_EEEENS_14instructions_tEPT_+0x110>)
 8000200:	f004 ff58 	bl	80050b4 <__emutls_get_address>
 8000204:	2200      	movs	r2, #0
 8000206:	4e3d      	ldr	r6, [pc, #244]	@ (80002fc <_ZN2ke5cacheIFvPvPSt9type_infoPFvS1_EEEENS_14instructions_tEPT_+0x114>)
 8000208:	4b3d      	ldr	r3, [pc, #244]	@ (8000300 <_ZN2ke5cacheIFvPvPSt9type_infoPFvS1_EEEENS_14instructions_tEPT_+0x118>)
 800020a:	46b6      	mov	lr, r6
 800020c:	1b9b      	subs	r3, r3, r6
 800020e:	ea4f 0ce3 	mov.w	ip, r3, asr #3
 8000212:	f880 209c 	strb.w	r2, [r0, #156]	@ 0x9c
 8000216:	e00d      	b.n	8000234 <_ZN2ke5cacheIFvPvPSt9type_infoPFvS1_EEEENS_14instructions_tEPT_+0x4c>
 8000218:	f85e 3032 	ldr.w	r3, [lr, r2, lsl #3]
 800021c:	f343 031e 	sbfx	r3, r3, #0, #31
 8000220:	440b      	add	r3, r1
 8000222:	429d      	cmp	r5, r3
 8000224:	bf31      	iteee	cc
 8000226:	4694      	movcc	ip, r2
 8000228:	ebac 0c02 	subcs.w	ip, ip, r2
 800022c:	f101 0e08 	addcs.w	lr, r1, #8
 8000230:	f10c 3cff 	addcs.w	ip, ip, #4294967295	@ 0xffffffff
 8000234:	ea4f 026c 	mov.w	r2, ip, asr #1
 8000238:	f1bc 0f00 	cmp.w	ip, #0
 800023c:	eb0e 01c2 	add.w	r1, lr, r2, lsl #3
 8000240:	dcea      	bgt.n	8000218 <_ZN2ke5cacheIFvPvPSt9type_infoPFvS1_EEEENS_14instructions_tEPT_+0x30>
 8000242:	45b6      	cmp	lr, r6
 8000244:	bf18      	it	ne
 8000246:	f1ae 0e08 	subne.w	lr, lr, #8
 800024a:	f8de 3004 	ldr.w	r3, [lr, #4]
 800024e:	2b00      	cmp	r3, #0
 8000250:	da15      	bge.n	800027e <_ZN2ke5cacheIFvPvPSt9type_infoPFvS1_EEEENS_14instructions_tEPT_+0x96>
 8000252:	f04f 31b0 	mov.w	r1, #2964369584	@ 0xb0b0b0b0
 8000256:	20b0      	movs	r0, #176	@ 0xb0
 8000258:	f24b 02b0 	movw	r2, #45232	@ 0xb0b0
 800025c:	f013 6f70 	tst.w	r3, #251658240	@ 0xf000000
 8000260:	71e0      	strb	r0, [r4, #7]
 8000262:	f8c4 1001 	str.w	r1, [r4, #1]
 8000266:	f8a4 2005 	strh.w	r2, [r4, #5]
 800026a:	ea4f 4513 	mov.w	r5, r3, lsr #16
 800026e:	f3c3 2007 	ubfx	r0, r3, #8, #8
 8000272:	b2d9      	uxtb	r1, r3
 8000274:	d10a      	bne.n	800028c <_ZN2ke5cacheIFvPvPSt9type_infoPFvS1_EEEENS_14instructions_tEPT_+0xa4>
 8000276:	7025      	strb	r5, [r4, #0]
 8000278:	7060      	strb	r0, [r4, #1]
 800027a:	70a1      	strb	r1, [r4, #2]
 800027c:	e003      	b.n	8000286 <_ZN2ke5cacheIFvPvPSt9type_infoPFvS1_EEEENS_14instructions_tEPT_+0x9e>
 800027e:	4b21      	ldr	r3, [pc, #132]	@ (8000304 <_ZN2ke5cacheIFvPvPSt9type_infoPFvS1_EEEENS_14instructions_tEPT_+0x11c>)
 8000280:	cb03      	ldmia	r3!, {r0, r1}
 8000282:	6020      	str	r0, [r4, #0]
 8000284:	6061      	str	r1, [r4, #4]
 8000286:	4620      	mov	r0, r4
 8000288:	e8bd 81f0 	ldmia.w	sp!, {r4, r5, r6, r7, r8, pc}
 800028c:	2200      	movs	r2, #0
 800028e:	f8de 3008 	ldr.w	r3, [lr, #8]
 8000292:	f360 0207 	bfi	r2, r0, #0, #8
 8000296:	ea4f 6c13 	mov.w	ip, r3, lsr #24
 800029a:	b2ee      	uxtb	r6, r5
 800029c:	f361 220f 	bfi	r2, r1, #8, #8
 80002a0:	f3c3 4707 	ubfx	r7, r3, #16, #8
 80002a4:	f36c 4217 	bfi	r2, ip, #16, #8
 80002a8:	2e01      	cmp	r6, #1
 80002aa:	f3c3 2807 	ubfx	r8, r3, #8, #8
 80002ae:	f367 621f 	bfi	r2, r7, #24, #8
 80002b2:	b2db      	uxtb	r3, r3
 80002b4:	d010      	beq.n	80002d8 <_ZN2ke5cacheIFvPvPSt9type_infoPFvS1_EEEENS_14instructions_tEPT_+0xf0>
 80002b6:	2e02      	cmp	r6, #2
 80002b8:	d013      	beq.n	80002e2 <_ZN2ke5cacheIFvPvPSt9type_infoPFvS1_EEEENS_14instructions_tEPT_+0xfa>
 80002ba:	71a3      	strb	r3, [r4, #6]
 80002bc:	2300      	movs	r3, #0
 80002be:	f365 0307 	bfi	r3, r5, #0, #8
 80002c2:	f360 230f 	bfi	r3, r0, #8, #8
 80002c6:	f361 4317 	bfi	r3, r1, #16, #8
 80002ca:	f36c 631f 	bfi	r3, ip, #24, #8
 80002ce:	7127      	strb	r7, [r4, #4]
 80002d0:	f884 8005 	strb.w	r8, [r4, #5]
 80002d4:	6023      	str	r3, [r4, #0]
 80002d6:	e7d6      	b.n	8000286 <_ZN2ke5cacheIFvPvPSt9type_infoPFvS1_EEEENS_14instructions_tEPT_+0x9e>
 80002d8:	6022      	str	r2, [r4, #0]
 80002da:	f884 8004 	strb.w	r8, [r4, #4]
 80002de:	7163      	strb	r3, [r4, #5]
 80002e0:	e7d1      	b.n	8000286 <_ZN2ke5cacheIFvPvPSt9type_infoPFvS1_EEEENS_14instructions_tEPT_+0x9e>
 80002e2:	f89e 100f 	ldrb.w	r1, [lr, #15]
 80002e6:	6022      	str	r2, [r4, #0]
 80002e8:	f884 8004 	strb.w	r8, [r4, #4]
 80002ec:	7163      	strb	r3, [r4, #5]
 80002ee:	71a1      	strb	r1, [r4, #6]
 80002f0:	e7c9      	b.n	8000286 <_ZN2ke5cacheIFvPvPSt9type_infoPFvS1_EEEENS_14instructions_tEPT_+0x9e>
 80002f2:	bf00      	nop
 80002f4:	20000080 	.word	0x20000080
 80002f8:	20000070 	.word	0x20000070
 80002fc:	080089e0 	.word	0x080089e0
 8000300:	08008bb0 	.word	0x08008bb0
 8000304:	080077c8 	.word	0x080077c8

08000308 <_GLOBAL__sub_I__ZN2ke13control_blockE>:
 8000308:	b508      	push	{r3, lr}
 800030a:	4907      	ldr	r1, [pc, #28]	@ (8000328 <_GLOBAL__sub_I__ZN2ke13control_blockE+0x20>)
 800030c:	4807      	ldr	r0, [pc, #28]	@ (800032c <_GLOBAL__sub_I__ZN2ke13control_blockE+0x24>)
 800030e:	f7ff ff6b 	bl	80001e8 <_ZN2ke5cacheIFvPvPSt9type_infoPFvS1_EEEENS_14instructions_tEPT_>
 8000312:	4907      	ldr	r1, [pc, #28]	@ (8000330 <_GLOBAL__sub_I__ZN2ke13control_blockE+0x28>)
 8000314:	4807      	ldr	r0, [pc, #28]	@ (8000334 <_GLOBAL__sub_I__ZN2ke13control_blockE+0x2c>)
 8000316:	f7ff ff67 	bl	80001e8 <_ZN2ke5cacheIFvPvPSt9type_infoPFvS1_EEEENS_14instructions_tEPT_>
 800031a:	e8bd 4008 	ldmia.w	sp!, {r3, lr}
 800031e:	4a06      	ldr	r2, [pc, #24]	@ (8000338 <_GLOBAL__sub_I__ZN2ke13control_blockE+0x30>)
 8000320:	4906      	ldr	r1, [pc, #24]	@ (800033c <_GLOBAL__sub_I__ZN2ke13control_blockE+0x34>)
 8000322:	4807      	ldr	r0, [pc, #28]	@ (8000340 <_GLOBAL__sub_I__ZN2ke13control_blockE+0x38>)
 8000324:	f002 becc 	b.w	80030c0 <__aeabi_atexit>
 8000328:	08002d3d 	.word	0x08002d3d
 800032c:	200001a0 	.word	0x200001a0
 8000330:	08002cd1 	.word	0x08002cd1
 8000334:	200001a8 	.word	0x200001a8
 8000338:	20000000 	.word	0x20000000
 800033c:	08001ec5 	.word	0x08001ec5
 8000340:	20000020 	.word	0x20000020

08000344 <main>:
 8000344:	4b82      	ldr	r3, [pc, #520]	@ (8000550 <main+0x20c>)
 8000346:	e92d 4ff0 	stmdb	sp!, {r4, r5, r6, r7, r8, r9, sl, fp, lr}
 800034a:	685a      	ldr	r2, [r3, #4]
 800034c:	b099      	sub	sp, #100	@ 0x64
 800034e:	f022 0203 	bic.w	r2, r2, #3
 8000352:	605a      	str	r2, [r3, #4]
 8000354:	6a1a      	ldr	r2, [r3, #32]
 8000356:	f442 3280 	orr.w	r2, r2, #65536	@ 0x10000
 800035a:	621a      	str	r2, [r3, #32]
 800035c:	6a1a      	ldr	r2, [r3, #32]
 800035e:	f422 3280 	bic.w	r2, r2, #65536	@ 0x10000
 8000362:	621a      	str	r2, [r3, #32]
 8000364:	681a      	ldr	r2, [r3, #0]
 8000366:	f022 7280 	bic.w	r2, r2, #16777216	@ 0x1000000
 800036a:	f422 3280 	bic.w	r2, r2, #65536	@ 0x10000
 800036e:	601a      	str	r2, [r3, #0]
 8000370:	685a      	ldr	r2, [r3, #4]
 8000372:	f422 3240 	bic.w	r2, r2, #196608	@ 0x30000
 8000376:	605a      	str	r2, [r3, #4]
 8000378:	685a      	ldr	r2, [r3, #4]
 800037a:	f422 1270 	bic.w	r2, r2, #3932160	@ 0x3c0000
 800037e:	f442 1260 	orr.w	r2, r2, #3670016	@ 0x380000
 8000382:	605a      	str	r2, [r3, #4]
 8000384:	681a      	ldr	r2, [r3, #0]
 8000386:	f042 7280 	orr.w	r2, r2, #16777216	@ 0x1000000
 800038a:	601a      	str	r2, [r3, #0]
 800038c:	681a      	ldr	r2, [r3, #0]
 800038e:	0194      	lsls	r4, r2, #6
 8000390:	601a      	str	r2, [r3, #0]
 8000392:	d5fb      	bpl.n	800038c <main+0x48>
 8000394:	496f      	ldr	r1, [pc, #444]	@ (8000554 <main+0x210>)
 8000396:	4870      	ldr	r0, [pc, #448]	@ (8000558 <main+0x214>)
 8000398:	4a70      	ldr	r2, [pc, #448]	@ (800055c <main+0x218>)
 800039a:	6008      	str	r0, [r1, #0]
 800039c:	6859      	ldr	r1, [r3, #4]
 800039e:	4870      	ldr	r0, [pc, #448]	@ (8000560 <main+0x21c>)
 80003a0:	400a      	ands	r2, r1
 80003a2:	f442 4204 	orr.w	r2, r2, #33792	@ 0x8400
 80003a6:	605a      	str	r2, [r3, #4]
 80003a8:	6801      	ldr	r1, [r0, #0]
 80003aa:	4a69      	ldr	r2, [pc, #420]	@ (8000550 <main+0x20c>)
 80003ac:	f021 0107 	bic.w	r1, r1, #7
 80003b0:	f041 0102 	orr.w	r1, r1, #2
 80003b4:	6001      	str	r1, [r0, #0]
 80003b6:	6859      	ldr	r1, [r3, #4]
 80003b8:	f021 0103 	bic.w	r1, r1, #3
 80003bc:	f041 0102 	orr.w	r1, r1, #2
 80003c0:	6059      	str	r1, [r3, #4]
 80003c2:	6853      	ldr	r3, [r2, #4]
 80003c4:	f003 010c 	and.w	r1, r3, #12
 80003c8:	2908      	cmp	r1, #8
 80003ca:	6053      	str	r3, [r2, #4]
 80003cc:	d1f9      	bne.n	80003c2 <main+0x7e>
 80003ce:	6a11      	ldr	r1, [r2, #32]
 80003d0:	4864      	ldr	r0, [pc, #400]	@ (8000564 <main+0x220>)
 80003d2:	f421 4103 	bic.w	r1, r1, #33536	@ 0x8300
 80003d6:	6211      	str	r1, [r2, #32]
 80003d8:	4963      	ldr	r1, [pc, #396]	@ (8000568 <main+0x224>)
 80003da:	4b5f      	ldr	r3, [pc, #380]	@ (8000558 <main+0x214>)
 80003dc:	6008      	str	r0, [r1, #0]
 80003de:	4863      	ldr	r0, [pc, #396]	@ (800056c <main+0x228>)
 80003e0:	4963      	ldr	r1, [pc, #396]	@ (8000570 <main+0x22c>)
 80003e2:	6003      	str	r3, [r0, #0]
 80003e4:	4863      	ldr	r0, [pc, #396]	@ (8000574 <main+0x230>)
 80003e6:	4e64      	ldr	r6, [pc, #400]	@ (8000578 <main+0x234>)
 80003e8:	6008      	str	r0, [r1, #0]
 80003ea:	4964      	ldr	r1, [pc, #400]	@ (800057c <main+0x238>)
 80003ec:	6033      	str	r3, [r6, #0]
 80003ee:	600b      	str	r3, [r1, #0]
 80003f0:	4963      	ldr	r1, [pc, #396]	@ (8000580 <main+0x23c>)
 80003f2:	4c64      	ldr	r4, [pc, #400]	@ (8000584 <main+0x240>)
 80003f4:	600b      	str	r3, [r1, #0]
 80003f6:	4b64      	ldr	r3, [pc, #400]	@ (8000588 <main+0x244>)
 80003f8:	4964      	ldr	r1, [pc, #400]	@ (800058c <main+0x248>)
 80003fa:	6019      	str	r1, [r3, #0]
 80003fc:	4b64      	ldr	r3, [pc, #400]	@ (8000590 <main+0x24c>)
 80003fe:	4965      	ldr	r1, [pc, #404]	@ (8000594 <main+0x250>)
 8000400:	6019      	str	r1, [r3, #0]
 8000402:	6823      	ldr	r3, [r4, #0]
 8000404:	07d8      	lsls	r0, r3, #31
 8000406:	f140 8098 	bpl.w	800053a <main+0x1f6>
 800040a:	4d63      	ldr	r5, [pc, #396]	@ (8000598 <main+0x254>)
 800040c:	682b      	ldr	r3, [r5, #0]
 800040e:	f013 0301 	ands.w	r3, r3, #1
 8000412:	f000 8159 	beq.w	80006c8 <main+0x384>
 8000416:	4f61      	ldr	r7, [pc, #388]	@ (800059c <main+0x258>)
 8000418:	ac08      	add	r4, sp, #32
 800041a:	4d61      	ldr	r5, [pc, #388]	@ (80005a0 <main+0x25c>)
 800041c:	2101      	movs	r1, #1
 800041e:	485f      	ldr	r0, [pc, #380]	@ (800059c <main+0x258>)
 8000420:	602f      	str	r7, [r5, #0]
 8000422:	f001 fd77 	bl	8001f14 <_ZN3hal7stm32f112gpio_manager6output12driver_levelEb>
 8000426:	6828      	ldr	r0, [r5, #0]
 8000428:	2100      	movs	r1, #0
 800042a:	6803      	ldr	r3, [r0, #0]
 800042c:	68db      	ldr	r3, [r3, #12]
 800042e:	4798      	blx	r3
 8000430:	6828      	ldr	r0, [r5, #0]
 8000432:	2101      	movs	r1, #1
 8000434:	6803      	ldr	r3, [r0, #0]
 8000436:	68db      	ldr	r3, [r3, #12]
 8000438:	4798      	blx	r3
 800043a:	6828      	ldr	r0, [r5, #0]
 800043c:	2100      	movs	r1, #0
 800043e:	6803      	ldr	r3, [r0, #0]
 8000440:	68db      	ldr	r3, [r3, #12]
 8000442:	4798      	blx	r3
 8000444:	6828      	ldr	r0, [r5, #0]
 8000446:	2101      	movs	r1, #1
 8000448:	6803      	ldr	r3, [r0, #0]
 800044a:	68db      	ldr	r3, [r3, #12]
 800044c:	4798      	blx	r3
 800044e:	6828      	ldr	r0, [r5, #0]
 8000450:	2100      	movs	r1, #0
 8000452:	6803      	ldr	r3, [r0, #0]
 8000454:	68db      	ldr	r3, [r3, #12]
 8000456:	4798      	blx	r3
 8000458:	6828      	ldr	r0, [r5, #0]
 800045a:	2101      	movs	r1, #1
 800045c:	6803      	ldr	r3, [r0, #0]
 800045e:	68db      	ldr	r3, [r3, #12]
 8000460:	4798      	blx	r3
 8000462:	6828      	ldr	r0, [r5, #0]
 8000464:	2100      	movs	r1, #0
 8000466:	6803      	ldr	r3, [r0, #0]
 8000468:	68db      	ldr	r3, [r3, #12]
 800046a:	4798      	blx	r3
 800046c:	6828      	ldr	r0, [r5, #0]
 800046e:	2101      	movs	r1, #1
 8000470:	6803      	ldr	r3, [r0, #0]
 8000472:	68db      	ldr	r3, [r3, #12]
 8000474:	4798      	blx	r3
 8000476:	6828      	ldr	r0, [r5, #0]
 8000478:	2100      	movs	r1, #0
 800047a:	6803      	ldr	r3, [r0, #0]
 800047c:	68db      	ldr	r3, [r3, #12]
 800047e:	4798      	blx	r3
 8000480:	6828      	ldr	r0, [r5, #0]
 8000482:	2101      	movs	r1, #1
 8000484:	6803      	ldr	r3, [r0, #0]
 8000486:	4d47      	ldr	r5, [pc, #284]	@ (80005a4 <main+0x260>)
 8000488:	68db      	ldr	r3, [r3, #12]
 800048a:	4798      	blx	r3
 800048c:	4946      	ldr	r1, [pc, #280]	@ (80005a8 <main+0x264>)
 800048e:	680b      	ldr	r3, [r1, #0]
 8000490:	f013 0301 	ands.w	r3, r3, #1
 8000494:	f000 80fc 	beq.w	8000690 <main+0x34c>
 8000498:	4944      	ldr	r1, [pc, #272]	@ (80005ac <main+0x268>)
 800049a:	4e45      	ldr	r6, [pc, #276]	@ (80005b0 <main+0x26c>)
 800049c:	2300      	movs	r3, #0
 800049e:	4a45      	ldr	r2, [pc, #276]	@ (80005b4 <main+0x270>)
 80004a0:	4840      	ldr	r0, [pc, #256]	@ (80005a4 <main+0x260>)
 80004a2:	600d      	str	r5, [r1, #0]
 80004a4:	f000 fad0 	bl	8000a48 <_ZN3hal5delayERNS_12steady_clockENSt6chrono8durationIxSt5ratioILx1ELx1000000000EEEE.constprop.0>
 80004a8:	6833      	ldr	r3, [r6, #0]
 80004aa:	f013 0301 	ands.w	r3, r3, #1
 80004ae:	f000 8091 	beq.w	80005d4 <main+0x290>
 80004b2:	4d41      	ldr	r5, [pc, #260]	@ (80005b8 <main+0x274>)
 80004b4:	2613      	movs	r6, #19
 80004b6:	4b41      	ldr	r3, [pc, #260]	@ (80005bc <main+0x278>)
 80004b8:	2240      	movs	r2, #64	@ 0x40
 80004ba:	2100      	movs	r1, #0
 80004bc:	4620      	mov	r0, r4
 80004be:	601d      	str	r5, [r3, #0]
 80004c0:	f004 fe1a 	bl	80050f8 <memset>
 80004c4:	483e      	ldr	r0, [pc, #248]	@ (80005c0 <main+0x27c>)
 80004c6:	2313      	movs	r3, #19
 80004c8:	9000      	str	r0, [sp, #0]
 80004ca:	2140      	movs	r1, #64	@ 0x40
 80004cc:	4620      	mov	r0, r4
 80004ce:	4a3d      	ldr	r2, [pc, #244]	@ (80005c4 <main+0x280>)
 80004d0:	f006 fcc8 	bl	8006e64 <snprintf>
 80004d4:	682b      	ldr	r3, [r5, #0]
 80004d6:	f8df 90f0 	ldr.w	r9, [pc, #240]	@ 80005c8 <main+0x284>
 80004da:	f8d3 800c 	ldr.w	r8, [r3, #12]
 80004de:	af04      	add	r7, sp, #16
 80004e0:	45c8      	cmp	r8, r9
 80004e2:	d11d      	bne.n	8000520 <main+0x1dc>
 80004e4:	686a      	ldr	r2, [r5, #4]
 80004e6:	19a1      	adds	r1, r4, r6
 80004e8:	6813      	ldr	r3, [r2, #0]
 80004ea:	061b      	lsls	r3, r3, #24
 80004ec:	d5fc      	bpl.n	80004e8 <main+0x1a4>
 80004ee:	f814 3b01 	ldrb.w	r3, [r4], #1
 80004f2:	42a1      	cmp	r1, r4
 80004f4:	6053      	str	r3, [r2, #4]
 80004f6:	d1f7      	bne.n	80004e8 <main+0x1a4>
 80004f8:	2201      	movs	r2, #1
 80004fa:	4b34      	ldr	r3, [pc, #208]	@ (80005cc <main+0x288>)
 80004fc:	601a      	str	r2, [r3, #0]
 80004fe:	f001 fcc9 	bl	8001e94 <_Z8depth_70v.isra.0>
 8000502:	f000 faed 	bl	8000ae0 <_Z5pausev>
 8000506:	f001 fae5 	bl	8001ad4 <_Z8depth_50v.isra.0>
 800050a:	f000 fae9 	bl	8000ae0 <_Z5pausev>
 800050e:	f001 f901 	bl	8001714 <_Z8depth_30v.isra.0>
 8000512:	f000 fae5 	bl	8000ae0 <_Z5pausev>
 8000516:	f000 ff1d 	bl	8001354 <_Z8depth_10v.isra.0>
 800051a:	f000 fae1 	bl	8000ae0 <_Z5pausev>
 800051e:	e7fe      	b.n	800051e <main+0x1da>
 8000520:	e9cd 4604 	strd	r4, r6, [sp, #16]
 8000524:	4924      	ldr	r1, [pc, #144]	@ (80005b8 <main+0x274>)
 8000526:	e897 000c 	ldmia.w	r7, {r2, r3}
 800052a:	a806      	add	r0, sp, #24
 800052c:	f000 fa08 	bl	8000940 <_ZN3hal7stm32f14uart12driver_writeESt4spanIKhLj4294967295EE>
 8000530:	9b07      	ldr	r3, [sp, #28]
 8000532:	1af6      	subs	r6, r6, r3
 8000534:	441c      	add	r4, r3
 8000536:	d1d3      	bne.n	80004e0 <main+0x19c>
 8000538:	e7de      	b.n	80004f8 <main+0x1b4>
 800053a:	2042      	movs	r0, #66	@ 0x42
 800053c:	4b24      	ldr	r3, [pc, #144]	@ (80005d0 <main+0x28c>)
 800053e:	7018      	strb	r0, [r3, #0]
 8000540:	6993      	ldr	r3, [r2, #24]
 8000542:	0759      	lsls	r1, r3, #29
 8000544:	f140 80e5 	bpl.w	8000712 <main+0x3ce>
 8000548:	2301      	movs	r3, #1
 800054a:	6023      	str	r3, [r4, #0]
 800054c:	e75d      	b.n	800040a <main+0xc6>
 800054e:	bf00      	nop
 8000550:	40021000 	.word	0x40021000
 8000554:	200000c8 	.word	0x200000c8
 8000558:	4c742400 	.word	0x4c742400
 800055c:	ffbf000f 	.word	0xffbf000f
 8000560:	40022000 	.word	0x40022000
 8000564:	4bf42400 	.word	0x4bf42400
 8000568:	2000000c 	.word	0x2000000c
 800056c:	20000008 	.word	0x20000008
 8000570:	200000c4 	.word	0x200000c4
 8000574:	4c22c2ab 	.word	0x4c22c2ab
 8000578:	2000001c 	.word	0x2000001c
 800057c:	20000018 	.word	0x20000018
 8000580:	20000014 	.word	0x20000014
 8000584:	20000194 	.word	0x20000194
 8000588:	20000010 	.word	0x20000010
 800058c:	4b22c2ab 	.word	0x4b22c2ab
 8000590:	20000004 	.word	0x20000004
 8000594:	0800093d 	.word	0x0800093d
 8000598:	2000018c 	.word	0x2000018c
 800059c:	20000184 	.word	0x20000184
 80005a0:	20000168 	.word	0x20000168
 80005a4:	20000154 	.word	0x20000154
 80005a8:	20000164 	.word	0x20000164
 80005ac:	20000150 	.word	0x20000150
 80005b0:	2000014c 	.word	0x2000014c
 80005b4:	000f4240 	.word	0x000f4240
 80005b8:	2000016c 	.word	0x2000016c
 80005bc:	20000198 	.word	0x20000198
 80005c0:	08007910 	.word	0x08007910
 80005c4:	08007908 	.word	0x08007908
 80005c8:	08000941 	.word	0x08000941
 80005cc:	2000019c 	.word	0x2000019c
 80005d0:	20000190 	.word	0x20000190
 80005d4:	2280      	movs	r2, #128	@ 0x80
 80005d6:	4d6b      	ldr	r5, [pc, #428]	@ (8000784 <main+0x440>)
 80005d8:	f8ad 3024 	strh.w	r3, [sp, #36]	@ 0x24
 80005dc:	4b6a      	ldr	r3, [pc, #424]	@ (8000788 <main+0x444>)
 80005de:	496b      	ldr	r1, [pc, #428]	@ (800078c <main+0x448>)
 80005e0:	602b      	str	r3, [r5, #0]
 80005e2:	4b6b      	ldr	r3, [pc, #428]	@ (8000790 <main+0x44c>)
 80005e4:	4f6b      	ldr	r7, [pc, #428]	@ (8000794 <main+0x450>)
 80005e6:	e9c5 2303 	strd	r2, r3, [r5, #12]
 80005ea:	4b6b      	ldr	r3, [pc, #428]	@ (8000798 <main+0x454>)
 80005ec:	204e      	movs	r0, #78	@ 0x4e
 80005ee:	616b      	str	r3, [r5, #20]
 80005f0:	4b6a      	ldr	r3, [pc, #424]	@ (800079c <main+0x458>)
 80005f2:	9108      	str	r1, [sp, #32]
 80005f4:	606b      	str	r3, [r5, #4]
 80005f6:	60af      	str	r7, [r5, #8]
 80005f8:	f000 fd9c 	bl	8001134 <_ZN3hal7stm32f18power_onENS0_10peripheralE>
 80005fc:	4b68      	ldr	r3, [pc, #416]	@ (80007a0 <main+0x45c>)
 80005fe:	6958      	ldr	r0, [r3, #20]
 8000600:	f010 0001 	ands.w	r0, r0, #1
 8000604:	f000 8088 	beq.w	8000718 <main+0x3d4>
 8000608:	f04f 0e14 	mov.w	lr, #20
 800060c:	f04f 0b80 	mov.w	fp, #128	@ 0x80
 8000610:	f242 09a1 	movw	r9, #8353	@ 0x20a1
 8000614:	7cab      	ldrb	r3, [r5, #18]
 8000616:	f8d5 c004 	ldr.w	ip, [r5, #4]
 800061a:	1e5a      	subs	r2, r3, #1
 800061c:	fb0e f202 	mul.w	r2, lr, r2
 8000620:	fb0e f303 	mul.w	r3, lr, r3
 8000624:	f102 4280 	add.w	r2, r2, #1073741824	@ 0x40000000
 8000628:	f103 4380 	add.w	r3, r3, #1073741824	@ 0x40000000
 800062c:	f502 3200 	add.w	r2, r2, #131072	@ 0x20000
 8000630:	f10c 0a04 	add.w	sl, ip, #4
 8000634:	f503 3300 	add.w	r3, r3, #131072	@ 0x20000
 8000638:	f843 bc08 	str.w	fp, [r3, #-8]
 800063c:	f242 080c 	movw	r8, #8204	@ 0x200c
 8000640:	f8c2 a010 	str.w	sl, [r2, #16]
 8000644:	6157      	str	r7, [r2, #20]
 8000646:	f843 9c0c 	str.w	r9, [r3, #-12]
 800064a:	2340      	movs	r3, #64	@ 0x40
 800064c:	f8cc 800c 	str.w	r8, [ip, #12]
 8000650:	4621      	mov	r1, r4
 8000652:	f8cc 3014 	str.w	r3, [ip, #20]
 8000656:	484b      	ldr	r0, [pc, #300]	@ (8000784 <main+0x440>)
 8000658:	f001 fe56 	bl	8002308 <_ZN3hal7stm32f14uart16driver_configureERKNS_6serial8settingsE>
 800065c:	4b51      	ldr	r3, [pc, #324]	@ (80007a4 <main+0x460>)
 800065e:	6819      	ldr	r1, [r3, #0]
 8000660:	f8b5 3013 	ldrh.w	r3, [r5, #19]
 8000664:	f8ad 300c 	strh.w	r3, [sp, #12]
 8000668:	9803      	ldr	r0, [sp, #12]
 800066a:	f001 fc87 	bl	8001f7c <_ZN3hal7stm32f113configure_pinENS0_10pin_selectENS0_12pin_config_tE>
 800066e:	4b4e      	ldr	r3, [pc, #312]	@ (80007a8 <main+0x464>)
 8000670:	6819      	ldr	r1, [r3, #0]
 8000672:	f8b5 3015 	ldrh.w	r3, [r5, #21]
 8000676:	f8ad 3008 	strh.w	r3, [sp, #8]
 800067a:	9802      	ldr	r0, [sp, #8]
 800067c:	f001 fc7e 	bl	8001f7c <_ZN3hal7stm32f113configure_pinENS0_10pin_selectENS0_12pin_config_tE>
 8000680:	2301      	movs	r3, #1
 8000682:	4a4a      	ldr	r2, [pc, #296]	@ (80007ac <main+0x468>)
 8000684:	494a      	ldr	r1, [pc, #296]	@ (80007b0 <main+0x46c>)
 8000686:	483f      	ldr	r0, [pc, #252]	@ (8000784 <main+0x440>)
 8000688:	6033      	str	r3, [r6, #0]
 800068a:	f002 fd19 	bl	80030c0 <__aeabi_atexit>
 800068e:	e711      	b.n	80004b4 <main+0x170>
 8000690:	2701      	movs	r7, #1
 8000692:	e9c5 3301 	strd	r3, r3, [r5, #4]
 8000696:	6832      	ldr	r2, [r6, #0]
 8000698:	4e46      	ldr	r6, [pc, #280]	@ (80007b4 <main+0x470>)
 800069a:	60ea      	str	r2, [r5, #12]
 800069c:	f8d6 00fc 	ldr.w	r0, [r6, #252]	@ 0xfc
 80006a0:	4a45      	ldr	r2, [pc, #276]	@ (80007b8 <main+0x474>)
 80006a2:	f8df c118 	ldr.w	ip, [pc, #280]	@ 80007bc <main+0x478>
 80006a6:	f040 7080 	orr.w	r0, r0, #16777216	@ 0x1000000
 80006aa:	f8c5 c000 	str.w	ip, [r5]
 80006ae:	f8c6 00fc 	str.w	r0, [r6, #252]	@ 0xfc
 80006b2:	6053      	str	r3, [r2, #4]
 80006b4:	6813      	ldr	r3, [r2, #0]
 80006b6:	4628      	mov	r0, r5
 80006b8:	433b      	orrs	r3, r7
 80006ba:	6013      	str	r3, [r2, #0]
 80006bc:	600f      	str	r7, [r1, #0]
 80006be:	4a3b      	ldr	r2, [pc, #236]	@ (80007ac <main+0x468>)
 80006c0:	493f      	ldr	r1, [pc, #252]	@ (80007c0 <main+0x47c>)
 80006c2:	f002 fcfd 	bl	80030c0 <__aeabi_atexit>
 80006c6:	e6e7      	b.n	8000498 <main+0x154>
 80006c8:	4a3e      	ldr	r2, [pc, #248]	@ (80007c4 <main+0x480>)
 80006ca:	4f3f      	ldr	r7, [pc, #252]	@ (80007c8 <main+0x484>)
 80006cc:	7812      	ldrb	r2, [r2, #0]
 80006ce:	9308      	str	r3, [sp, #32]
 80006d0:	3a01      	subs	r2, #1
 80006d2:	b2d2      	uxtb	r2, r2
 80006d4:	f88d 3024 	strb.w	r3, [sp, #36]	@ 0x24
 80006d8:	717b      	strb	r3, [r7, #5]
 80006da:	f1a2 0141 	sub.w	r1, r2, #65	@ 0x41
 80006de:	4b3b      	ldr	r3, [pc, #236]	@ (80007cc <main+0x488>)
 80006e0:	2907      	cmp	r1, #7
 80006e2:	713a      	strb	r2, [r7, #4]
 80006e4:	603b      	str	r3, [r7, #0]
 80006e6:	d83d      	bhi.n	8000764 <main+0x420>
 80006e8:	4b39      	ldr	r3, [pc, #228]	@ (80007d0 <main+0x48c>)
 80006ea:	f853 3021 	ldr.w	r3, [r3, r1, lsl #2]
 80006ee:	681b      	ldr	r3, [r3, #0]
 80006f0:	f003 030f 	and.w	r3, r3, #15
 80006f4:	2b04      	cmp	r3, #4
 80006f6:	d11b      	bne.n	8000730 <main+0x3ec>
 80006f8:	ac08      	add	r4, sp, #32
 80006fa:	4621      	mov	r1, r4
 80006fc:	4638      	mov	r0, r7
 80006fe:	f001 fd21 	bl	8002144 <_ZN3hal7stm32f112gpio_manager6output16driver_configureERKNS_10output_pin8settingsE>
 8000702:	2301      	movs	r3, #1
 8000704:	4638      	mov	r0, r7
 8000706:	4a29      	ldr	r2, [pc, #164]	@ (80007ac <main+0x468>)
 8000708:	4932      	ldr	r1, [pc, #200]	@ (80007d4 <main+0x490>)
 800070a:	602b      	str	r3, [r5, #0]
 800070c:	f002 fcd8 	bl	80030c0 <__aeabi_atexit>
 8000710:	e683      	b.n	800041a <main+0xd6>
 8000712:	f000 fd0f 	bl	8001134 <_ZN3hal7stm32f18power_onENS0_10peripheralE>
 8000716:	e717      	b.n	8000548 <main+0x204>
 8000718:	f000 fd0c 	bl	8001134 <_ZN3hal7stm32f18power_onENS0_10peripheralE>
 800071c:	e774      	b.n	8000608 <main+0x2c4>
 800071e:	2901      	cmp	r1, #1
 8000720:	d10c      	bne.n	800073c <main+0x3f8>
 8000722:	f002 fc6f 	bl	8003004 <__wrap___cxa_begin_catch>
 8000726:	f7ff fc8b 	bl	8000040 <_Z3endv>
 800072a:	f002 fc21 	bl	8002f70 <__wrap___cxa_end_catch>
 800072e:	e6f4      	b.n	800051a <main+0x1d6>
 8000730:	f7ff fc8e 	bl	8000050 <_ZN3hal7stm32f127throw_if_pin_is_unavailableENS0_10pin_selectE.part.0>
 8000734:	4604      	mov	r4, r0
 8000736:	f002 fc1b 	bl	8002f70 <__wrap___cxa_end_catch>
 800073a:	4620      	mov	r0, r4
 800073c:	f002 fca4 	bl	8003088 <__wrap__Unwind_Resume>
 8000740:	2901      	cmp	r1, #1
 8000742:	d1fb      	bne.n	800073c <main+0x3f8>
 8000744:	f002 fc5e 	bl	8003004 <__wrap___cxa_begin_catch>
 8000748:	f7ff fc7a 	bl	8000040 <_Z3endv>
 800074c:	f002 fc10 	bl	8002f70 <__wrap___cxa_end_catch>
 8000750:	e6df      	b.n	8000512 <main+0x1ce>
 8000752:	2901      	cmp	r1, #1
 8000754:	d1f2      	bne.n	800073c <main+0x3f8>
 8000756:	f002 fc55 	bl	8003004 <__wrap___cxa_begin_catch>
 800075a:	f7ff fc71 	bl	8000040 <_Z3endv>
 800075e:	f002 fc07 	bl	8002f70 <__wrap___cxa_end_catch>
 8000762:	e6ce      	b.n	8000502 <main+0x1be>
 8000764:	2208      	movs	r2, #8
 8000766:	481c      	ldr	r0, [pc, #112]	@ (80007d8 <main+0x494>)
 8000768:	f7ff fce4 	bl	8000134 <_ZSt24__throw_out_of_range_fmtPKcz>
 800076c:	2901      	cmp	r1, #1
 800076e:	d1e5      	bne.n	800073c <main+0x3f8>
 8000770:	f002 fc48 	bl	8003004 <__wrap___cxa_begin_catch>
 8000774:	f7ff fc64 	bl	8000040 <_Z3endv>
 8000778:	f002 fbfa 	bl	8002f70 <__wrap___cxa_end_catch>
 800077c:	e6c5      	b.n	800050a <main+0x1c6>
 800077e:	e7d9      	b.n	8000734 <main+0x3f0>
 8000780:	e7d8      	b.n	8000734 <main+0x3f0>
 8000782:	e7d7      	b.n	8000734 <main+0x3f0>
 8000784:	2000016c 	.word	0x2000016c
 8000788:	08007388 	.word	0x08007388
 800078c:	47e10000 	.word	0x47e10000
 8000790:	41050000 	.word	0x41050000
 8000794:	200000cc 	.word	0x200000cc
 8000798:	4e0a4109 	.word	0x4e0a4109
 800079c:	40013800 	.word	0x40013800
 80007a0:	40021000 	.word	0x40021000
 80007a4:	0800737c 	.word	0x0800737c
 80007a8:	08007378 	.word	0x08007378
 80007ac:	20000000 	.word	0x20000000
 80007b0:	080021c9 	.word	0x080021c9
 80007b4:	e000ed00 	.word	0xe000ed00
 80007b8:	e0001000 	.word	0xe0001000
 80007bc:	08007368 	.word	0x08007368
 80007c0:	0800097d 	.word	0x0800097d
 80007c4:	20000190 	.word	0x20000190
 80007c8:	20000184 	.word	0x20000184
 80007cc:	0800734c 	.word	0x0800734c
 80007d0:	08007324 	.word	0x08007324
 80007d4:	08000979 	.word	0x08000979
 80007d8:	080078d4 	.word	0x080078d4

080007dc <_GLOBAL__sub_I__ZNSt3pmr15memory_resourceD2Ev>:
 80007dc:	b508      	push	{r3, lr}
 80007de:	4908      	ldr	r1, [pc, #32]	@ (8000800 <_GLOBAL__sub_I__ZNSt3pmr15memory_resourceD2Ev+0x24>)
 80007e0:	4a08      	ldr	r2, [pc, #32]	@ (8000804 <_GLOBAL__sub_I__ZNSt3pmr15memory_resourceD2Ev+0x28>)
 80007e2:	4809      	ldr	r0, [pc, #36]	@ (8000808 <_GLOBAL__sub_I__ZNSt3pmr15memory_resourceD2Ev+0x2c>)
 80007e4:	f002 fc6c 	bl	80030c0 <__aeabi_atexit>
 80007e8:	4a06      	ldr	r2, [pc, #24]	@ (8000804 <_GLOBAL__sub_I__ZNSt3pmr15memory_resourceD2Ev+0x28>)
 80007ea:	4908      	ldr	r1, [pc, #32]	@ (800080c <_GLOBAL__sub_I__ZNSt3pmr15memory_resourceD2Ev+0x30>)
 80007ec:	4808      	ldr	r0, [pc, #32]	@ (8000810 <_GLOBAL__sub_I__ZNSt3pmr15memory_resourceD2Ev+0x34>)
 80007ee:	f002 fc67 	bl	80030c0 <__aeabi_atexit>
 80007f2:	e8bd 4008 	ldmia.w	sp!, {r3, lr}
 80007f6:	4a03      	ldr	r2, [pc, #12]	@ (8000804 <_GLOBAL__sub_I__ZNSt3pmr15memory_resourceD2Ev+0x28>)
 80007f8:	4906      	ldr	r1, [pc, #24]	@ (8000814 <_GLOBAL__sub_I__ZNSt3pmr15memory_resourceD2Ev+0x38>)
 80007fa:	4807      	ldr	r0, [pc, #28]	@ (8000818 <_GLOBAL__sub_I__ZNSt3pmr15memory_resourceD2Ev+0x3c>)
 80007fc:	f002 bc60 	b.w	80030c0 <__aeabi_atexit>
 8000800:	08003a61 	.word	0x08003a61
 8000804:	20000000 	.word	0x20000000
 8000808:	20000098 	.word	0x20000098
 800080c:	08003a65 	.word	0x08003a65
 8000810:	20000094 	.word	0x20000094
 8000814:	08003a69 	.word	0x08003a69
 8000818:	20000090 	.word	0x20000090

0800081c <_GLOBAL__sub_I__ZSt20__throw_system_errori>:
 800081c:	b508      	push	{r3, lr}
 800081e:	4906      	ldr	r1, [pc, #24]	@ (8000838 <_GLOBAL__sub_I__ZSt20__throw_system_errori+0x1c>)
 8000820:	4a06      	ldr	r2, [pc, #24]	@ (800083c <_GLOBAL__sub_I__ZSt20__throw_system_errori+0x20>)
 8000822:	4807      	ldr	r0, [pc, #28]	@ (8000840 <_GLOBAL__sub_I__ZSt20__throw_system_errori+0x24>)
 8000824:	f002 fc4c 	bl	80030c0 <__aeabi_atexit>
 8000828:	e8bd 4008 	ldmia.w	sp!, {r3, lr}
 800082c:	4a03      	ldr	r2, [pc, #12]	@ (800083c <_GLOBAL__sub_I__ZSt20__throw_system_errori+0x20>)
 800082e:	4905      	ldr	r1, [pc, #20]	@ (8000844 <_GLOBAL__sub_I__ZSt20__throw_system_errori+0x28>)
 8000830:	4805      	ldr	r0, [pc, #20]	@ (8000848 <_GLOBAL__sub_I__ZSt20__throw_system_errori+0x2c>)
 8000832:	f002 bc45 	b.w	80030c0 <__aeabi_atexit>
 8000836:	bf00      	nop
 8000838:	08003f99 	.word	0x08003f99
 800083c:	20000000 	.word	0x20000000
 8000840:	200000a0 	.word	0x200000a0
 8000844:	08003f9d 	.word	0x08003f9d
 8000848:	2000009c 	.word	0x2000009c

0800084c <_start>:
 800084c:	b508      	push	{r3, lr}
 800084e:	4a08      	ldr	r2, [pc, #32]	@ (8000870 <_start+0x24>)
 8000850:	4908      	ldr	r1, [pc, #32]	@ (8000874 <_start+0x28>)
 8000852:	4809      	ldr	r0, [pc, #36]	@ (8000878 <_start+0x2c>)
 8000854:	f004 fc42 	bl	80050dc <memcpy>
 8000858:	2100      	movs	r1, #0
 800085a:	4a08      	ldr	r2, [pc, #32]	@ (800087c <_start+0x30>)
 800085c:	4808      	ldr	r0, [pc, #32]	@ (8000880 <_start+0x34>)
 800085e:	f004 fc4b 	bl	80050f8 <memset>
 8000862:	f004 fd79 	bl	8005358 <__libc_init_array>
 8000866:	2100      	movs	r1, #0
 8000868:	4608      	mov	r0, r1
 800086a:	f7ff fd6b 	bl	8000344 <main>
 800086e:	e7fe      	b.n	800086e <_start+0x22>
 8000870:	000000a8 	.word	0x000000a8
 8000874:	08008bb0 	.word	0x08008bb0
 8000878:	20000000 	.word	0x20000000
 800087c:	00000330 	.word	0x00000330
 8000880:	200000a8 	.word	0x200000a8

08000884 <deregister_tm_clones>:
 8000884:	4803      	ldr	r0, [pc, #12]	@ (8000894 <deregister_tm_clones+0x10>)
 8000886:	4b04      	ldr	r3, [pc, #16]	@ (8000898 <deregister_tm_clones+0x14>)
 8000888:	4283      	cmp	r3, r0
 800088a:	d002      	beq.n	8000892 <deregister_tm_clones+0xe>
 800088c:	4b03      	ldr	r3, [pc, #12]	@ (800089c <deregister_tm_clones+0x18>)
 800088e:	b103      	cbz	r3, 8000892 <deregister_tm_clones+0xe>
 8000890:	4718      	bx	r3
 8000892:	4770      	bx	lr
 8000894:	200000a8 	.word	0x200000a8
 8000898:	200000a8 	.word	0x200000a8
 800089c:	00000000 	.word	0x00000000

080008a0 <register_tm_clones>:
 80008a0:	4805      	ldr	r0, [pc, #20]	@ (80008b8 <register_tm_clones+0x18>)
 80008a2:	4b06      	ldr	r3, [pc, #24]	@ (80008bc <register_tm_clones+0x1c>)
 80008a4:	1a1b      	subs	r3, r3, r0
 80008a6:	0fd9      	lsrs	r1, r3, #31
 80008a8:	eb01 01a3 	add.w	r1, r1, r3, asr #2
 80008ac:	1049      	asrs	r1, r1, #1
 80008ae:	d002      	beq.n	80008b6 <register_tm_clones+0x16>
 80008b0:	4b03      	ldr	r3, [pc, #12]	@ (80008c0 <register_tm_clones+0x20>)
 80008b2:	b103      	cbz	r3, 80008b6 <register_tm_clones+0x16>
 80008b4:	4718      	bx	r3
 80008b6:	4770      	bx	lr
 80008b8:	200000a8 	.word	0x200000a8
 80008bc:	200000a8 	.word	0x200000a8
 80008c0:	00000000 	.word	0x00000000

080008c4 <__do_global_dtors_aux>:
 80008c4:	b510      	push	{r4, lr}
 80008c6:	4c06      	ldr	r4, [pc, #24]	@ (80008e0 <__do_global_dtors_aux+0x1c>)
 80008c8:	7823      	ldrb	r3, [r4, #0]
 80008ca:	b943      	cbnz	r3, 80008de <__do_global_dtors_aux+0x1a>
 80008cc:	f7ff ffda 	bl	8000884 <deregister_tm_clones>
 80008d0:	4b04      	ldr	r3, [pc, #16]	@ (80008e4 <__do_global_dtors_aux+0x20>)
 80008d2:	b113      	cbz	r3, 80008da <__do_global_dtors_aux+0x16>
 80008d4:	4804      	ldr	r0, [pc, #16]	@ (80008e8 <__do_global_dtors_aux+0x24>)
 80008d6:	f3af 8000 	nop.w
 80008da:	2301      	movs	r3, #1
 80008dc:	7023      	strb	r3, [r4, #0]
 80008de:	bd10      	pop	{r4, pc}
 80008e0:	200000a8 	.word	0x200000a8
 80008e4:	00000000 	.word	0x00000000
 80008e8:	080089dc 	.word	0x080089dc

080008ec <frame_dummy>:
 80008ec:	b508      	push	{r3, lr}
 80008ee:	4b05      	ldr	r3, [pc, #20]	@ (8000904 <frame_dummy+0x18>)
 80008f0:	b11b      	cbz	r3, 80008fa <frame_dummy+0xe>
 80008f2:	4905      	ldr	r1, [pc, #20]	@ (8000908 <frame_dummy+0x1c>)
 80008f4:	4805      	ldr	r0, [pc, #20]	@ (800090c <frame_dummy+0x20>)
 80008f6:	f3af 8000 	nop.w
 80008fa:	e8bd 4008 	ldmia.w	sp!, {r3, lr}
 80008fe:	f7ff bfcf 	b.w	80008a0 <register_tm_clones>
 8000902:	bf00      	nop
 8000904:	00000000 	.word	0x00000000
 8000908:	200000ac 	.word	0x200000ac
 800090c:	080089dc 	.word	0x080089dc

08000910 <_ZN3hal26single_exception_allocator11do_allocateEjj>:
 8000910:	4603      	mov	r3, r0
 8000912:	f890 0048 	ldrb.w	r0, [r0, #72]	@ 0x48
 8000916:	b938      	cbnz	r0, 8000928 <_ZN3hal26single_exception_allocator11do_allocateEjj+0x18>
 8000918:	2940      	cmp	r1, #64	@ 0x40
 800091a:	d806      	bhi.n	800092a <_ZN3hal26single_exception_allocator11do_allocateEjj+0x1a>
 800091c:	2201      	movs	r2, #1
 800091e:	f103 0008 	add.w	r0, r3, #8
 8000922:	f883 2048 	strb.w	r2, [r3, #72]	@ 0x48
 8000926:	4770      	bx	lr
 8000928:	2000      	movs	r0, #0
 800092a:	4770      	bx	lr

0800092c <_ZN10__cxxabiv119__terminate_handlerMUlvE_4_FUNEv>:
 800092c:	e7fe      	b.n	800092c <_ZN10__cxxabiv119__terminate_handlerMUlvE_4_FUNEv>
 800092e:	bf00      	nop

08000930 <_ZNK3hal26single_exception_allocator11do_is_equalERKNSt3pmr15memory_resourceE>:
 8000930:	1a08      	subs	r0, r1, r0
 8000932:	fab0 f080 	clz	r0, r0
 8000936:	0940      	lsrs	r0, r0, #5
 8000938:	4770      	bx	lr
 800093a:	bf00      	nop

0800093c <_ZZ19initialize_platformvENUlvE_4_FUNEv>:
 800093c:	e7fe      	b.n	800093c <_ZZ19initialize_platformvENUlvE_4_FUNEv>
 800093e:	bf00      	nop

08000940 <_ZN3hal7stm32f14uart12driver_writeESt4spanIKhLj4294967295EE>:
 8000940:	b510      	push	{r4, lr}
 8000942:	b082      	sub	sp, #8
 8000944:	e9cd 2300 	strd	r2, r3, [sp]
 8000948:	4613      	mov	r3, r2
 800094a:	9a01      	ldr	r2, [sp, #4]
 800094c:	466c      	mov	r4, sp
 800094e:	eb03 0c02 	add.w	ip, r3, r2
 8000952:	459c      	cmp	ip, r3
 8000954:	4686      	mov	lr, r0
 8000956:	6849      	ldr	r1, [r1, #4]
 8000958:	d007      	beq.n	800096a <_ZN3hal7stm32f14uart12driver_writeESt4spanIKhLj4294967295EE+0x2a>
 800095a:	680a      	ldr	r2, [r1, #0]
 800095c:	0612      	lsls	r2, r2, #24
 800095e:	d5fc      	bpl.n	800095a <_ZN3hal7stm32f14uart12driver_writeESt4spanIKhLj4294967295EE+0x1a>
 8000960:	f813 2b01 	ldrb.w	r2, [r3], #1
 8000964:	459c      	cmp	ip, r3
 8000966:	604a      	str	r2, [r1, #4]
 8000968:	d1f7      	bne.n	800095a <_ZN3hal7stm32f14uart12driver_writeESt4spanIKhLj4294967295EE+0x1a>
 800096a:	e894 0003 	ldmia.w	r4, {r0, r1}
 800096e:	e88e 0003 	stmia.w	lr, {r0, r1}
 8000972:	4670      	mov	r0, lr
 8000974:	b002      	add	sp, #8
 8000976:	bd10      	pop	{r4, pc}

08000978 <_ZN3hal7stm32f112gpio_manager6outputD1Ev>:
 8000978:	4770      	bx	lr
 800097a:	bf00      	nop

0800097c <_ZN3hal8cortex_m11dwt_counterD1Ev>:
 800097c:	4770      	bx	lr
 800097e:	bf00      	nop

08000980 <_ZN3hal8cortex_m11dwt_counter13driver_uptimeEv>:
 8000980:	4603      	mov	r3, r0
 8000982:	4a05      	ldr	r2, [pc, #20]	@ (8000998 <_ZN3hal8cortex_m11dwt_counter13driver_uptimeEv+0x18>)
 8000984:	6850      	ldr	r0, [r2, #4]
 8000986:	e9d3 2101 	ldrd	r2, r1, [r3, #4]
 800098a:	4290      	cmp	r0, r2
 800098c:	bf3c      	itt	cc
 800098e:	3101      	addcc	r1, #1
 8000990:	6099      	strcc	r1, [r3, #8]
 8000992:	6058      	str	r0, [r3, #4]
 8000994:	4770      	bx	lr
 8000996:	bf00      	nop
 8000998:	e0001000 	.word	0xe0001000

0800099c <_ZN3hal8cortex_m11dwt_counter16driver_frequencyEv>:
 800099c:	68c0      	ldr	r0, [r0, #12]
 800099e:	4770      	bx	lr

080009a0 <_ZN3hal7stm32f14uart11driver_readESt4spanIhLj4294967295EE>:
 80009a0:	e92d 43f0 	stmdb	sp!, {r4, r5, r6, r7, r8, r9, lr}
 80009a4:	461d      	mov	r5, r3
 80009a6:	b083      	sub	sp, #12
 80009a8:	4415      	add	r5, r2
 80009aa:	ac02      	add	r4, sp, #8
 80009ac:	42aa      	cmp	r2, r5
 80009ae:	4617      	mov	r7, r2
 80009b0:	e904 000c 	stmdb	r4, {r2, r3}
 80009b4:	f8d1 800c 	ldr.w	r8, [r1, #12]
 80009b8:	d02f      	beq.n	8000a1a <_ZN3hal7stm32f14uart11driver_readESt4spanIhLj4294967295EE+0x7a>
 80009ba:	4694      	mov	ip, r2
 80009bc:	2400      	movs	r4, #0
 80009be:	8a0b      	ldrh	r3, [r1, #16]
 80009c0:	4e17      	ldr	r6, [pc, #92]	@ (8000a20 <_ZN3hal7stm32f14uart11driver_readESt4spanIhLj4294967295EE+0x80>)
 80009c2:	e011      	b.n	80009e8 <_ZN3hal7stm32f14uart11driver_readESt4spanIhLj4294967295EE+0x48>
 80009c4:	688a      	ldr	r2, [r1, #8]
 80009c6:	f8a1 e010 	strh.w	lr, [r1, #16]
 80009ca:	5cd3      	ldrb	r3, [r2, r3]
 80009cc:	3401      	adds	r4, #1
 80009ce:	f80c 3b01 	strb.w	r3, [ip], #1
 80009d2:	8a0b      	ldrh	r3, [r1, #16]
 80009d4:	f8d1 800c 	ldr.w	r8, [r1, #12]
 80009d8:	4565      	cmp	r5, ip
 80009da:	fbb3 f2f8 	udiv	r2, r3, r8
 80009de:	fb08 3312 	mls	r3, r8, r2, r3
 80009e2:	b29b      	uxth	r3, r3
 80009e4:	820b      	strh	r3, [r1, #16]
 80009e6:	d010      	beq.n	8000a0a <_ZN3hal7stm32f14uart11driver_readESt4spanIhLj4294967295EE+0x6a>
 80009e8:	7c8a      	ldrb	r2, [r1, #18]
 80009ea:	f103 0e01 	add.w	lr, r3, #1
 80009ee:	eb02 0282 	add.w	r2, r2, r2, lsl #2
 80009f2:	eb06 0282 	add.w	r2, r6, r2, lsl #2
 80009f6:	f852 2c08 	ldr.w	r2, [r2, #-8]
 80009fa:	eba8 0202 	sub.w	r2, r8, r2
 80009fe:	fbb2 f9f8 	udiv	r9, r2, r8
 8000a02:	fb08 2219 	mls	r2, r8, r9, r2
 8000a06:	4293      	cmp	r3, r2
 8000a08:	d1dc      	bne.n	80009c4 <_ZN3hal7stm32f14uart11driver_readESt4spanIhLj4294967295EE+0x24>
 8000a0a:	2301      	movs	r3, #1
 8000a0c:	e9c0 7400 	strd	r7, r4, [r0]
 8000a10:	e9c0 3802 	strd	r3, r8, [r0, #8]
 8000a14:	b003      	add	sp, #12
 8000a16:	e8bd 83f0 	ldmia.w	sp!, {r4, r5, r6, r7, r8, r9, pc}
 8000a1a:	2400      	movs	r4, #0
 8000a1c:	e7f5      	b.n	8000a0a <_ZN3hal7stm32f14uart11driver_readESt4spanIhLj4294967295EE+0x6a>
 8000a1e:	bf00      	nop
 8000a20:	40020000 	.word	0x40020000

08000a24 <_ZN3hal7stm32f14uart12driver_flushEv>:
 8000a24:	7c83      	ldrb	r3, [r0, #18]
 8000a26:	68c2      	ldr	r2, [r0, #12]
 8000a28:	3b01      	subs	r3, #1
 8000a2a:	eb03 0383 	add.w	r3, r3, r3, lsl #2
 8000a2e:	009b      	lsls	r3, r3, #2
 8000a30:	f103 4380 	add.w	r3, r3, #1073741824	@ 0x40000000
 8000a34:	f503 3300 	add.w	r3, r3, #131072	@ 0x20000
 8000a38:	68db      	ldr	r3, [r3, #12]
 8000a3a:	1ad3      	subs	r3, r2, r3
 8000a3c:	fbb3 f1f2 	udiv	r1, r3, r2
 8000a40:	fb02 3311 	mls	r3, r2, r1, r3
 8000a44:	8203      	strh	r3, [r0, #16]
 8000a46:	4770      	bx	lr

08000a48 <_ZN3hal5delayERNS_12steady_clockENSt6chrono8durationIxSt5ratioILx1ELx1000000000EEEE.constprop.0>:
 8000a48:	6803      	ldr	r3, [r0, #0]
 8000a4a:	e92d 41f0 	stmdb	sp!, {r4, r5, r6, r7, r8, lr}
 8000a4e:	689b      	ldr	r3, [r3, #8]
 8000a50:	4605      	mov	r5, r0
 8000a52:	4798      	blx	r3
 8000a54:	4601      	mov	r1, r0
 8000a56:	f04f 507e 	mov.w	r0, #1065353216	@ 0x3f800000
 8000a5a:	f004 f951 	bl	8004d00 <__aeabi_fdiv>
 8000a5e:	491d      	ldr	r1, [pc, #116]	@ (8000ad4 <_ZN3hal5delayERNS_12steady_clockENSt6chrono8durationIxSt5ratioILx1ELx1000000000EEEE.constprop.0+0x8c>)
 8000a60:	f004 f89a 	bl	8004b98 <__aeabi_fmul>
 8000a64:	f020 4600 	bic.w	r6, r0, #2147483648	@ 0x80000000
 8000a68:	4604      	mov	r4, r0
 8000a6a:	491b      	ldr	r1, [pc, #108]	@ (8000ad8 <_ZN3hal5delayERNS_12steady_clockENSt6chrono8durationIxSt5ratioILx1ELx1000000000EEEE.constprop.0+0x90>)
 8000a6c:	4630      	mov	r0, r6
 8000a6e:	f004 fa59 	bl	8004f24 <__aeabi_fcmpun>
 8000a72:	bb40      	cbnz	r0, 8000ac6 <_ZN3hal5delayERNS_12steady_clockENSt6chrono8durationIxSt5ratioILx1ELx1000000000EEEE.constprop.0+0x7e>
 8000a74:	4630      	mov	r0, r6
 8000a76:	4918      	ldr	r1, [pc, #96]	@ (8000ad8 <_ZN3hal5delayERNS_12steady_clockENSt6chrono8durationIxSt5ratioILx1ELx1000000000EEEE.constprop.0+0x90>)
 8000a78:	f004 fa36 	bl	8004ee8 <__aeabi_fcmple>
 8000a7c:	bb18      	cbnz	r0, 8000ac6 <_ZN3hal5delayERNS_12steady_clockENSt6chrono8durationIxSt5ratioILx1ELx1000000000EEEE.constprop.0+0x7e>
 8000a7e:	f04f 38ff 	mov.w	r8, #4294967295	@ 0xffffffff
 8000a82:	f06f 4700 	mvn.w	r7, #2147483648	@ 0x80000000
 8000a86:	682b      	ldr	r3, [r5, #0]
 8000a88:	4628      	mov	r0, r5
 8000a8a:	68db      	ldr	r3, [r3, #12]
 8000a8c:	4798      	blx	r3
 8000a8e:	4642      	mov	r2, r8
 8000a90:	463b      	mov	r3, r7
 8000a92:	4604      	mov	r4, r0
 8000a94:	460e      	mov	r6, r1
 8000a96:	4811      	ldr	r0, [pc, #68]	@ (8000adc <_ZN3hal5delayERNS_12steady_clockENSt6chrono8durationIxSt5ratioILx1ELx1000000000EEEE.constprop.0+0x94>)
 8000a98:	2100      	movs	r1, #0
 8000a9a:	f004 fa59 	bl	8004f50 <__aeabi_ldivmod>
 8000a9e:	460a      	mov	r2, r1
 8000aa0:	2801      	cmp	r0, #1
 8000aa2:	f172 0100 	sbcs.w	r1, r2, #0
 8000aa6:	4603      	mov	r3, r0
 8000aa8:	bfbc      	itt	lt
 8000aaa:	2301      	movlt	r3, #1
 8000aac:	2200      	movlt	r2, #0
 8000aae:	191c      	adds	r4, r3, r4
 8000ab0:	eb46 0602 	adc.w	r6, r6, r2
 8000ab4:	682b      	ldr	r3, [r5, #0]
 8000ab6:	4628      	mov	r0, r5
 8000ab8:	68db      	ldr	r3, [r3, #12]
 8000aba:	4798      	blx	r3
 8000abc:	42a0      	cmp	r0, r4
 8000abe:	41b1      	sbcs	r1, r6
 8000ac0:	d3f8      	bcc.n	8000ab4 <_ZN3hal5delayERNS_12steady_clockENSt6chrono8durationIxSt5ratioILx1ELx1000000000EEEE.constprop.0+0x6c>
 8000ac2:	e8bd 81f0 	ldmia.w	sp!, {r4, r5, r6, r7, r8, pc}
 8000ac6:	4620      	mov	r0, r4
 8000ac8:	f004 fa92 	bl	8004ff0 <__aeabi_f2lz>
 8000acc:	4680      	mov	r8, r0
 8000ace:	460f      	mov	r7, r1
 8000ad0:	e7d9      	b.n	8000a86 <_ZN3hal5delayERNS_12steady_clockENSt6chrono8durationIxSt5ratioILx1ELx1000000000EEEE.constprop.0+0x3e>
 8000ad2:	bf00      	nop
 8000ad4:	4e6e6b28 	.word	0x4e6e6b28
 8000ad8:	7f7fffff 	.word	0x7f7fffff
 8000adc:	000f4240 	.word	0x000f4240

08000ae0 <_Z5pausev>:
 8000ae0:	4902      	ldr	r1, [pc, #8]	@ (8000aec <_Z5pausev+0xc>)
 8000ae2:	2300      	movs	r3, #0
 8000ae4:	4a02      	ldr	r2, [pc, #8]	@ (8000af0 <_Z5pausev+0x10>)
 8000ae6:	6808      	ldr	r0, [r1, #0]
 8000ae8:	f7ff bfae 	b.w	8000a48 <_ZN3hal5delayERNS_12steady_clockENSt6chrono8durationIxSt5ratioILx1ELx1000000000EEEE.constprop.0>
 8000aec:	20000150 	.word	0x20000150
 8000af0:	000f4240 	.word	0x000f4240

08000af4 <_ZN2ke12unwind_frameERKNS_14instructions_tERNS_12cortex_m_cpuE>:
 8000af4:	b5f8      	push	{r3, r4, r5, r6, r7, lr}
 8000af6:	2501      	movs	r5, #1
 8000af8:	4eb4      	ldr	r6, [pc, #720]	@ (8000dcc <_ZN2ke12unwind_frameERKNS_14instructions_tERNS_12cortex_m_cpuE+0x2d8>)
 8000afa:	6b4c      	ldr	r4, [r1, #52]	@ 0x34
 8000afc:	4602      	mov	r2, r0
 8000afe:	f812 cb01 	ldrb.w	ip, [r2], #1
 8000b02:	f856 302c 	ldr.w	r3, [r6, ip, lsl #2]
 8000b06:	f043 0301 	orr.w	r3, r3, #1
 8000b0a:	4718      	bx	r3
 8000b0c:	634c      	str	r4, [r1, #52]	@ 0x34
 8000b0e:	b10d      	cbz	r5, 8000b14 <_ZN2ke12unwind_frameERKNS_14instructions_tERNS_12cortex_m_cpuE+0x20>
 8000b10:	6b8b      	ldr	r3, [r1, #56]	@ 0x38
 8000b12:	63cb      	str	r3, [r1, #60]	@ 0x3c
 8000b14:	bdf8      	pop	{r3, r4, r5, r6, r7, pc}
 8000b16:	7843      	ldrb	r3, [r0, #1]
 8000b18:	2b00      	cmp	r3, #0
 8000b1a:	f000 82d9 	beq.w	80010d0 <_ZN2ke12unwind_frameERKNS_14instructions_tERNS_12cortex_m_cpuE+0x5dc>
 8000b1e:	7842      	ldrb	r2, [r0, #1]
 8000b20:	f00c 030f 	and.w	r3, ip, #15
 8000b24:	ea42 2303 	orr.w	r3, r2, r3, lsl #8
 8000b28:	0712      	lsls	r2, r2, #28
 8000b2a:	f140 82ca 	bpl.w	80010c2 <_ZN2ke12unwind_frameERKNS_14instructions_tERNS_12cortex_m_cpuE+0x5ce>
 8000b2e:	2500      	movs	r5, #0
 8000b30:	f04f 0e01 	mov.w	lr, #1
 8000b34:	fa93 f2a3 	rbit	r2, r3
 8000b38:	fab2 f282 	clz	r2, r2
 8000b3c:	f854 7b04 	ldr.w	r7, [r4], #4
 8000b40:	f102 0c04 	add.w	ip, r2, #4
 8000b44:	fa0e f202 	lsl.w	r2, lr, r2
 8000b48:	4393      	bics	r3, r2
 8000b4a:	f841 702c 	str.w	r7, [r1, ip, lsl #2]
 8000b4e:	d1f1      	bne.n	8000b34 <_ZN2ke12unwind_frameERKNS_14instructions_tERNS_12cortex_m_cpuE+0x40>
 8000b50:	3002      	adds	r0, #2
 8000b52:	e7d3      	b.n	8000afc <_ZN2ke12unwind_frameERKNS_14instructions_tERNS_12cortex_m_cpuE+0x8>
 8000b54:	f00c 0c0f 	and.w	ip, ip, #15
 8000b58:	4610      	mov	r0, r2
 8000b5a:	f851 402c 	ldr.w	r4, [r1, ip, lsl #2]
 8000b5e:	e7cd      	b.n	8000afc <_ZN2ke12unwind_frameERKNS_14instructions_tERNS_12cortex_m_cpuE+0x8>
 8000b60:	4610      	mov	r0, r2
 8000b62:	34f8      	adds	r4, #248	@ 0xf8
 8000b64:	e7ca      	b.n	8000afc <_ZN2ke12unwind_frameERKNS_14instructions_tERNS_12cortex_m_cpuE+0x8>
 8000b66:	4610      	mov	r0, r2
 8000b68:	34f4      	adds	r4, #244	@ 0xf4
 8000b6a:	e7c7      	b.n	8000afc <_ZN2ke12unwind_frameERKNS_14instructions_tERNS_12cortex_m_cpuE+0x8>
 8000b6c:	4610      	mov	r0, r2
 8000b6e:	34f0      	adds	r4, #240	@ 0xf0
 8000b70:	e7c4      	b.n	8000afc <_ZN2ke12unwind_frameERKNS_14instructions_tERNS_12cortex_m_cpuE+0x8>
 8000b72:	4610      	mov	r0, r2
 8000b74:	34ec      	adds	r4, #236	@ 0xec
 8000b76:	e7c1      	b.n	8000afc <_ZN2ke12unwind_frameERKNS_14instructions_tERNS_12cortex_m_cpuE+0x8>
 8000b78:	4610      	mov	r0, r2
 8000b7a:	34e8      	adds	r4, #232	@ 0xe8
 8000b7c:	e7be      	b.n	8000afc <_ZN2ke12unwind_frameERKNS_14instructions_tERNS_12cortex_m_cpuE+0x8>
 8000b7e:	4610      	mov	r0, r2
 8000b80:	34e4      	adds	r4, #228	@ 0xe4
 8000b82:	e7bb      	b.n	8000afc <_ZN2ke12unwind_frameERKNS_14instructions_tERNS_12cortex_m_cpuE+0x8>
 8000b84:	4610      	mov	r0, r2
 8000b86:	34e0      	adds	r4, #224	@ 0xe0
 8000b88:	e7b8      	b.n	8000afc <_ZN2ke12unwind_frameERKNS_14instructions_tERNS_12cortex_m_cpuE+0x8>
 8000b8a:	4610      	mov	r0, r2
 8000b8c:	34dc      	adds	r4, #220	@ 0xdc
 8000b8e:	e7b5      	b.n	8000afc <_ZN2ke12unwind_frameERKNS_14instructions_tERNS_12cortex_m_cpuE+0x8>
 8000b90:	4610      	mov	r0, r2
 8000b92:	34d8      	adds	r4, #216	@ 0xd8
 8000b94:	e7b2      	b.n	8000afc <_ZN2ke12unwind_frameERKNS_14instructions_tERNS_12cortex_m_cpuE+0x8>
 8000b96:	4610      	mov	r0, r2
 8000b98:	34d4      	adds	r4, #212	@ 0xd4
 8000b9a:	e7af      	b.n	8000afc <_ZN2ke12unwind_frameERKNS_14instructions_tERNS_12cortex_m_cpuE+0x8>
 8000b9c:	4610      	mov	r0, r2
 8000b9e:	34d0      	adds	r4, #208	@ 0xd0
 8000ba0:	e7ac      	b.n	8000afc <_ZN2ke12unwind_frameERKNS_14instructions_tERNS_12cortex_m_cpuE+0x8>
 8000ba2:	4610      	mov	r0, r2
 8000ba4:	34cc      	adds	r4, #204	@ 0xcc
 8000ba6:	e7a9      	b.n	8000afc <_ZN2ke12unwind_frameERKNS_14instructions_tERNS_12cortex_m_cpuE+0x8>
 8000ba8:	4610      	mov	r0, r2
 8000baa:	34c8      	adds	r4, #200	@ 0xc8
 8000bac:	e7a6      	b.n	8000afc <_ZN2ke12unwind_frameERKNS_14instructions_tERNS_12cortex_m_cpuE+0x8>
 8000bae:	4610      	mov	r0, r2
 8000bb0:	34c4      	adds	r4, #196	@ 0xc4
 8000bb2:	e7a3      	b.n	8000afc <_ZN2ke12unwind_frameERKNS_14instructions_tERNS_12cortex_m_cpuE+0x8>
 8000bb4:	4610      	mov	r0, r2
 8000bb6:	34c0      	adds	r4, #192	@ 0xc0
 8000bb8:	e7a0      	b.n	8000afc <_ZN2ke12unwind_frameERKNS_14instructions_tERNS_12cortex_m_cpuE+0x8>
 8000bba:	4610      	mov	r0, r2
 8000bbc:	34bc      	adds	r4, #188	@ 0xbc
 8000bbe:	e79d      	b.n	8000afc <_ZN2ke12unwind_frameERKNS_14instructions_tERNS_12cortex_m_cpuE+0x8>
 8000bc0:	4610      	mov	r0, r2
 8000bc2:	34b8      	adds	r4, #184	@ 0xb8
 8000bc4:	e79a      	b.n	8000afc <_ZN2ke12unwind_frameERKNS_14instructions_tERNS_12cortex_m_cpuE+0x8>
 8000bc6:	4610      	mov	r0, r2
 8000bc8:	34b4      	adds	r4, #180	@ 0xb4
 8000bca:	e797      	b.n	8000afc <_ZN2ke12unwind_frameERKNS_14instructions_tERNS_12cortex_m_cpuE+0x8>
 8000bcc:	4610      	mov	r0, r2
 8000bce:	34b0      	adds	r4, #176	@ 0xb0
 8000bd0:	e794      	b.n	8000afc <_ZN2ke12unwind_frameERKNS_14instructions_tERNS_12cortex_m_cpuE+0x8>
 8000bd2:	4610      	mov	r0, r2
 8000bd4:	34ac      	adds	r4, #172	@ 0xac
 8000bd6:	e791      	b.n	8000afc <_ZN2ke12unwind_frameERKNS_14instructions_tERNS_12cortex_m_cpuE+0x8>
 8000bd8:	4610      	mov	r0, r2
 8000bda:	f504 7480 	add.w	r4, r4, #256	@ 0x100
 8000bde:	e78d      	b.n	8000afc <_ZN2ke12unwind_frameERKNS_14instructions_tERNS_12cortex_m_cpuE+0x8>
 8000be0:	4610      	mov	r0, r2
 8000be2:	34fc      	adds	r4, #252	@ 0xfc
 8000be4:	e78a      	b.n	8000afc <_ZN2ke12unwind_frameERKNS_14instructions_tERNS_12cortex_m_cpuE+0x8>
 8000be6:	6823      	ldr	r3, [r4, #0]
 8000be8:	4610      	mov	r0, r2
 8000bea:	610b      	str	r3, [r1, #16]
 8000bec:	6863      	ldr	r3, [r4, #4]
 8000bee:	3420      	adds	r4, #32
 8000bf0:	614b      	str	r3, [r1, #20]
 8000bf2:	f854 3c18 	ldr.w	r3, [r4, #-24]
 8000bf6:	618b      	str	r3, [r1, #24]
 8000bf8:	f854 3c14 	ldr.w	r3, [r4, #-20]
 8000bfc:	61cb      	str	r3, [r1, #28]
 8000bfe:	f854 3c10 	ldr.w	r3, [r4, #-16]
 8000c02:	620b      	str	r3, [r1, #32]
 8000c04:	f854 3c0c 	ldr.w	r3, [r4, #-12]
 8000c08:	624b      	str	r3, [r1, #36]	@ 0x24
 8000c0a:	f854 3c08 	ldr.w	r3, [r4, #-8]
 8000c0e:	628b      	str	r3, [r1, #40]	@ 0x28
 8000c10:	f854 3c04 	ldr.w	r3, [r4, #-4]
 8000c14:	638b      	str	r3, [r1, #56]	@ 0x38
 8000c16:	e771      	b.n	8000afc <_ZN2ke12unwind_frameERKNS_14instructions_tERNS_12cortex_m_cpuE+0x8>
 8000c18:	6823      	ldr	r3, [r4, #0]
 8000c1a:	4610      	mov	r0, r2
 8000c1c:	610b      	str	r3, [r1, #16]
 8000c1e:	6863      	ldr	r3, [r4, #4]
 8000c20:	3424      	adds	r4, #36	@ 0x24
 8000c22:	614b      	str	r3, [r1, #20]
 8000c24:	f854 3c1c 	ldr.w	r3, [r4, #-28]
 8000c28:	618b      	str	r3, [r1, #24]
 8000c2a:	f854 3c18 	ldr.w	r3, [r4, #-24]
 8000c2e:	61cb      	str	r3, [r1, #28]
 8000c30:	f854 3c14 	ldr.w	r3, [r4, #-20]
 8000c34:	620b      	str	r3, [r1, #32]
 8000c36:	f854 3c10 	ldr.w	r3, [r4, #-16]
 8000c3a:	624b      	str	r3, [r1, #36]	@ 0x24
 8000c3c:	f854 3c0c 	ldr.w	r3, [r4, #-12]
 8000c40:	628b      	str	r3, [r1, #40]	@ 0x28
 8000c42:	f854 3c08 	ldr.w	r3, [r4, #-8]
 8000c46:	62cb      	str	r3, [r1, #44]	@ 0x2c
 8000c48:	f854 3c04 	ldr.w	r3, [r4, #-4]
 8000c4c:	638b      	str	r3, [r1, #56]	@ 0x38
 8000c4e:	e755      	b.n	8000afc <_ZN2ke12unwind_frameERKNS_14instructions_tERNS_12cortex_m_cpuE+0x8>
 8000c50:	7842      	ldrb	r2, [r0, #1]
 8000c52:	1e53      	subs	r3, r2, #1
 8000c54:	2b0e      	cmp	r3, #14
 8000c56:	f200 823b 	bhi.w	80010d0 <_ZN2ke12unwind_frameERKNS_14instructions_tERNS_12cortex_m_cpuE+0x5dc>
 8000c5a:	f04f 0c01 	mov.w	ip, #1
 8000c5e:	fa92 f3a2 	rbit	r3, r2
 8000c62:	fab3 f383 	clz	r3, r3
 8000c66:	f854 7b04 	ldr.w	r7, [r4], #4
 8000c6a:	f841 7023 	str.w	r7, [r1, r3, lsl #2]
 8000c6e:	fa0c f303 	lsl.w	r3, ip, r3
 8000c72:	439a      	bics	r2, r3
 8000c74:	d1f3      	bne.n	8000c5e <_ZN2ke12unwind_frameERKNS_14instructions_tERNS_12cortex_m_cpuE+0x16a>
 8000c76:	3002      	adds	r0, #2
 8000c78:	e740      	b.n	8000afc <_ZN2ke12unwind_frameERKNS_14instructions_tERNS_12cortex_m_cpuE+0x8>
 8000c7a:	7847      	ldrb	r7, [r0, #1]
 8000c7c:	3002      	adds	r0, #2
 8000c7e:	2f80      	cmp	r7, #128	@ 0x80
 8000c80:	f040 8223 	bne.w	80010ca <_ZN2ke12unwind_frameERKNS_14instructions_tERNS_12cortex_m_cpuE+0x5d6>
 8000c84:	2700      	movs	r7, #0
 8000c86:	463b      	mov	r3, r7
 8000c88:	f810 cb01 	ldrb.w	ip, [r0], #1
 8000c8c:	3307      	adds	r3, #7
 8000c8e:	b2db      	uxtb	r3, r3
 8000c90:	f00c 027f 	and.w	r2, ip, #127	@ 0x7f
 8000c94:	409a      	lsls	r2, r3
 8000c96:	f1bc 0f80 	cmp.w	ip, #128	@ 0x80
 8000c9a:	ea47 0702 	orr.w	r7, r7, r2
 8000c9e:	d0f3      	beq.n	8000c88 <_ZN2ke12unwind_frameERKNS_14instructions_tERNS_12cortex_m_cpuE+0x194>
 8000ca0:	3781      	adds	r7, #129	@ 0x81
 8000ca2:	eb04 0487 	add.w	r4, r4, r7, lsl #2
 8000ca6:	e729      	b.n	8000afc <_ZN2ke12unwind_frameERKNS_14instructions_tERNS_12cortex_m_cpuE+0x8>
 8000ca8:	6823      	ldr	r3, [r4, #0]
 8000caa:	4610      	mov	r0, r2
 8000cac:	610b      	str	r3, [r1, #16]
 8000cae:	6863      	ldr	r3, [r4, #4]
 8000cb0:	341c      	adds	r4, #28
 8000cb2:	614b      	str	r3, [r1, #20]
 8000cb4:	f854 3c14 	ldr.w	r3, [r4, #-20]
 8000cb8:	618b      	str	r3, [r1, #24]
 8000cba:	f854 3c10 	ldr.w	r3, [r4, #-16]
 8000cbe:	61cb      	str	r3, [r1, #28]
 8000cc0:	f854 3c0c 	ldr.w	r3, [r4, #-12]
 8000cc4:	620b      	str	r3, [r1, #32]
 8000cc6:	f854 3c08 	ldr.w	r3, [r4, #-8]
 8000cca:	624b      	str	r3, [r1, #36]	@ 0x24
 8000ccc:	f854 3c04 	ldr.w	r3, [r4, #-4]
 8000cd0:	628b      	str	r3, [r1, #40]	@ 0x28
 8000cd2:	e713      	b.n	8000afc <_ZN2ke12unwind_frameERKNS_14instructions_tERNS_12cortex_m_cpuE+0x8>
 8000cd4:	6823      	ldr	r3, [r4, #0]
 8000cd6:	4610      	mov	r0, r2
 8000cd8:	610b      	str	r3, [r1, #16]
 8000cda:	6863      	ldr	r3, [r4, #4]
 8000cdc:	3420      	adds	r4, #32
 8000cde:	614b      	str	r3, [r1, #20]
 8000ce0:	f854 3c18 	ldr.w	r3, [r4, #-24]
 8000ce4:	618b      	str	r3, [r1, #24]
 8000ce6:	f854 3c14 	ldr.w	r3, [r4, #-20]
 8000cea:	61cb      	str	r3, [r1, #28]
 8000cec:	f854 3c10 	ldr.w	r3, [r4, #-16]
 8000cf0:	620b      	str	r3, [r1, #32]
 8000cf2:	f854 3c0c 	ldr.w	r3, [r4, #-12]
 8000cf6:	624b      	str	r3, [r1, #36]	@ 0x24
 8000cf8:	f854 3c08 	ldr.w	r3, [r4, #-8]
 8000cfc:	628b      	str	r3, [r1, #40]	@ 0x28
 8000cfe:	f854 3c04 	ldr.w	r3, [r4, #-4]
 8000d02:	62cb      	str	r3, [r1, #44]	@ 0x2c
 8000d04:	e6fa      	b.n	8000afc <_ZN2ke12unwind_frameERKNS_14instructions_tERNS_12cortex_m_cpuE+0x8>
 8000d06:	6823      	ldr	r3, [r4, #0]
 8000d08:	4610      	mov	r0, r2
 8000d0a:	610b      	str	r3, [r1, #16]
 8000d0c:	6863      	ldr	r3, [r4, #4]
 8000d0e:	3410      	adds	r4, #16
 8000d10:	614b      	str	r3, [r1, #20]
 8000d12:	f854 3c08 	ldr.w	r3, [r4, #-8]
 8000d16:	618b      	str	r3, [r1, #24]
 8000d18:	f854 3c04 	ldr.w	r3, [r4, #-4]
 8000d1c:	638b      	str	r3, [r1, #56]	@ 0x38
 8000d1e:	e6ed      	b.n	8000afc <_ZN2ke12unwind_frameERKNS_14instructions_tERNS_12cortex_m_cpuE+0x8>
 8000d20:	6823      	ldr	r3, [r4, #0]
 8000d22:	4610      	mov	r0, r2
 8000d24:	610b      	str	r3, [r1, #16]
 8000d26:	6863      	ldr	r3, [r4, #4]
 8000d28:	3414      	adds	r4, #20
 8000d2a:	614b      	str	r3, [r1, #20]
 8000d2c:	f854 3c0c 	ldr.w	r3, [r4, #-12]
 8000d30:	618b      	str	r3, [r1, #24]
 8000d32:	f854 3c08 	ldr.w	r3, [r4, #-8]
 8000d36:	61cb      	str	r3, [r1, #28]
 8000d38:	f854 3c04 	ldr.w	r3, [r4, #-4]
 8000d3c:	638b      	str	r3, [r1, #56]	@ 0x38
 8000d3e:	e6dd      	b.n	8000afc <_ZN2ke12unwind_frameERKNS_14instructions_tERNS_12cortex_m_cpuE+0x8>
 8000d40:	6823      	ldr	r3, [r4, #0]
 8000d42:	4610      	mov	r0, r2
 8000d44:	610b      	str	r3, [r1, #16]
 8000d46:	6863      	ldr	r3, [r4, #4]
 8000d48:	3418      	adds	r4, #24
 8000d4a:	614b      	str	r3, [r1, #20]
 8000d4c:	f854 3c10 	ldr.w	r3, [r4, #-16]
 8000d50:	618b      	str	r3, [r1, #24]
 8000d52:	f854 3c0c 	ldr.w	r3, [r4, #-12]
 8000d56:	61cb      	str	r3, [r1, #28]
 8000d58:	f854 3c08 	ldr.w	r3, [r4, #-8]
 8000d5c:	620b      	str	r3, [r1, #32]
 8000d5e:	f854 3c04 	ldr.w	r3, [r4, #-4]
 8000d62:	638b      	str	r3, [r1, #56]	@ 0x38
 8000d64:	e6ca      	b.n	8000afc <_ZN2ke12unwind_frameERKNS_14instructions_tERNS_12cortex_m_cpuE+0x8>
 8000d66:	6823      	ldr	r3, [r4, #0]
 8000d68:	4610      	mov	r0, r2
 8000d6a:	610b      	str	r3, [r1, #16]
 8000d6c:	6863      	ldr	r3, [r4, #4]
 8000d6e:	341c      	adds	r4, #28
 8000d70:	614b      	str	r3, [r1, #20]
 8000d72:	f854 3c14 	ldr.w	r3, [r4, #-20]
 8000d76:	618b      	str	r3, [r1, #24]
 8000d78:	f854 3c10 	ldr.w	r3, [r4, #-16]
 8000d7c:	61cb      	str	r3, [r1, #28]
 8000d7e:	f854 3c0c 	ldr.w	r3, [r4, #-12]
 8000d82:	620b      	str	r3, [r1, #32]
 8000d84:	f854 3c08 	ldr.w	r3, [r4, #-8]
 8000d88:	624b      	str	r3, [r1, #36]	@ 0x24
 8000d8a:	f854 3c04 	ldr.w	r3, [r4, #-4]
 8000d8e:	638b      	str	r3, [r1, #56]	@ 0x38
 8000d90:	e6b4      	b.n	8000afc <_ZN2ke12unwind_frameERKNS_14instructions_tERNS_12cortex_m_cpuE+0x8>
 8000d92:	6823      	ldr	r3, [r4, #0]
 8000d94:	4610      	mov	r0, r2
 8000d96:	610b      	str	r3, [r1, #16]
 8000d98:	6863      	ldr	r3, [r4, #4]
 8000d9a:	3408      	adds	r4, #8
 8000d9c:	638b      	str	r3, [r1, #56]	@ 0x38
 8000d9e:	e6ad      	b.n	8000afc <_ZN2ke12unwind_frameERKNS_14instructions_tERNS_12cortex_m_cpuE+0x8>
 8000da0:	6823      	ldr	r3, [r4, #0]
 8000da2:	4610      	mov	r0, r2
 8000da4:	610b      	str	r3, [r1, #16]
 8000da6:	6863      	ldr	r3, [r4, #4]
 8000da8:	340c      	adds	r4, #12
 8000daa:	614b      	str	r3, [r1, #20]
 8000dac:	f854 3c04 	ldr.w	r3, [r4, #-4]
 8000db0:	638b      	str	r3, [r1, #56]	@ 0x38
 8000db2:	e6a3      	b.n	8000afc <_ZN2ke12unwind_frameERKNS_14instructions_tERNS_12cortex_m_cpuE+0x8>
 8000db4:	4610      	mov	r0, r2
 8000db6:	3428      	adds	r4, #40	@ 0x28
 8000db8:	e6a0      	b.n	8000afc <_ZN2ke12unwind_frameERKNS_14instructions_tERNS_12cortex_m_cpuE+0x8>
 8000dba:	4610      	mov	r0, r2
 8000dbc:	3424      	adds	r4, #36	@ 0x24
 8000dbe:	e69d      	b.n	8000afc <_ZN2ke12unwind_frameERKNS_14instructions_tERNS_12cortex_m_cpuE+0x8>
 8000dc0:	4610      	mov	r0, r2
 8000dc2:	3420      	adds	r4, #32
 8000dc4:	e69a      	b.n	8000afc <_ZN2ke12unwind_frameERKNS_14instructions_tERNS_12cortex_m_cpuE+0x8>
 8000dc6:	4610      	mov	r0, r2
 8000dc8:	341c      	adds	r4, #28
 8000dca:	e697      	b.n	8000afc <_ZN2ke12unwind_frameERKNS_14instructions_tERNS_12cortex_m_cpuE+0x8>
 8000dcc:	080073c8 	.word	0x080073c8
 8000dd0:	4610      	mov	r0, r2
 8000dd2:	3418      	adds	r4, #24
 8000dd4:	e692      	b.n	8000afc <_ZN2ke12unwind_frameERKNS_14instructions_tERNS_12cortex_m_cpuE+0x8>
 8000dd6:	4610      	mov	r0, r2
 8000dd8:	3414      	adds	r4, #20
 8000dda:	e68f      	b.n	8000afc <_ZN2ke12unwind_frameERKNS_14instructions_tERNS_12cortex_m_cpuE+0x8>
 8000ddc:	4610      	mov	r0, r2
 8000dde:	3410      	adds	r4, #16
 8000de0:	e68c      	b.n	8000afc <_ZN2ke12unwind_frameERKNS_14instructions_tERNS_12cortex_m_cpuE+0x8>
 8000de2:	4610      	mov	r0, r2
 8000de4:	340c      	adds	r4, #12
 8000de6:	e689      	b.n	8000afc <_ZN2ke12unwind_frameERKNS_14instructions_tERNS_12cortex_m_cpuE+0x8>
 8000de8:	4610      	mov	r0, r2
 8000dea:	3408      	adds	r4, #8
 8000dec:	e686      	b.n	8000afc <_ZN2ke12unwind_frameERKNS_14instructions_tERNS_12cortex_m_cpuE+0x8>
 8000dee:	4610      	mov	r0, r2
 8000df0:	3404      	adds	r4, #4
 8000df2:	e683      	b.n	8000afc <_ZN2ke12unwind_frameERKNS_14instructions_tERNS_12cortex_m_cpuE+0x8>
 8000df4:	f854 3b04 	ldr.w	r3, [r4], #4
 8000df8:	4610      	mov	r0, r2
 8000dfa:	610b      	str	r3, [r1, #16]
 8000dfc:	e67e      	b.n	8000afc <_ZN2ke12unwind_frameERKNS_14instructions_tERNS_12cortex_m_cpuE+0x8>
 8000dfe:	6823      	ldr	r3, [r4, #0]
 8000e00:	4610      	mov	r0, r2
 8000e02:	610b      	str	r3, [r1, #16]
 8000e04:	6863      	ldr	r3, [r4, #4]
 8000e06:	3408      	adds	r4, #8
 8000e08:	614b      	str	r3, [r1, #20]
 8000e0a:	e677      	b.n	8000afc <_ZN2ke12unwind_frameERKNS_14instructions_tERNS_12cortex_m_cpuE+0x8>
 8000e0c:	6823      	ldr	r3, [r4, #0]
 8000e0e:	4610      	mov	r0, r2
 8000e10:	610b      	str	r3, [r1, #16]
 8000e12:	6863      	ldr	r3, [r4, #4]
 8000e14:	340c      	adds	r4, #12
 8000e16:	614b      	str	r3, [r1, #20]
 8000e18:	f854 3c04 	ldr.w	r3, [r4, #-4]
 8000e1c:	618b      	str	r3, [r1, #24]
 8000e1e:	e66d      	b.n	8000afc <_ZN2ke12unwind_frameERKNS_14instructions_tERNS_12cortex_m_cpuE+0x8>
 8000e20:	6823      	ldr	r3, [r4, #0]
 8000e22:	4610      	mov	r0, r2
 8000e24:	610b      	str	r3, [r1, #16]
 8000e26:	6863      	ldr	r3, [r4, #4]
 8000e28:	3410      	adds	r4, #16
 8000e2a:	614b      	str	r3, [r1, #20]
 8000e2c:	f854 3c08 	ldr.w	r3, [r4, #-8]
 8000e30:	618b      	str	r3, [r1, #24]
 8000e32:	f854 3c04 	ldr.w	r3, [r4, #-4]
 8000e36:	61cb      	str	r3, [r1, #28]
 8000e38:	e660      	b.n	8000afc <_ZN2ke12unwind_frameERKNS_14instructions_tERNS_12cortex_m_cpuE+0x8>
 8000e3a:	6823      	ldr	r3, [r4, #0]
 8000e3c:	4610      	mov	r0, r2
 8000e3e:	610b      	str	r3, [r1, #16]
 8000e40:	6863      	ldr	r3, [r4, #4]
 8000e42:	3414      	adds	r4, #20
 8000e44:	614b      	str	r3, [r1, #20]
 8000e46:	f854 3c0c 	ldr.w	r3, [r4, #-12]
 8000e4a:	618b      	str	r3, [r1, #24]
 8000e4c:	f854 3c08 	ldr.w	r3, [r4, #-8]
 8000e50:	61cb      	str	r3, [r1, #28]
 8000e52:	f854 3c04 	ldr.w	r3, [r4, #-4]
 8000e56:	620b      	str	r3, [r1, #32]
 8000e58:	e650      	b.n	8000afc <_ZN2ke12unwind_frameERKNS_14instructions_tERNS_12cortex_m_cpuE+0x8>
 8000e5a:	6823      	ldr	r3, [r4, #0]
 8000e5c:	4610      	mov	r0, r2
 8000e5e:	610b      	str	r3, [r1, #16]
 8000e60:	6863      	ldr	r3, [r4, #4]
 8000e62:	3418      	adds	r4, #24
 8000e64:	614b      	str	r3, [r1, #20]
 8000e66:	f854 3c10 	ldr.w	r3, [r4, #-16]
 8000e6a:	618b      	str	r3, [r1, #24]
 8000e6c:	f854 3c0c 	ldr.w	r3, [r4, #-12]
 8000e70:	61cb      	str	r3, [r1, #28]
 8000e72:	f854 3c08 	ldr.w	r3, [r4, #-8]
 8000e76:	620b      	str	r3, [r1, #32]
 8000e78:	f854 3c04 	ldr.w	r3, [r4, #-4]
 8000e7c:	624b      	str	r3, [r1, #36]	@ 0x24
 8000e7e:	e63d      	b.n	8000afc <_ZN2ke12unwind_frameERKNS_14instructions_tERNS_12cortex_m_cpuE+0x8>
 8000e80:	4610      	mov	r0, r2
 8000e82:	34a8      	adds	r4, #168	@ 0xa8
 8000e84:	e63a      	b.n	8000afc <_ZN2ke12unwind_frameERKNS_14instructions_tERNS_12cortex_m_cpuE+0x8>
 8000e86:	4610      	mov	r0, r2
 8000e88:	34a4      	adds	r4, #164	@ 0xa4
 8000e8a:	e637      	b.n	8000afc <_ZN2ke12unwind_frameERKNS_14instructions_tERNS_12cortex_m_cpuE+0x8>
 8000e8c:	4610      	mov	r0, r2
 8000e8e:	34a0      	adds	r4, #160	@ 0xa0
 8000e90:	e634      	b.n	8000afc <_ZN2ke12unwind_frameERKNS_14instructions_tERNS_12cortex_m_cpuE+0x8>
 8000e92:	4610      	mov	r0, r2
 8000e94:	349c      	adds	r4, #156	@ 0x9c
 8000e96:	e631      	b.n	8000afc <_ZN2ke12unwind_frameERKNS_14instructions_tERNS_12cortex_m_cpuE+0x8>
 8000e98:	4610      	mov	r0, r2
 8000e9a:	3498      	adds	r4, #152	@ 0x98
 8000e9c:	e62e      	b.n	8000afc <_ZN2ke12unwind_frameERKNS_14instructions_tERNS_12cortex_m_cpuE+0x8>
 8000e9e:	4610      	mov	r0, r2
 8000ea0:	3494      	adds	r4, #148	@ 0x94
 8000ea2:	e62b      	b.n	8000afc <_ZN2ke12unwind_frameERKNS_14instructions_tERNS_12cortex_m_cpuE+0x8>
 8000ea4:	4610      	mov	r0, r2
 8000ea6:	3490      	adds	r4, #144	@ 0x90
 8000ea8:	e628      	b.n	8000afc <_ZN2ke12unwind_frameERKNS_14instructions_tERNS_12cortex_m_cpuE+0x8>
 8000eaa:	4610      	mov	r0, r2
 8000eac:	348c      	adds	r4, #140	@ 0x8c
 8000eae:	e625      	b.n	8000afc <_ZN2ke12unwind_frameERKNS_14instructions_tERNS_12cortex_m_cpuE+0x8>
 8000eb0:	4610      	mov	r0, r2
 8000eb2:	3488      	adds	r4, #136	@ 0x88
 8000eb4:	e622      	b.n	8000afc <_ZN2ke12unwind_frameERKNS_14instructions_tERNS_12cortex_m_cpuE+0x8>
 8000eb6:	4610      	mov	r0, r2
 8000eb8:	3484      	adds	r4, #132	@ 0x84
 8000eba:	e61f      	b.n	8000afc <_ZN2ke12unwind_frameERKNS_14instructions_tERNS_12cortex_m_cpuE+0x8>
 8000ebc:	4610      	mov	r0, r2
 8000ebe:	3480      	adds	r4, #128	@ 0x80
 8000ec0:	e61c      	b.n	8000afc <_ZN2ke12unwind_frameERKNS_14instructions_tERNS_12cortex_m_cpuE+0x8>
 8000ec2:	4610      	mov	r0, r2
 8000ec4:	347c      	adds	r4, #124	@ 0x7c
 8000ec6:	e619      	b.n	8000afc <_ZN2ke12unwind_frameERKNS_14instructions_tERNS_12cortex_m_cpuE+0x8>
 8000ec8:	4610      	mov	r0, r2
 8000eca:	3478      	adds	r4, #120	@ 0x78
 8000ecc:	e616      	b.n	8000afc <_ZN2ke12unwind_frameERKNS_14instructions_tERNS_12cortex_m_cpuE+0x8>
 8000ece:	4610      	mov	r0, r2
 8000ed0:	3474      	adds	r4, #116	@ 0x74
 8000ed2:	e613      	b.n	8000afc <_ZN2ke12unwind_frameERKNS_14instructions_tERNS_12cortex_m_cpuE+0x8>
 8000ed4:	4610      	mov	r0, r2
 8000ed6:	3470      	adds	r4, #112	@ 0x70
 8000ed8:	e610      	b.n	8000afc <_ZN2ke12unwind_frameERKNS_14instructions_tERNS_12cortex_m_cpuE+0x8>
 8000eda:	4610      	mov	r0, r2
 8000edc:	346c      	adds	r4, #108	@ 0x6c
 8000ede:	e60d      	b.n	8000afc <_ZN2ke12unwind_frameERKNS_14instructions_tERNS_12cortex_m_cpuE+0x8>
 8000ee0:	4610      	mov	r0, r2
 8000ee2:	3468      	adds	r4, #104	@ 0x68
 8000ee4:	e60a      	b.n	8000afc <_ZN2ke12unwind_frameERKNS_14instructions_tERNS_12cortex_m_cpuE+0x8>
 8000ee6:	4610      	mov	r0, r2
 8000ee8:	3464      	adds	r4, #100	@ 0x64
 8000eea:	e607      	b.n	8000afc <_ZN2ke12unwind_frameERKNS_14instructions_tERNS_12cortex_m_cpuE+0x8>
 8000eec:	4610      	mov	r0, r2
 8000eee:	3460      	adds	r4, #96	@ 0x60
 8000ef0:	e604      	b.n	8000afc <_ZN2ke12unwind_frameERKNS_14instructions_tERNS_12cortex_m_cpuE+0x8>
 8000ef2:	4610      	mov	r0, r2
 8000ef4:	345c      	adds	r4, #92	@ 0x5c
 8000ef6:	e601      	b.n	8000afc <_ZN2ke12unwind_frameERKNS_14instructions_tERNS_12cortex_m_cpuE+0x8>
 8000ef8:	4610      	mov	r0, r2
 8000efa:	3458      	adds	r4, #88	@ 0x58
 8000efc:	e5fe      	b.n	8000afc <_ZN2ke12unwind_frameERKNS_14instructions_tERNS_12cortex_m_cpuE+0x8>
 8000efe:	4610      	mov	r0, r2
 8000f00:	3454      	adds	r4, #84	@ 0x54
 8000f02:	e5fb      	b.n	8000afc <_ZN2ke12unwind_frameERKNS_14instructions_tERNS_12cortex_m_cpuE+0x8>
 8000f04:	4610      	mov	r0, r2
 8000f06:	3450      	adds	r4, #80	@ 0x50
 8000f08:	e5f8      	b.n	8000afc <_ZN2ke12unwind_frameERKNS_14instructions_tERNS_12cortex_m_cpuE+0x8>
 8000f0a:	4610      	mov	r0, r2
 8000f0c:	344c      	adds	r4, #76	@ 0x4c
 8000f0e:	e5f5      	b.n	8000afc <_ZN2ke12unwind_frameERKNS_14instructions_tERNS_12cortex_m_cpuE+0x8>
 8000f10:	4610      	mov	r0, r2
 8000f12:	3448      	adds	r4, #72	@ 0x48
 8000f14:	e5f2      	b.n	8000afc <_ZN2ke12unwind_frameERKNS_14instructions_tERNS_12cortex_m_cpuE+0x8>
 8000f16:	4610      	mov	r0, r2
 8000f18:	3444      	adds	r4, #68	@ 0x44
 8000f1a:	e5ef      	b.n	8000afc <_ZN2ke12unwind_frameERKNS_14instructions_tERNS_12cortex_m_cpuE+0x8>
 8000f1c:	4610      	mov	r0, r2
 8000f1e:	3440      	adds	r4, #64	@ 0x40
 8000f20:	e5ec      	b.n	8000afc <_ZN2ke12unwind_frameERKNS_14instructions_tERNS_12cortex_m_cpuE+0x8>
 8000f22:	4610      	mov	r0, r2
 8000f24:	343c      	adds	r4, #60	@ 0x3c
 8000f26:	e5e9      	b.n	8000afc <_ZN2ke12unwind_frameERKNS_14instructions_tERNS_12cortex_m_cpuE+0x8>
 8000f28:	4610      	mov	r0, r2
 8000f2a:	3438      	adds	r4, #56	@ 0x38
 8000f2c:	e5e6      	b.n	8000afc <_ZN2ke12unwind_frameERKNS_14instructions_tERNS_12cortex_m_cpuE+0x8>
 8000f2e:	4610      	mov	r0, r2
 8000f30:	3434      	adds	r4, #52	@ 0x34
 8000f32:	e5e3      	b.n	8000afc <_ZN2ke12unwind_frameERKNS_14instructions_tERNS_12cortex_m_cpuE+0x8>
 8000f34:	4610      	mov	r0, r2
 8000f36:	3430      	adds	r4, #48	@ 0x30
 8000f38:	e5e0      	b.n	8000afc <_ZN2ke12unwind_frameERKNS_14instructions_tERNS_12cortex_m_cpuE+0x8>
 8000f3a:	4610      	mov	r0, r2
 8000f3c:	342c      	adds	r4, #44	@ 0x2c
 8000f3e:	e5dd      	b.n	8000afc <_ZN2ke12unwind_frameERKNS_14instructions_tERNS_12cortex_m_cpuE+0x8>
 8000f40:	4610      	mov	r0, r2
 8000f42:	34a8      	adds	r4, #168	@ 0xa8
 8000f44:	e5da      	b.n	8000afc <_ZN2ke12unwind_frameERKNS_14instructions_tERNS_12cortex_m_cpuE+0x8>
 8000f46:	4610      	mov	r0, r2
 8000f48:	34a4      	adds	r4, #164	@ 0xa4
 8000f4a:	e5d7      	b.n	8000afc <_ZN2ke12unwind_frameERKNS_14instructions_tERNS_12cortex_m_cpuE+0x8>
 8000f4c:	4610      	mov	r0, r2
 8000f4e:	34a0      	adds	r4, #160	@ 0xa0
 8000f50:	e5d4      	b.n	8000afc <_ZN2ke12unwind_frameERKNS_14instructions_tERNS_12cortex_m_cpuE+0x8>
 8000f52:	4610      	mov	r0, r2
 8000f54:	349c      	adds	r4, #156	@ 0x9c
 8000f56:	e5d1      	b.n	8000afc <_ZN2ke12unwind_frameERKNS_14instructions_tERNS_12cortex_m_cpuE+0x8>
 8000f58:	4610      	mov	r0, r2
 8000f5a:	3498      	adds	r4, #152	@ 0x98
 8000f5c:	e5ce      	b.n	8000afc <_ZN2ke12unwind_frameERKNS_14instructions_tERNS_12cortex_m_cpuE+0x8>
 8000f5e:	4610      	mov	r0, r2
 8000f60:	3494      	adds	r4, #148	@ 0x94
 8000f62:	e5cb      	b.n	8000afc <_ZN2ke12unwind_frameERKNS_14instructions_tERNS_12cortex_m_cpuE+0x8>
 8000f64:	4610      	mov	r0, r2
 8000f66:	3490      	adds	r4, #144	@ 0x90
 8000f68:	e5c8      	b.n	8000afc <_ZN2ke12unwind_frameERKNS_14instructions_tERNS_12cortex_m_cpuE+0x8>
 8000f6a:	4610      	mov	r0, r2
 8000f6c:	348c      	adds	r4, #140	@ 0x8c
 8000f6e:	e5c5      	b.n	8000afc <_ZN2ke12unwind_frameERKNS_14instructions_tERNS_12cortex_m_cpuE+0x8>
 8000f70:	4610      	mov	r0, r2
 8000f72:	3488      	adds	r4, #136	@ 0x88
 8000f74:	e5c2      	b.n	8000afc <_ZN2ke12unwind_frameERKNS_14instructions_tERNS_12cortex_m_cpuE+0x8>
 8000f76:	4610      	mov	r0, r2
 8000f78:	3484      	adds	r4, #132	@ 0x84
 8000f7a:	e5bf      	b.n	8000afc <_ZN2ke12unwind_frameERKNS_14instructions_tERNS_12cortex_m_cpuE+0x8>
 8000f7c:	4610      	mov	r0, r2
 8000f7e:	3480      	adds	r4, #128	@ 0x80
 8000f80:	e5bc      	b.n	8000afc <_ZN2ke12unwind_frameERKNS_14instructions_tERNS_12cortex_m_cpuE+0x8>
 8000f82:	4610      	mov	r0, r2
 8000f84:	347c      	adds	r4, #124	@ 0x7c
 8000f86:	e5b9      	b.n	8000afc <_ZN2ke12unwind_frameERKNS_14instructions_tERNS_12cortex_m_cpuE+0x8>
 8000f88:	4610      	mov	r0, r2
 8000f8a:	3478      	adds	r4, #120	@ 0x78
 8000f8c:	e5b6      	b.n	8000afc <_ZN2ke12unwind_frameERKNS_14instructions_tERNS_12cortex_m_cpuE+0x8>
 8000f8e:	4610      	mov	r0, r2
 8000f90:	3474      	adds	r4, #116	@ 0x74
 8000f92:	e5b3      	b.n	8000afc <_ZN2ke12unwind_frameERKNS_14instructions_tERNS_12cortex_m_cpuE+0x8>
 8000f94:	4610      	mov	r0, r2
 8000f96:	3470      	adds	r4, #112	@ 0x70
 8000f98:	e5b0      	b.n	8000afc <_ZN2ke12unwind_frameERKNS_14instructions_tERNS_12cortex_m_cpuE+0x8>
 8000f9a:	4610      	mov	r0, r2
 8000f9c:	346c      	adds	r4, #108	@ 0x6c
 8000f9e:	e5ad      	b.n	8000afc <_ZN2ke12unwind_frameERKNS_14instructions_tERNS_12cortex_m_cpuE+0x8>
 8000fa0:	4610      	mov	r0, r2
 8000fa2:	3468      	adds	r4, #104	@ 0x68
 8000fa4:	e5aa      	b.n	8000afc <_ZN2ke12unwind_frameERKNS_14instructions_tERNS_12cortex_m_cpuE+0x8>
 8000fa6:	4610      	mov	r0, r2
 8000fa8:	3464      	adds	r4, #100	@ 0x64
 8000faa:	e5a7      	b.n	8000afc <_ZN2ke12unwind_frameERKNS_14instructions_tERNS_12cortex_m_cpuE+0x8>
 8000fac:	4610      	mov	r0, r2
 8000fae:	3460      	adds	r4, #96	@ 0x60
 8000fb0:	e5a4      	b.n	8000afc <_ZN2ke12unwind_frameERKNS_14instructions_tERNS_12cortex_m_cpuE+0x8>
 8000fb2:	4610      	mov	r0, r2
 8000fb4:	345c      	adds	r4, #92	@ 0x5c
 8000fb6:	e5a1      	b.n	8000afc <_ZN2ke12unwind_frameERKNS_14instructions_tERNS_12cortex_m_cpuE+0x8>
 8000fb8:	4610      	mov	r0, r2
 8000fba:	3458      	adds	r4, #88	@ 0x58
 8000fbc:	e59e      	b.n	8000afc <_ZN2ke12unwind_frameERKNS_14instructions_tERNS_12cortex_m_cpuE+0x8>
 8000fbe:	4610      	mov	r0, r2
 8000fc0:	3454      	adds	r4, #84	@ 0x54
 8000fc2:	e59b      	b.n	8000afc <_ZN2ke12unwind_frameERKNS_14instructions_tERNS_12cortex_m_cpuE+0x8>
 8000fc4:	4610      	mov	r0, r2
 8000fc6:	3450      	adds	r4, #80	@ 0x50
 8000fc8:	e598      	b.n	8000afc <_ZN2ke12unwind_frameERKNS_14instructions_tERNS_12cortex_m_cpuE+0x8>
 8000fca:	4610      	mov	r0, r2
 8000fcc:	344c      	adds	r4, #76	@ 0x4c
 8000fce:	e595      	b.n	8000afc <_ZN2ke12unwind_frameERKNS_14instructions_tERNS_12cortex_m_cpuE+0x8>
 8000fd0:	4610      	mov	r0, r2
 8000fd2:	3448      	adds	r4, #72	@ 0x48
 8000fd4:	e592      	b.n	8000afc <_ZN2ke12unwind_frameERKNS_14instructions_tERNS_12cortex_m_cpuE+0x8>
 8000fd6:	4610      	mov	r0, r2
 8000fd8:	3444      	adds	r4, #68	@ 0x44
 8000fda:	e58f      	b.n	8000afc <_ZN2ke12unwind_frameERKNS_14instructions_tERNS_12cortex_m_cpuE+0x8>
 8000fdc:	4610      	mov	r0, r2
 8000fde:	3440      	adds	r4, #64	@ 0x40
 8000fe0:	e58c      	b.n	8000afc <_ZN2ke12unwind_frameERKNS_14instructions_tERNS_12cortex_m_cpuE+0x8>
 8000fe2:	4610      	mov	r0, r2
 8000fe4:	343c      	adds	r4, #60	@ 0x3c
 8000fe6:	e589      	b.n	8000afc <_ZN2ke12unwind_frameERKNS_14instructions_tERNS_12cortex_m_cpuE+0x8>
 8000fe8:	4610      	mov	r0, r2
 8000fea:	3438      	adds	r4, #56	@ 0x38
 8000fec:	e586      	b.n	8000afc <_ZN2ke12unwind_frameERKNS_14instructions_tERNS_12cortex_m_cpuE+0x8>
 8000fee:	4610      	mov	r0, r2
 8000ff0:	3434      	adds	r4, #52	@ 0x34
 8000ff2:	e583      	b.n	8000afc <_ZN2ke12unwind_frameERKNS_14instructions_tERNS_12cortex_m_cpuE+0x8>
 8000ff4:	4610      	mov	r0, r2
 8000ff6:	3430      	adds	r4, #48	@ 0x30
 8000ff8:	e580      	b.n	8000afc <_ZN2ke12unwind_frameERKNS_14instructions_tERNS_12cortex_m_cpuE+0x8>
 8000ffa:	4610      	mov	r0, r2
 8000ffc:	342c      	adds	r4, #44	@ 0x2c
 8000ffe:	e57d      	b.n	8000afc <_ZN2ke12unwind_frameERKNS_14instructions_tERNS_12cortex_m_cpuE+0x8>
 8001000:	4610      	mov	r0, r2
 8001002:	3428      	adds	r4, #40	@ 0x28
 8001004:	e57a      	b.n	8000afc <_ZN2ke12unwind_frameERKNS_14instructions_tERNS_12cortex_m_cpuE+0x8>
 8001006:	4610      	mov	r0, r2
 8001008:	3424      	adds	r4, #36	@ 0x24
 800100a:	e577      	b.n	8000afc <_ZN2ke12unwind_frameERKNS_14instructions_tERNS_12cortex_m_cpuE+0x8>
 800100c:	4610      	mov	r0, r2
 800100e:	3420      	adds	r4, #32
 8001010:	e574      	b.n	8000afc <_ZN2ke12unwind_frameERKNS_14instructions_tERNS_12cortex_m_cpuE+0x8>
 8001012:	4610      	mov	r0, r2
 8001014:	341c      	adds	r4, #28
 8001016:	e571      	b.n	8000afc <_ZN2ke12unwind_frameERKNS_14instructions_tERNS_12cortex_m_cpuE+0x8>
 8001018:	4610      	mov	r0, r2
 800101a:	3418      	adds	r4, #24
 800101c:	e56e      	b.n	8000afc <_ZN2ke12unwind_frameERKNS_14instructions_tERNS_12cortex_m_cpuE+0x8>
 800101e:	4610      	mov	r0, r2
 8001020:	3414      	adds	r4, #20
 8001022:	e56b      	b.n	8000afc <_ZN2ke12unwind_frameERKNS_14instructions_tERNS_12cortex_m_cpuE+0x8>
 8001024:	4610      	mov	r0, r2
 8001026:	3410      	adds	r4, #16
 8001028:	e568      	b.n	8000afc <_ZN2ke12unwind_frameERKNS_14instructions_tERNS_12cortex_m_cpuE+0x8>
 800102a:	4610      	mov	r0, r2
 800102c:	340c      	adds	r4, #12
 800102e:	e565      	b.n	8000afc <_ZN2ke12unwind_frameERKNS_14instructions_tERNS_12cortex_m_cpuE+0x8>
 8001030:	4610      	mov	r0, r2
 8001032:	3408      	adds	r4, #8
 8001034:	e562      	b.n	8000afc <_ZN2ke12unwind_frameERKNS_14instructions_tERNS_12cortex_m_cpuE+0x8>
 8001036:	4610      	mov	r0, r2
 8001038:	3404      	adds	r4, #4
 800103a:	e55f      	b.n	8000afc <_ZN2ke12unwind_frameERKNS_14instructions_tERNS_12cortex_m_cpuE+0x8>
 800103c:	4610      	mov	r0, r2
 800103e:	f504 7480 	add.w	r4, r4, #256	@ 0x100
 8001042:	e55b      	b.n	8000afc <_ZN2ke12unwind_frameERKNS_14instructions_tERNS_12cortex_m_cpuE+0x8>
 8001044:	4610      	mov	r0, r2
 8001046:	34fc      	adds	r4, #252	@ 0xfc
 8001048:	e558      	b.n	8000afc <_ZN2ke12unwind_frameERKNS_14instructions_tERNS_12cortex_m_cpuE+0x8>
 800104a:	4610      	mov	r0, r2
 800104c:	34f8      	adds	r4, #248	@ 0xf8
 800104e:	e555      	b.n	8000afc <_ZN2ke12unwind_frameERKNS_14instructions_tERNS_12cortex_m_cpuE+0x8>
 8001050:	4610      	mov	r0, r2
 8001052:	34f4      	adds	r4, #244	@ 0xf4
 8001054:	e552      	b.n	8000afc <_ZN2ke12unwind_frameERKNS_14instructions_tERNS_12cortex_m_cpuE+0x8>
 8001056:	4610      	mov	r0, r2
 8001058:	34f0      	adds	r4, #240	@ 0xf0
 800105a:	e54f      	b.n	8000afc <_ZN2ke12unwind_frameERKNS_14instructions_tERNS_12cortex_m_cpuE+0x8>
 800105c:	4610      	mov	r0, r2
 800105e:	34ec      	adds	r4, #236	@ 0xec
 8001060:	e54c      	b.n	8000afc <_ZN2ke12unwind_frameERKNS_14instructions_tERNS_12cortex_m_cpuE+0x8>
 8001062:	4610      	mov	r0, r2
 8001064:	34e8      	adds	r4, #232	@ 0xe8
 8001066:	e549      	b.n	8000afc <_ZN2ke12unwind_frameERKNS_14instructions_tERNS_12cortex_m_cpuE+0x8>
 8001068:	4610      	mov	r0, r2
 800106a:	34e4      	adds	r4, #228	@ 0xe4
 800106c:	e546      	b.n	8000afc <_ZN2ke12unwind_frameERKNS_14instructions_tERNS_12cortex_m_cpuE+0x8>
 800106e:	4610      	mov	r0, r2
 8001070:	34e0      	adds	r4, #224	@ 0xe0
 8001072:	e543      	b.n	8000afc <_ZN2ke12unwind_frameERKNS_14instructions_tERNS_12cortex_m_cpuE+0x8>
 8001074:	4610      	mov	r0, r2
 8001076:	34dc      	adds	r4, #220	@ 0xdc
 8001078:	e540      	b.n	8000afc <_ZN2ke12unwind_frameERKNS_14instructions_tERNS_12cortex_m_cpuE+0x8>
 800107a:	4610      	mov	r0, r2
 800107c:	34d8      	adds	r4, #216	@ 0xd8
 800107e:	e53d      	b.n	8000afc <_ZN2ke12unwind_frameERKNS_14instructions_tERNS_12cortex_m_cpuE+0x8>
 8001080:	4610      	mov	r0, r2
 8001082:	34d4      	adds	r4, #212	@ 0xd4
 8001084:	e53a      	b.n	8000afc <_ZN2ke12unwind_frameERKNS_14instructions_tERNS_12cortex_m_cpuE+0x8>
 8001086:	4610      	mov	r0, r2
 8001088:	34d0      	adds	r4, #208	@ 0xd0
 800108a:	e537      	b.n	8000afc <_ZN2ke12unwind_frameERKNS_14instructions_tERNS_12cortex_m_cpuE+0x8>
 800108c:	4610      	mov	r0, r2
 800108e:	34cc      	adds	r4, #204	@ 0xcc
 8001090:	e534      	b.n	8000afc <_ZN2ke12unwind_frameERKNS_14instructions_tERNS_12cortex_m_cpuE+0x8>
 8001092:	4610      	mov	r0, r2
 8001094:	34c8      	adds	r4, #200	@ 0xc8
 8001096:	e531      	b.n	8000afc <_ZN2ke12unwind_frameERKNS_14instructions_tERNS_12cortex_m_cpuE+0x8>
 8001098:	4610      	mov	r0, r2
 800109a:	34c4      	adds	r4, #196	@ 0xc4
 800109c:	e52e      	b.n	8000afc <_ZN2ke12unwind_frameERKNS_14instructions_tERNS_12cortex_m_cpuE+0x8>
 800109e:	4610      	mov	r0, r2
 80010a0:	34c0      	adds	r4, #192	@ 0xc0
 80010a2:	e52b      	b.n	8000afc <_ZN2ke12unwind_frameERKNS_14instructions_tERNS_12cortex_m_cpuE+0x8>
 80010a4:	4610      	mov	r0, r2
 80010a6:	34bc      	adds	r4, #188	@ 0xbc
 80010a8:	e528      	b.n	8000afc <_ZN2ke12unwind_frameERKNS_14instructions_tERNS_12cortex_m_cpuE+0x8>
 80010aa:	4610      	mov	r0, r2
 80010ac:	34b8      	adds	r4, #184	@ 0xb8
 80010ae:	e525      	b.n	8000afc <_ZN2ke12unwind_frameERKNS_14instructions_tERNS_12cortex_m_cpuE+0x8>
 80010b0:	4610      	mov	r0, r2
 80010b2:	34b4      	adds	r4, #180	@ 0xb4
 80010b4:	e522      	b.n	8000afc <_ZN2ke12unwind_frameERKNS_14instructions_tERNS_12cortex_m_cpuE+0x8>
 80010b6:	4610      	mov	r0, r2
 80010b8:	34b0      	adds	r4, #176	@ 0xb0
 80010ba:	e51f      	b.n	8000afc <_ZN2ke12unwind_frameERKNS_14instructions_tERNS_12cortex_m_cpuE+0x8>
 80010bc:	4610      	mov	r0, r2
 80010be:	34ac      	adds	r4, #172	@ 0xac
 80010c0:	e51c      	b.n	8000afc <_ZN2ke12unwind_frameERKNS_14instructions_tERNS_12cortex_m_cpuE+0x8>
 80010c2:	2b00      	cmp	r3, #0
 80010c4:	f47f ad34 	bne.w	8000b30 <_ZN2ke12unwind_frameERKNS_14instructions_tERNS_12cortex_m_cpuE+0x3c>
 80010c8:	e542      	b.n	8000b50 <_ZN2ke12unwind_frameERKNS_14instructions_tERNS_12cortex_m_cpuE+0x5c>
 80010ca:	f007 077f 	and.w	r7, r7, #127	@ 0x7f
 80010ce:	e5e7      	b.n	8000ca0 <_ZN2ke12unwind_frameERKNS_14instructions_tERNS_12cortex_m_cpuE+0x1ac>
 80010d0:	f7fe ffe6 	bl	80000a0 <_ZSt9terminatev>

080010d4 <_ZN3hal26single_exception_allocator13do_deallocateEPvjj>:
 80010d4:	b508      	push	{r3, lr}
 80010d6:	f100 0308 	add.w	r3, r0, #8
 80010da:	428b      	cmp	r3, r1
 80010dc:	d103      	bne.n	80010e6 <_ZN3hal26single_exception_allocator13do_deallocateEPvjj+0x12>
 80010de:	2300      	movs	r3, #0
 80010e0:	f880 3048 	strb.w	r3, [r0, #72]	@ 0x48
 80010e4:	bd08      	pop	{r3, pc}
 80010e6:	f7fe ffdb 	bl	80000a0 <_ZSt9terminatev>
 80010ea:	bf00      	nop

080010ec <__tls_init.part.0>:
 80010ec:	b508      	push	{r3, lr}
 80010ee:	480f      	ldr	r0, [pc, #60]	@ (800112c <__tls_init.part.0+0x40>)
 80010f0:	f003 ffe0 	bl	80050b4 <__emutls_get_address>
 80010f4:	2201      	movs	r2, #1
 80010f6:	4603      	mov	r3, r0
 80010f8:	480d      	ldr	r0, [pc, #52]	@ (8001130 <__tls_init.part.0+0x44>)
 80010fa:	701a      	strb	r2, [r3, #0]
 80010fc:	f003 ffda 	bl	80050b4 <__emutls_get_address>
 8001100:	2100      	movs	r1, #0
 8001102:	2244      	movs	r2, #68	@ 0x44
 8001104:	e9c0 1100 	strd	r1, r1, [r0]
 8001108:	e9c0 1102 	strd	r1, r1, [r0, #8]
 800110c:	e9c0 1104 	strd	r1, r1, [r0, #16]
 8001110:	e9c0 1106 	strd	r1, r1, [r0, #24]
 8001114:	e9c0 1108 	strd	r1, r1, [r0, #32]
 8001118:	e9c0 110a 	strd	r1, r1, [r0, #40]	@ 0x28
 800111c:	e9c0 110c 	strd	r1, r1, [r0, #48]	@ 0x30
 8001120:	e9c0 110e 	strd	r1, r1, [r0, #56]	@ 0x38
 8001124:	3040      	adds	r0, #64	@ 0x40
 8001126:	f003 ffe7 	bl	80050f8 <memset>
 800112a:	bd08      	pop	{r3, pc}
 800112c:	20000080 	.word	0x20000080
 8001130:	20000070 	.word	0x20000070

08001134 <_ZN3hal7stm32f18power_onENS0_10peripheralE>:
 8001134:	b508      	push	{r3, lr}
 8001136:	0943      	lsrs	r3, r0, #5
 8001138:	2b01      	cmp	r3, #1
 800113a:	f000 001f 	and.w	r0, r0, #31
 800113e:	d00f      	beq.n	8001160 <_ZN3hal7stm32f18power_onENS0_10peripheralE+0x2c>
 8001140:	2b02      	cmp	r3, #2
 8001142:	d10a      	bne.n	800115a <_ZN3hal7stm32f18power_onENS0_10peripheralE+0x26>
 8001144:	4a09      	ldr	r2, [pc, #36]	@ (800116c <_ZN3hal7stm32f18power_onENS0_10peripheralE+0x38>)
 8001146:	6813      	ldr	r3, [r2, #0]
 8001148:	40c3      	lsrs	r3, r0
 800114a:	07db      	lsls	r3, r3, #31
 800114c:	d40a      	bmi.n	8001164 <_ZN3hal7stm32f18power_onENS0_10peripheralE+0x30>
 800114e:	2301      	movs	r3, #1
 8001150:	6811      	ldr	r1, [r2, #0]
 8001152:	4083      	lsls	r3, r0
 8001154:	430b      	orrs	r3, r1
 8001156:	6013      	str	r3, [r2, #0]
 8001158:	bd08      	pop	{r3, pc}
 800115a:	b92b      	cbnz	r3, 8001168 <_ZN3hal7stm32f18power_onENS0_10peripheralE+0x34>
 800115c:	4a04      	ldr	r2, [pc, #16]	@ (8001170 <_ZN3hal7stm32f18power_onENS0_10peripheralE+0x3c>)
 800115e:	e7f2      	b.n	8001146 <_ZN3hal7stm32f18power_onENS0_10peripheralE+0x12>
 8001160:	4a04      	ldr	r2, [pc, #16]	@ (8001174 <_ZN3hal7stm32f18power_onENS0_10peripheralE+0x40>)
 8001162:	e7f0      	b.n	8001146 <_ZN3hal7stm32f18power_onENS0_10peripheralE+0x12>
 8001164:	f7fe ff74 	bl	8000050 <_ZN3hal7stm32f127throw_if_pin_is_unavailableENS0_10pin_selectE.part.0>
 8001168:	f7fe ff84 	bl	8000074 <_ZN3hal7stm32f112_GLOBAL__N_124get_enable_register_infoENS0_10peripheralE.part.0>
 800116c:	40021018 	.word	0x40021018
 8001170:	40021014 	.word	0x40021014
 8001174:	4002101c 	.word	0x4002101c

08001178 <_Z8depth_01v.isra.0>:
 8001178:	4b12      	ldr	r3, [pc, #72]	@ (80011c4 <_Z8depth_01v.isra.0+0x4c>)
 800117a:	b500      	push	{lr}
 800117c:	6819      	ldr	r1, [r3, #0]
 800117e:	681a      	ldr	r2, [r3, #0]
 8001180:	b083      	sub	sp, #12
 8001182:	3201      	adds	r2, #1
 8001184:	601a      	str	r2, [r3, #0]
 8001186:	681a      	ldr	r2, [r3, #0]
 8001188:	eb02 2221 	add.w	r2, r2, r1, asr #8
 800118c:	601a      	str	r2, [r3, #0]
 800118e:	681a      	ldr	r2, [r3, #0]
 8001190:	9201      	str	r2, [sp, #4]
 8001192:	9a01      	ldr	r2, [sp, #4]
 8001194:	2a00      	cmp	r2, #0
 8001196:	db03      	blt.n	80011a0 <_Z8depth_01v.isra.0+0x28>
 8001198:	681a      	ldr	r2, [r3, #0]
 800119a:	2a00      	cmp	r2, #0
 800119c:	dc03      	bgt.n	80011a6 <_Z8depth_01v.isra.0+0x2e>
 800119e:	681b      	ldr	r3, [r3, #0]
 80011a0:	b003      	add	sp, #12
 80011a2:	f85d fb04 	ldr.w	pc, [sp], #4
 80011a6:	4b08      	ldr	r3, [pc, #32]	@ (80011c8 <_Z8depth_01v.isra.0+0x50>)
 80011a8:	2100      	movs	r1, #0
 80011aa:	6818      	ldr	r0, [r3, #0]
 80011ac:	6803      	ldr	r3, [r0, #0]
 80011ae:	68db      	ldr	r3, [r3, #12]
 80011b0:	4798      	blx	r3
 80011b2:	2004      	movs	r0, #4
 80011b4:	f001 fe6c 	bl	8002e90 <__wrap___cxa_allocate_exception>
 80011b8:	4b04      	ldr	r3, [pc, #16]	@ (80011cc <_Z8depth_01v.isra.0+0x54>)
 80011ba:	2200      	movs	r2, #0
 80011bc:	4904      	ldr	r1, [pc, #16]	@ (80011d0 <_Z8depth_01v.isra.0+0x58>)
 80011be:	6003      	str	r3, [r0, #0]
 80011c0:	f001 fdbc 	bl	8002d3c <__wrap___cxa_throw>
 80011c4:	2000019c 	.word	0x2000019c
 80011c8:	20000168 	.word	0x20000168
 80011cc:	efbeadde 	.word	0xefbeadde
 80011d0:	080073a0 	.word	0x080073a0

080011d4 <_Z8depth_02v.isra.0>:
 80011d4:	b510      	push	{r4, lr}
 80011d6:	4c0a      	ldr	r4, [pc, #40]	@ (8001200 <_Z8depth_02v.isra.0+0x2c>)
 80011d8:	b082      	sub	sp, #8
 80011da:	6822      	ldr	r2, [r4, #0]
 80011dc:	6823      	ldr	r3, [r4, #0]
 80011de:	3301      	adds	r3, #1
 80011e0:	6023      	str	r3, [r4, #0]
 80011e2:	6823      	ldr	r3, [r4, #0]
 80011e4:	eb03 2322 	add.w	r3, r3, r2, asr #8
 80011e8:	6023      	str	r3, [r4, #0]
 80011ea:	6823      	ldr	r3, [r4, #0]
 80011ec:	9301      	str	r3, [sp, #4]
 80011ee:	f7ff ffc3 	bl	8001178 <_Z8depth_01v.isra.0>
 80011f2:	9b01      	ldr	r3, [sp, #4]
 80011f4:	2b00      	cmp	r3, #0
 80011f6:	bfa8      	it	ge
 80011f8:	6823      	ldrge	r3, [r4, #0]
 80011fa:	b002      	add	sp, #8
 80011fc:	bd10      	pop	{r4, pc}
 80011fe:	bf00      	nop
 8001200:	2000019c 	.word	0x2000019c

08001204 <_Z8depth_03v.isra.0>:
 8001204:	b510      	push	{r4, lr}
 8001206:	4c0a      	ldr	r4, [pc, #40]	@ (8001230 <_Z8depth_03v.isra.0+0x2c>)
 8001208:	b082      	sub	sp, #8
 800120a:	6822      	ldr	r2, [r4, #0]
 800120c:	6823      	ldr	r3, [r4, #0]
 800120e:	3301      	adds	r3, #1
 8001210:	6023      	str	r3, [r4, #0]
 8001212:	6823      	ldr	r3, [r4, #0]
 8001214:	eb03 2322 	add.w	r3, r3, r2, asr #8
 8001218:	6023      	str	r3, [r4, #0]
 800121a:	6823      	ldr	r3, [r4, #0]
 800121c:	9301      	str	r3, [sp, #4]
 800121e:	f7ff ffd9 	bl	80011d4 <_Z8depth_02v.isra.0>
 8001222:	9b01      	ldr	r3, [sp, #4]
 8001224:	2b00      	cmp	r3, #0
 8001226:	bfa8      	it	ge
 8001228:	6823      	ldrge	r3, [r4, #0]
 800122a:	b002      	add	sp, #8
 800122c:	bd10      	pop	{r4, pc}
 800122e:	bf00      	nop
 8001230:	2000019c 	.word	0x2000019c

08001234 <_Z8depth_04v.isra.0>:
 8001234:	b510      	push	{r4, lr}
 8001236:	4c0a      	ldr	r4, [pc, #40]	@ (8001260 <_Z8depth_04v.isra.0+0x2c>)
 8001238:	b082      	sub	sp, #8
 800123a:	6822      	ldr	r2, [r4, #0]
 800123c:	6823      	ldr	r3, [r4, #0]
 800123e:	3301      	adds	r3, #1
 8001240:	6023      	str	r3, [r4, #0]
 8001242:	6823      	ldr	r3, [r4, #0]
 8001244:	eb03 2322 	add.w	r3, r3, r2, asr #8
 8001248:	6023      	str	r3, [r4, #0]
 800124a:	6823      	ldr	r3, [r4, #0]
 800124c:	9301      	str	r3, [sp, #4]
 800124e:	f7ff ffd9 	bl	8001204 <_Z8depth_03v.isra.0>
 8001252:	9b01      	ldr	r3, [sp, #4]
 8001254:	2b00      	cmp	r3, #0
 8001256:	bfa8      	it	ge
 8001258:	6823      	ldrge	r3, [r4, #0]
 800125a:	b002      	add	sp, #8
 800125c:	bd10      	pop	{r4, pc}
 800125e:	bf00      	nop
 8001260:	2000019c 	.word	0x2000019c

08001264 <_Z8depth_05v.isra.0>:
 8001264:	b510      	push	{r4, lr}
 8001266:	4c0a      	ldr	r4, [pc, #40]	@ (8001290 <_Z8depth_05v.isra.0+0x2c>)
 8001268:	b082      	sub	sp, #8
 800126a:	6822      	ldr	r2, [r4, #0]
 800126c:	6823      	ldr	r3, [r4, #0]
 800126e:	3301      	adds	r3, #1
 8001270:	6023      	str	r3, [r4, #0]
 8001272:	6823      	ldr	r3, [r4, #0]
 8001274:	eb03 2322 	add.w	r3, r3, r2, asr #8
 8001278:	6023      	str	r3, [r4, #0]
 800127a:	6823      	ldr	r3, [r4, #0]
 800127c:	9301      	str	r3, [sp, #4]
 800127e:	f7ff ffd9 	bl	8001234 <_Z8depth_04v.isra.0>
 8001282:	9b01      	ldr	r3, [sp, #4]
 8001284:	2b00      	cmp	r3, #0
 8001286:	bfa8      	it	ge
 8001288:	6823      	ldrge	r3, [r4, #0]
 800128a:	b002      	add	sp, #8
 800128c:	bd10      	pop	{r4, pc}
 800128e:	bf00      	nop
 8001290:	2000019c 	.word	0x2000019c

08001294 <_Z8depth_06v.isra.0>:
 8001294:	b510      	push	{r4, lr}
 8001296:	4c0a      	ldr	r4, [pc, #40]	@ (80012c0 <_Z8depth_06v.isra.0+0x2c>)
 8001298:	b082      	sub	sp, #8
 800129a:	6822      	ldr	r2, [r4, #0]
 800129c:	6823      	ldr	r3, [r4, #0]
 800129e:	3301      	adds	r3, #1
 80012a0:	6023      	str	r3, [r4, #0]
 80012a2:	6823      	ldr	r3, [r4, #0]
 80012a4:	eb03 2322 	add.w	r3, r3, r2, asr #8
 80012a8:	6023      	str	r3, [r4, #0]
 80012aa:	6823      	ldr	r3, [r4, #0]
 80012ac:	9301      	str	r3, [sp, #4]
 80012ae:	f7ff ffd9 	bl	8001264 <_Z8depth_05v.isra.0>
 80012b2:	9b01      	ldr	r3, [sp, #4]
 80012b4:	2b00      	cmp	r3, #0
 80012b6:	bfa8      	it	ge
 80012b8:	6823      	ldrge	r3, [r4, #0]
 80012ba:	b002      	add	sp, #8
 80012bc:	bd10      	pop	{r4, pc}
 80012be:	bf00      	nop
 80012c0:	2000019c 	.word	0x2000019c

080012c4 <_Z8depth_07v.isra.0>:
 80012c4:	b510      	push	{r4, lr}
 80012c6:	4c0a      	ldr	r4, [pc, #40]	@ (80012f0 <_Z8depth_07v.isra.0+0x2c>)
 80012c8:	b082      	sub	sp, #8
 80012ca:	6822      	ldr	r2, [r4, #0]
 80012cc:	6823      	ldr	r3, [r4, #0]
 80012ce:	3301      	adds	r3, #1
 80012d0:	6023      	str	r3, [r4, #0]
 80012d2:	6823      	ldr	r3, [r4, #0]
 80012d4:	eb03 2322 	add.w	r3, r3, r2, asr #8
 80012d8:	6023      	str	r3, [r4, #0]
 80012da:	6823      	ldr	r3, [r4, #0]
 80012dc:	9301      	str	r3, [sp, #4]
 80012de:	f7ff ffd9 	bl	8001294 <_Z8depth_06v.isra.0>
 80012e2:	9b01      	ldr	r3, [sp, #4]
 80012e4:	2b00      	cmp	r3, #0
 80012e6:	bfa8      	it	ge
 80012e8:	6823      	ldrge	r3, [r4, #0]
 80012ea:	b002      	add	sp, #8
 80012ec:	bd10      	pop	{r4, pc}
 80012ee:	bf00      	nop
 80012f0:	2000019c 	.word	0x2000019c

080012f4 <_Z8depth_08v.isra.0>:
 80012f4:	b510      	push	{r4, lr}
 80012f6:	4c0a      	ldr	r4, [pc, #40]	@ (8001320 <_Z8depth_08v.isra.0+0x2c>)
 80012f8:	b082      	sub	sp, #8
 80012fa:	6822      	ldr	r2, [r4, #0]
 80012fc:	6823      	ldr	r3, [r4, #0]
 80012fe:	3301      	adds	r3, #1
 8001300:	6023      	str	r3, [r4, #0]
 8001302:	6823      	ldr	r3, [r4, #0]
 8001304:	eb03 2322 	add.w	r3, r3, r2, asr #8
 8001308:	6023      	str	r3, [r4, #0]
 800130a:	6823      	ldr	r3, [r4, #0]
 800130c:	9301      	str	r3, [sp, #4]
 800130e:	f7ff ffd9 	bl	80012c4 <_Z8depth_07v.isra.0>
 8001312:	9b01      	ldr	r3, [sp, #4]
 8001314:	2b00      	cmp	r3, #0
 8001316:	bfa8      	it	ge
 8001318:	6823      	ldrge	r3, [r4, #0]
 800131a:	b002      	add	sp, #8
 800131c:	bd10      	pop	{r4, pc}
 800131e:	bf00      	nop
 8001320:	2000019c 	.word	0x2000019c

08001324 <_Z8depth_09v.isra.0>:
 8001324:	b510      	push	{r4, lr}
 8001326:	4c0a      	ldr	r4, [pc, #40]	@ (8001350 <_Z8depth_09v.isra.0+0x2c>)
 8001328:	b082      	sub	sp, #8
 800132a:	6822      	ldr	r2, [r4, #0]
 800132c:	6823      	ldr	r3, [r4, #0]
 800132e:	3301      	adds	r3, #1
 8001330:	6023      	str	r3, [r4, #0]
 8001332:	6823      	ldr	r3, [r4, #0]
 8001334:	eb03 2322 	add.w	r3, r3, r2, asr #8
 8001338:	6023      	str	r3, [r4, #0]
 800133a:	6823      	ldr	r3, [r4, #0]
 800133c:	9301      	str	r3, [sp, #4]
 800133e:	f7ff ffd9 	bl	80012f4 <_Z8depth_08v.isra.0>
 8001342:	9b01      	ldr	r3, [sp, #4]
 8001344:	2b00      	cmp	r3, #0
 8001346:	bfa8      	it	ge
 8001348:	6823      	ldrge	r3, [r4, #0]
 800134a:	b002      	add	sp, #8
 800134c:	bd10      	pop	{r4, pc}
 800134e:	bf00      	nop
 8001350:	2000019c 	.word	0x2000019c

08001354 <_Z8depth_10v.isra.0>:
 8001354:	b510      	push	{r4, lr}
 8001356:	4c0a      	ldr	r4, [pc, #40]	@ (8001380 <_Z8depth_10v.isra.0+0x2c>)
 8001358:	b082      	sub	sp, #8
 800135a:	6822      	ldr	r2, [r4, #0]
 800135c:	6823      	ldr	r3, [r4, #0]
 800135e:	3301      	adds	r3, #1
 8001360:	6023      	str	r3, [r4, #0]
 8001362:	6823      	ldr	r3, [r4, #0]
 8001364:	eb03 2322 	add.w	r3, r3, r2, asr #8
 8001368:	6023      	str	r3, [r4, #0]
 800136a:	6823      	ldr	r3, [r4, #0]
 800136c:	9301      	str	r3, [sp, #4]
 800136e:	f7ff ffd9 	bl	8001324 <_Z8depth_09v.isra.0>
 8001372:	9b01      	ldr	r3, [sp, #4]
 8001374:	2b00      	cmp	r3, #0
 8001376:	bfa8      	it	ge
 8001378:	6823      	ldrge	r3, [r4, #0]
 800137a:	b002      	add	sp, #8
 800137c:	bd10      	pop	{r4, pc}
 800137e:	bf00      	nop
 8001380:	2000019c 	.word	0x2000019c

08001384 <_Z8depth_11v.isra.0>:
 8001384:	b510      	push	{r4, lr}
 8001386:	4c0a      	ldr	r4, [pc, #40]	@ (80013b0 <_Z8depth_11v.isra.0+0x2c>)
 8001388:	b082      	sub	sp, #8
 800138a:	6822      	ldr	r2, [r4, #0]
 800138c:	6823      	ldr	r3, [r4, #0]
 800138e:	3301      	adds	r3, #1
 8001390:	6023      	str	r3, [r4, #0]
 8001392:	6823      	ldr	r3, [r4, #0]
 8001394:	eb03 2322 	add.w	r3, r3, r2, asr #8
 8001398:	6023      	str	r3, [r4, #0]
 800139a:	6823      	ldr	r3, [r4, #0]
 800139c:	9301      	str	r3, [sp, #4]
 800139e:	f7ff ffd9 	bl	8001354 <_Z8depth_10v.isra.0>
 80013a2:	9b01      	ldr	r3, [sp, #4]
 80013a4:	2b00      	cmp	r3, #0
 80013a6:	bfa8      	it	ge
 80013a8:	6823      	ldrge	r3, [r4, #0]
 80013aa:	b002      	add	sp, #8
 80013ac:	bd10      	pop	{r4, pc}
 80013ae:	bf00      	nop
 80013b0:	2000019c 	.word	0x2000019c

080013b4 <_Z8depth_12v.isra.0>:
 80013b4:	b510      	push	{r4, lr}
 80013b6:	4c0a      	ldr	r4, [pc, #40]	@ (80013e0 <_Z8depth_12v.isra.0+0x2c>)
 80013b8:	b082      	sub	sp, #8
 80013ba:	6822      	ldr	r2, [r4, #0]
 80013bc:	6823      	ldr	r3, [r4, #0]
 80013be:	3301      	adds	r3, #1
 80013c0:	6023      	str	r3, [r4, #0]
 80013c2:	6823      	ldr	r3, [r4, #0]
 80013c4:	eb03 2322 	add.w	r3, r3, r2, asr #8
 80013c8:	6023      	str	r3, [r4, #0]
 80013ca:	6823      	ldr	r3, [r4, #0]
 80013cc:	9301      	str	r3, [sp, #4]
 80013ce:	f7ff ffd9 	bl	8001384 <_Z8depth_11v.isra.0>
 80013d2:	9b01      	ldr	r3, [sp, #4]
 80013d4:	2b00      	cmp	r3, #0
 80013d6:	bfa8      	it	ge
 80013d8:	6823      	ldrge	r3, [r4, #0]
 80013da:	b002      	add	sp, #8
 80013dc:	bd10      	pop	{r4, pc}
 80013de:	bf00      	nop
 80013e0:	2000019c 	.word	0x2000019c

080013e4 <_Z8depth_13v.isra.0>:
 80013e4:	b510      	push	{r4, lr}
 80013e6:	4c0a      	ldr	r4, [pc, #40]	@ (8001410 <_Z8depth_13v.isra.0+0x2c>)
 80013e8:	b082      	sub	sp, #8
 80013ea:	6822      	ldr	r2, [r4, #0]
 80013ec:	6823      	ldr	r3, [r4, #0]
 80013ee:	3301      	adds	r3, #1
 80013f0:	6023      	str	r3, [r4, #0]
 80013f2:	6823      	ldr	r3, [r4, #0]
 80013f4:	eb03 2322 	add.w	r3, r3, r2, asr #8
 80013f8:	6023      	str	r3, [r4, #0]
 80013fa:	6823      	ldr	r3, [r4, #0]
 80013fc:	9301      	str	r3, [sp, #4]
 80013fe:	f7ff ffd9 	bl	80013b4 <_Z8depth_12v.isra.0>
 8001402:	9b01      	ldr	r3, [sp, #4]
 8001404:	2b00      	cmp	r3, #0
 8001406:	bfa8      	it	ge
 8001408:	6823      	ldrge	r3, [r4, #0]
 800140a:	b002      	add	sp, #8
 800140c:	bd10      	pop	{r4, pc}
 800140e:	bf00      	nop
 8001410:	2000019c 	.word	0x2000019c

08001414 <_Z8depth_14v.isra.0>:
 8001414:	b510      	push	{r4, lr}
 8001416:	4c0a      	ldr	r4, [pc, #40]	@ (8001440 <_Z8depth_14v.isra.0+0x2c>)
 8001418:	b082      	sub	sp, #8
 800141a:	6822      	ldr	r2, [r4, #0]
 800141c:	6823      	ldr	r3, [r4, #0]
 800141e:	3301      	adds	r3, #1
 8001420:	6023      	str	r3, [r4, #0]
 8001422:	6823      	ldr	r3, [r4, #0]
 8001424:	eb03 2322 	add.w	r3, r3, r2, asr #8
 8001428:	6023      	str	r3, [r4, #0]
 800142a:	6823      	ldr	r3, [r4, #0]
 800142c:	9301      	str	r3, [sp, #4]
 800142e:	f7ff ffd9 	bl	80013e4 <_Z8depth_13v.isra.0>
 8001432:	9b01      	ldr	r3, [sp, #4]
 8001434:	2b00      	cmp	r3, #0
 8001436:	bfa8      	it	ge
 8001438:	6823      	ldrge	r3, [r4, #0]
 800143a:	b002      	add	sp, #8
 800143c:	bd10      	pop	{r4, pc}
 800143e:	bf00      	nop
 8001440:	2000019c 	.word	0x2000019c

08001444 <_Z8depth_15v.isra.0>:
 8001444:	b510      	push	{r4, lr}
 8001446:	4c0a      	ldr	r4, [pc, #40]	@ (8001470 <_Z8depth_15v.isra.0+0x2c>)
 8001448:	b082      	sub	sp, #8
 800144a:	6822      	ldr	r2, [r4, #0]
 800144c:	6823      	ldr	r3, [r4, #0]
 800144e:	3301      	adds	r3, #1
 8001450:	6023      	str	r3, [r4, #0]
 8001452:	6823      	ldr	r3, [r4, #0]
 8001454:	eb03 2322 	add.w	r3, r3, r2, asr #8
 8001458:	6023      	str	r3, [r4, #0]
 800145a:	6823      	ldr	r3, [r4, #0]
 800145c:	9301      	str	r3, [sp, #4]
 800145e:	f7ff ffd9 	bl	8001414 <_Z8depth_14v.isra.0>
 8001462:	9b01      	ldr	r3, [sp, #4]
 8001464:	2b00      	cmp	r3, #0
 8001466:	bfa8      	it	ge
 8001468:	6823      	ldrge	r3, [r4, #0]
 800146a:	b002      	add	sp, #8
 800146c:	bd10      	pop	{r4, pc}
 800146e:	bf00      	nop
 8001470:	2000019c 	.word	0x2000019c

08001474 <_Z8depth_16v.isra.0>:
 8001474:	b510      	push	{r4, lr}
 8001476:	4c0a      	ldr	r4, [pc, #40]	@ (80014a0 <_Z8depth_16v.isra.0+0x2c>)
 8001478:	b082      	sub	sp, #8
 800147a:	6822      	ldr	r2, [r4, #0]
 800147c:	6823      	ldr	r3, [r4, #0]
 800147e:	3301      	adds	r3, #1
 8001480:	6023      	str	r3, [r4, #0]
 8001482:	6823      	ldr	r3, [r4, #0]
 8001484:	eb03 2322 	add.w	r3, r3, r2, asr #8
 8001488:	6023      	str	r3, [r4, #0]
 800148a:	6823      	ldr	r3, [r4, #0]
 800148c:	9301      	str	r3, [sp, #4]
 800148e:	f7ff ffd9 	bl	8001444 <_Z8depth_15v.isra.0>
 8001492:	9b01      	ldr	r3, [sp, #4]
 8001494:	2b00      	cmp	r3, #0
 8001496:	bfa8      	it	ge
 8001498:	6823      	ldrge	r3, [r4, #0]
 800149a:	b002      	add	sp, #8
 800149c:	bd10      	pop	{r4, pc}
 800149e:	bf00      	nop
 80014a0:	2000019c 	.word	0x2000019c

080014a4 <_Z8depth_17v.isra.0>:
 80014a4:	b510      	push	{r4, lr}
 80014a6:	4c0a      	ldr	r4, [pc, #40]	@ (80014d0 <_Z8depth_17v.isra.0+0x2c>)
 80014a8:	b082      	sub	sp, #8
 80014aa:	6822      	ldr	r2, [r4, #0]
 80014ac:	6823      	ldr	r3, [r4, #0]
 80014ae:	3301      	adds	r3, #1
 80014b0:	6023      	str	r3, [r4, #0]
 80014b2:	6823      	ldr	r3, [r4, #0]
 80014b4:	eb03 2322 	add.w	r3, r3, r2, asr #8
 80014b8:	6023      	str	r3, [r4, #0]
 80014ba:	6823      	ldr	r3, [r4, #0]
 80014bc:	9301      	str	r3, [sp, #4]
 80014be:	f7ff ffd9 	bl	8001474 <_Z8depth_16v.isra.0>
 80014c2:	9b01      	ldr	r3, [sp, #4]
 80014c4:	2b00      	cmp	r3, #0
 80014c6:	bfa8      	it	ge
 80014c8:	6823      	ldrge	r3, [r4, #0]
 80014ca:	b002      	add	sp, #8
 80014cc:	bd10      	pop	{r4, pc}
 80014ce:	bf00      	nop
 80014d0:	2000019c 	.word	0x2000019c

080014d4 <_Z8depth_18v.isra.0>:
 80014d4:	b510      	push	{r4, lr}
 80014d6:	4c0a      	ldr	r4, [pc, #40]	@ (8001500 <_Z8depth_18v.isra.0+0x2c>)
 80014d8:	b082      	sub	sp, #8
 80014da:	6822      	ldr	r2, [r4, #0]
 80014dc:	6823      	ldr	r3, [r4, #0]
 80014de:	3301      	adds	r3, #1
 80014e0:	6023      	str	r3, [r4, #0]
 80014e2:	6823      	ldr	r3, [r4, #0]
 80014e4:	eb03 2322 	add.w	r3, r3, r2, asr #8
 80014e8:	6023      	str	r3, [r4, #0]
 80014ea:	6823      	ldr	r3, [r4, #0]
 80014ec:	9301      	str	r3, [sp, #4]
 80014ee:	f7ff ffd9 	bl	80014a4 <_Z8depth_17v.isra.0>
 80014f2:	9b01      	ldr	r3, [sp, #4]
 80014f4:	2b00      	cmp	r3, #0
 80014f6:	bfa8      	it	ge
 80014f8:	6823      	ldrge	r3, [r4, #0]
 80014fa:	b002      	add	sp, #8
 80014fc:	bd10      	pop	{r4, pc}
 80014fe:	bf00      	nop
 8001500:	2000019c 	.word	0x2000019c

08001504 <_Z8depth_19v.isra.0>:
 8001504:	b510      	push	{r4, lr}
 8001506:	4c0a      	ldr	r4, [pc, #40]	@ (8001530 <_Z8depth_19v.isra.0+0x2c>)
 8001508:	b082      	sub	sp, #8
 800150a:	6822      	ldr	r2, [r4, #0]
 800150c:	6823      	ldr	r3, [r4, #0]
 800150e:	3301      	adds	r3, #1
 8001510:	6023      	str	r3, [r4, #0]
 8001512:	6823      	ldr	r3, [r4, #0]
 8001514:	eb03 2322 	add.w	r3, r3, r2, asr #8
 8001518:	6023      	str	r3, [r4, #0]
 800151a:	6823      	ldr	r3, [r4, #0]
 800151c:	9301      	str	r3, [sp, #4]
 800151e:	f7ff ffd9 	bl	80014d4 <_Z8depth_18v.isra.0>
 8001522:	9b01      	ldr	r3, [sp, #4]
 8001524:	2b00      	cmp	r3, #0
 8001526:	bfa8      	it	ge
 8001528:	6823      	ldrge	r3, [r4, #0]
 800152a:	b002      	add	sp, #8
 800152c:	bd10      	pop	{r4, pc}
 800152e:	bf00      	nop
 8001530:	2000019c 	.word	0x2000019c

08001534 <_Z8depth_20v.isra.0>:
 8001534:	b510      	push	{r4, lr}
 8001536:	4c0a      	ldr	r4, [pc, #40]	@ (8001560 <_Z8depth_20v.isra.0+0x2c>)
 8001538:	b082      	sub	sp, #8
 800153a:	6822      	ldr	r2, [r4, #0]
 800153c:	6823      	ldr	r3, [r4, #0]
 800153e:	3301      	adds	r3, #1
 8001540:	6023      	str	r3, [r4, #0]
 8001542:	6823      	ldr	r3, [r4, #0]
 8001544:	eb03 2322 	add.w	r3, r3, r2, asr #8
 8001548:	6023      	str	r3, [r4, #0]
 800154a:	6823      	ldr	r3, [r4, #0]
 800154c:	9301      	str	r3, [sp, #4]
 800154e:	f7ff ffd9 	bl	8001504 <_Z8depth_19v.isra.0>
 8001552:	9b01      	ldr	r3, [sp, #4]
 8001554:	2b00      	cmp	r3, #0
 8001556:	bfa8      	it	ge
 8001558:	6823      	ldrge	r3, [r4, #0]
 800155a:	b002      	add	sp, #8
 800155c:	bd10      	pop	{r4, pc}
 800155e:	bf00      	nop
 8001560:	2000019c 	.word	0x2000019c

08001564 <_Z8depth_21v.isra.0>:
 8001564:	b510      	push	{r4, lr}
 8001566:	4c0a      	ldr	r4, [pc, #40]	@ (8001590 <_Z8depth_21v.isra.0+0x2c>)
 8001568:	b082      	sub	sp, #8
 800156a:	6822      	ldr	r2, [r4, #0]
 800156c:	6823      	ldr	r3, [r4, #0]
 800156e:	3301      	adds	r3, #1
 8001570:	6023      	str	r3, [r4, #0]
 8001572:	6823      	ldr	r3, [r4, #0]
 8001574:	eb03 2322 	add.w	r3, r3, r2, asr #8
 8001578:	6023      	str	r3, [r4, #0]
 800157a:	6823      	ldr	r3, [r4, #0]
 800157c:	9301      	str	r3, [sp, #4]
 800157e:	f7ff ffd9 	bl	8001534 <_Z8depth_20v.isra.0>
 8001582:	9b01      	ldr	r3, [sp, #4]
 8001584:	2b00      	cmp	r3, #0
 8001586:	bfa8      	it	ge
 8001588:	6823      	ldrge	r3, [r4, #0]
 800158a:	b002      	add	sp, #8
 800158c:	bd10      	pop	{r4, pc}
 800158e:	bf00      	nop
 8001590:	2000019c 	.word	0x2000019c

08001594 <_Z8depth_22v.isra.0>:
 8001594:	b510      	push	{r4, lr}
 8001596:	4c0a      	ldr	r4, [pc, #40]	@ (80015c0 <_Z8depth_22v.isra.0+0x2c>)
 8001598:	b082      	sub	sp, #8
 800159a:	6822      	ldr	r2, [r4, #0]
 800159c:	6823      	ldr	r3, [r4, #0]
 800159e:	3301      	adds	r3, #1
 80015a0:	6023      	str	r3, [r4, #0]
 80015a2:	6823      	ldr	r3, [r4, #0]
 80015a4:	eb03 2322 	add.w	r3, r3, r2, asr #8
 80015a8:	6023      	str	r3, [r4, #0]
 80015aa:	6823      	ldr	r3, [r4, #0]
 80015ac:	9301      	str	r3, [sp, #4]
 80015ae:	f7ff ffd9 	bl	8001564 <_Z8depth_21v.isra.0>
 80015b2:	9b01      	ldr	r3, [sp, #4]
 80015b4:	2b00      	cmp	r3, #0
 80015b6:	bfa8      	it	ge
 80015b8:	6823      	ldrge	r3, [r4, #0]
 80015ba:	b002      	add	sp, #8
 80015bc:	bd10      	pop	{r4, pc}
 80015be:	bf00      	nop
 80015c0:	2000019c 	.word	0x2000019c

080015c4 <_Z8depth_23v.isra.0>:
 80015c4:	b510      	push	{r4, lr}
 80015c6:	4c0a      	ldr	r4, [pc, #40]	@ (80015f0 <_Z8depth_23v.isra.0+0x2c>)
 80015c8:	b082      	sub	sp, #8
 80015ca:	6822      	ldr	r2, [r4, #0]
 80015cc:	6823      	ldr	r3, [r4, #0]
 80015ce:	3301      	adds	r3, #1
 80015d0:	6023      	str	r3, [r4, #0]
 80015d2:	6823      	ldr	r3, [r4, #0]
 80015d4:	eb03 2322 	add.w	r3, r3, r2, asr #8
 80015d8:	6023      	str	r3, [r4, #0]
 80015da:	6823      	ldr	r3, [r4, #0]
 80015dc:	9301      	str	r3, [sp, #4]
 80015de:	f7ff ffd9 	bl	8001594 <_Z8depth_22v.isra.0>
 80015e2:	9b01      	ldr	r3, [sp, #4]
 80015e4:	2b00      	cmp	r3, #0
 80015e6:	bfa8      	it	ge
 80015e8:	6823      	ldrge	r3, [r4, #0]
 80015ea:	b002      	add	sp, #8
 80015ec:	bd10      	pop	{r4, pc}
 80015ee:	bf00      	nop
 80015f0:	2000019c 	.word	0x2000019c

080015f4 <_Z8depth_24v.isra.0>:
 80015f4:	b510      	push	{r4, lr}
 80015f6:	4c0a      	ldr	r4, [pc, #40]	@ (8001620 <_Z8depth_24v.isra.0+0x2c>)
 80015f8:	b082      	sub	sp, #8
 80015fa:	6822      	ldr	r2, [r4, #0]
 80015fc:	6823      	ldr	r3, [r4, #0]
 80015fe:	3301      	adds	r3, #1
 8001600:	6023      	str	r3, [r4, #0]
 8001602:	6823      	ldr	r3, [r4, #0]
 8001604:	eb03 2322 	add.w	r3, r3, r2, asr #8
 8001608:	6023      	str	r3, [r4, #0]
 800160a:	6823      	ldr	r3, [r4, #0]
 800160c:	9301      	str	r3, [sp, #4]
 800160e:	f7ff ffd9 	bl	80015c4 <_Z8depth_23v.isra.0>
 8001612:	9b01      	ldr	r3, [sp, #4]
 8001614:	2b00      	cmp	r3, #0
 8001616:	bfa8      	it	ge
 8001618:	6823      	ldrge	r3, [r4, #0]
 800161a:	b002      	add	sp, #8
 800161c:	bd10      	pop	{r4, pc}
 800161e:	bf00      	nop
 8001620:	2000019c 	.word	0x2000019c

08001624 <_Z8depth_25v.isra.0>:
 8001624:	b510      	push	{r4, lr}
 8001626:	4c0a      	ldr	r4, [pc, #40]	@ (8001650 <_Z8depth_25v.isra.0+0x2c>)
 8001628:	b082      	sub	sp, #8
 800162a:	6822      	ldr	r2, [r4, #0]
 800162c:	6823      	ldr	r3, [r4, #0]
 800162e:	3301      	adds	r3, #1
 8001630:	6023      	str	r3, [r4, #0]
 8001632:	6823      	ldr	r3, [r4, #0]
 8001634:	eb03 2322 	add.w	r3, r3, r2, asr #8
 8001638:	6023      	str	r3, [r4, #0]
 800163a:	6823      	ldr	r3, [r4, #0]
 800163c:	9301      	str	r3, [sp, #4]
 800163e:	f7ff ffd9 	bl	80015f4 <_Z8depth_24v.isra.0>
 8001642:	9b01      	ldr	r3, [sp, #4]
 8001644:	2b00      	cmp	r3, #0
 8001646:	bfa8      	it	ge
 8001648:	6823      	ldrge	r3, [r4, #0]
 800164a:	b002      	add	sp, #8
 800164c:	bd10      	pop	{r4, pc}
 800164e:	bf00      	nop
 8001650:	2000019c 	.word	0x2000019c

08001654 <_Z8depth_26v.isra.0>:
 8001654:	b510      	push	{r4, lr}
 8001656:	4c0a      	ldr	r4, [pc, #40]	@ (8001680 <_Z8depth_26v.isra.0+0x2c>)
 8001658:	b082      	sub	sp, #8
 800165a:	6822      	ldr	r2, [r4, #0]
 800165c:	6823      	ldr	r3, [r4, #0]
 800165e:	3301      	adds	r3, #1
 8001660:	6023      	str	r3, [r4, #0]
 8001662:	6823      	ldr	r3, [r4, #0]
 8001664:	eb03 2322 	add.w	r3, r3, r2, asr #8
 8001668:	6023      	str	r3, [r4, #0]
 800166a:	6823      	ldr	r3, [r4, #0]
 800166c:	9301      	str	r3, [sp, #4]
 800166e:	f7ff ffd9 	bl	8001624 <_Z8depth_25v.isra.0>
 8001672:	9b01      	ldr	r3, [sp, #4]
 8001674:	2b00      	cmp	r3, #0
 8001676:	bfa8      	it	ge
 8001678:	6823      	ldrge	r3, [r4, #0]
 800167a:	b002      	add	sp, #8
 800167c:	bd10      	pop	{r4, pc}
 800167e:	bf00      	nop
 8001680:	2000019c 	.word	0x2000019c

08001684 <_Z8depth_27v.isra.0>:
 8001684:	b510      	push	{r4, lr}
 8001686:	4c0a      	ldr	r4, [pc, #40]	@ (80016b0 <_Z8depth_27v.isra.0+0x2c>)
 8001688:	b082      	sub	sp, #8
 800168a:	6822      	ldr	r2, [r4, #0]
 800168c:	6823      	ldr	r3, [r4, #0]
 800168e:	3301      	adds	r3, #1
 8001690:	6023      	str	r3, [r4, #0]
 8001692:	6823      	ldr	r3, [r4, #0]
 8001694:	eb03 2322 	add.w	r3, r3, r2, asr #8
 8001698:	6023      	str	r3, [r4, #0]
 800169a:	6823      	ldr	r3, [r4, #0]
 800169c:	9301      	str	r3, [sp, #4]
 800169e:	f7ff ffd9 	bl	8001654 <_Z8depth_26v.isra.0>
 80016a2:	9b01      	ldr	r3, [sp, #4]
 80016a4:	2b00      	cmp	r3, #0
 80016a6:	bfa8      	it	ge
 80016a8:	6823      	ldrge	r3, [r4, #0]
 80016aa:	b002      	add	sp, #8
 80016ac:	bd10      	pop	{r4, pc}
 80016ae:	bf00      	nop
 80016b0:	2000019c 	.word	0x2000019c

080016b4 <_Z8depth_28v.isra.0>:
 80016b4:	b510      	push	{r4, lr}
 80016b6:	4c0a      	ldr	r4, [pc, #40]	@ (80016e0 <_Z8depth_28v.isra.0+0x2c>)
 80016b8:	b082      	sub	sp, #8
 80016ba:	6822      	ldr	r2, [r4, #0]
 80016bc:	6823      	ldr	r3, [r4, #0]
 80016be:	3301      	adds	r3, #1
 80016c0:	6023      	str	r3, [r4, #0]
 80016c2:	6823      	ldr	r3, [r4, #0]
 80016c4:	eb03 2322 	add.w	r3, r3, r2, asr #8
 80016c8:	6023      	str	r3, [r4, #0]
 80016ca:	6823      	ldr	r3, [r4, #0]
 80016cc:	9301      	str	r3, [sp, #4]
 80016ce:	f7ff ffd9 	bl	8001684 <_Z8depth_27v.isra.0>
 80016d2:	9b01      	ldr	r3, [sp, #4]
 80016d4:	2b00      	cmp	r3, #0
 80016d6:	bfa8      	it	ge
 80016d8:	6823      	ldrge	r3, [r4, #0]
 80016da:	b002      	add	sp, #8
 80016dc:	bd10      	pop	{r4, pc}
 80016de:	bf00      	nop
 80016e0:	2000019c 	.word	0x2000019c

080016e4 <_Z8depth_29v.isra.0>:
 80016e4:	b510      	push	{r4, lr}
 80016e6:	4c0a      	ldr	r4, [pc, #40]	@ (8001710 <_Z8depth_29v.isra.0+0x2c>)
 80016e8:	b082      	sub	sp, #8
 80016ea:	6822      	ldr	r2, [r4, #0]
 80016ec:	6823      	ldr	r3, [r4, #0]
 80016ee:	3301      	adds	r3, #1
 80016f0:	6023      	str	r3, [r4, #0]
 80016f2:	6823      	ldr	r3, [r4, #0]
 80016f4:	eb03 2322 	add.w	r3, r3, r2, asr #8
 80016f8:	6023      	str	r3, [r4, #0]
 80016fa:	6823      	ldr	r3, [r4, #0]
 80016fc:	9301      	str	r3, [sp, #4]
 80016fe:	f7ff ffd9 	bl	80016b4 <_Z8depth_28v.isra.0>
 8001702:	9b01      	ldr	r3, [sp, #4]
 8001704:	2b00      	cmp	r3, #0
 8001706:	bfa8      	it	ge
 8001708:	6823      	ldrge	r3, [r4, #0]
 800170a:	b002      	add	sp, #8
 800170c:	bd10      	pop	{r4, pc}
 800170e:	bf00      	nop
 8001710:	2000019c 	.word	0x2000019c

08001714 <_Z8depth_30v.isra.0>:
 8001714:	b510      	push	{r4, lr}
 8001716:	4c0a      	ldr	r4, [pc, #40]	@ (8001740 <_Z8depth_30v.isra.0+0x2c>)
 8001718:	b082      	sub	sp, #8
 800171a:	6822      	ldr	r2, [r4, #0]
 800171c:	6823      	ldr	r3, [r4, #0]
 800171e:	3301      	adds	r3, #1
 8001720:	6023      	str	r3, [r4, #0]
 8001722:	6823      	ldr	r3, [r4, #0]
 8001724:	eb03 2322 	add.w	r3, r3, r2, asr #8
 8001728:	6023      	str	r3, [r4, #0]
 800172a:	6823      	ldr	r3, [r4, #0]
 800172c:	9301      	str	r3, [sp, #4]
 800172e:	f7ff ffd9 	bl	80016e4 <_Z8depth_29v.isra.0>
 8001732:	9b01      	ldr	r3, [sp, #4]
 8001734:	2b00      	cmp	r3, #0
 8001736:	bfa8      	it	ge
 8001738:	6823      	ldrge	r3, [r4, #0]
 800173a:	b002      	add	sp, #8
 800173c:	bd10      	pop	{r4, pc}
 800173e:	bf00      	nop
 8001740:	2000019c 	.word	0x2000019c

08001744 <_Z8depth_31v.isra.0>:
 8001744:	b510      	push	{r4, lr}
 8001746:	4c0a      	ldr	r4, [pc, #40]	@ (8001770 <_Z8depth_31v.isra.0+0x2c>)
 8001748:	b082      	sub	sp, #8
 800174a:	6822      	ldr	r2, [r4, #0]
 800174c:	6823      	ldr	r3, [r4, #0]
 800174e:	3301      	adds	r3, #1
 8001750:	6023      	str	r3, [r4, #0]
 8001752:	6823      	ldr	r3, [r4, #0]
 8001754:	eb03 2322 	add.w	r3, r3, r2, asr #8
 8001758:	6023      	str	r3, [r4, #0]
 800175a:	6823      	ldr	r3, [r4, #0]
 800175c:	9301      	str	r3, [sp, #4]
 800175e:	f7ff ffd9 	bl	8001714 <_Z8depth_30v.isra.0>
 8001762:	9b01      	ldr	r3, [sp, #4]
 8001764:	2b00      	cmp	r3, #0
 8001766:	bfa8      	it	ge
 8001768:	6823      	ldrge	r3, [r4, #0]
 800176a:	b002      	add	sp, #8
 800176c:	bd10      	pop	{r4, pc}
 800176e:	bf00      	nop
 8001770:	2000019c 	.word	0x2000019c

08001774 <_Z8depth_32v.isra.0>:
 8001774:	b510      	push	{r4, lr}
 8001776:	4c0a      	ldr	r4, [pc, #40]	@ (80017a0 <_Z8depth_32v.isra.0+0x2c>)
 8001778:	b082      	sub	sp, #8
 800177a:	6822      	ldr	r2, [r4, #0]
 800177c:	6823      	ldr	r3, [r4, #0]
 800177e:	3301      	adds	r3, #1
 8001780:	6023      	str	r3, [r4, #0]
 8001782:	6823      	ldr	r3, [r4, #0]
 8001784:	eb03 2322 	add.w	r3, r3, r2, asr #8
 8001788:	6023      	str	r3, [r4, #0]
 800178a:	6823      	ldr	r3, [r4, #0]
 800178c:	9301      	str	r3, [sp, #4]
 800178e:	f7ff ffd9 	bl	8001744 <_Z8depth_31v.isra.0>
 8001792:	9b01      	ldr	r3, [sp, #4]
 8001794:	2b00      	cmp	r3, #0
 8001796:	bfa8      	it	ge
 8001798:	6823      	ldrge	r3, [r4, #0]
 800179a:	b002      	add	sp, #8
 800179c:	bd10      	pop	{r4, pc}
 800179e:	bf00      	nop
 80017a0:	2000019c 	.word	0x2000019c

080017a4 <_Z8depth_33v.isra.0>:
 80017a4:	b510      	push	{r4, lr}
 80017a6:	4c0a      	ldr	r4, [pc, #40]	@ (80017d0 <_Z8depth_33v.isra.0+0x2c>)
 80017a8:	b082      	sub	sp, #8
 80017aa:	6822      	ldr	r2, [r4, #0]
 80017ac:	6823      	ldr	r3, [r4, #0]
 80017ae:	3301      	adds	r3, #1
 80017b0:	6023      	str	r3, [r4, #0]
 80017b2:	6823      	ldr	r3, [r4, #0]
 80017b4:	eb03 2322 	add.w	r3, r3, r2, asr #8
 80017b8:	6023      	str	r3, [r4, #0]
 80017ba:	6823      	ldr	r3, [r4, #0]
 80017bc:	9301      	str	r3, [sp, #4]
 80017be:	f7ff ffd9 	bl	8001774 <_Z8depth_32v.isra.0>
 80017c2:	9b01      	ldr	r3, [sp, #4]
 80017c4:	2b00      	cmp	r3, #0
 80017c6:	bfa8      	it	ge
 80017c8:	6823      	ldrge	r3, [r4, #0]
 80017ca:	b002      	add	sp, #8
 80017cc:	bd10      	pop	{r4, pc}
 80017ce:	bf00      	nop
 80017d0:	2000019c 	.word	0x2000019c

080017d4 <_Z8depth_34v.isra.0>:
 80017d4:	b510      	push	{r4, lr}
 80017d6:	4c0a      	ldr	r4, [pc, #40]	@ (8001800 <_Z8depth_34v.isra.0+0x2c>)
 80017d8:	b082      	sub	sp, #8
 80017da:	6822      	ldr	r2, [r4, #0]
 80017dc:	6823      	ldr	r3, [r4, #0]
 80017de:	3301      	adds	r3, #1
 80017e0:	6023      	str	r3, [r4, #0]
 80017e2:	6823      	ldr	r3, [r4, #0]
 80017e4:	eb03 2322 	add.w	r3, r3, r2, asr #8
 80017e8:	6023      	str	r3, [r4, #0]
 80017ea:	6823      	ldr	r3, [r4, #0]
 80017ec:	9301      	str	r3, [sp, #4]
 80017ee:	f7ff ffd9 	bl	80017a4 <_Z8depth_33v.isra.0>
 80017f2:	9b01      	ldr	r3, [sp, #4]
 80017f4:	2b00      	cmp	r3, #0
 80017f6:	bfa8      	it	ge
 80017f8:	6823      	ldrge	r3, [r4, #0]
 80017fa:	b002      	add	sp, #8
 80017fc:	bd10      	pop	{r4, pc}
 80017fe:	bf00      	nop
 8001800:	2000019c 	.word	0x2000019c

08001804 <_Z8depth_35v.isra.0>:
 8001804:	b510      	push	{r4, lr}
 8001806:	4c0a      	ldr	r4, [pc, #40]	@ (8001830 <_Z8depth_35v.isra.0+0x2c>)
 8001808:	b082      	sub	sp, #8
 800180a:	6822      	ldr	r2, [r4, #0]
 800180c:	6823      	ldr	r3, [r4, #0]
 800180e:	3301      	adds	r3, #1
 8001810:	6023      	str	r3, [r4, #0]
 8001812:	6823      	ldr	r3, [r4, #0]
 8001814:	eb03 2322 	add.w	r3, r3, r2, asr #8
 8001818:	6023      	str	r3, [r4, #0]
 800181a:	6823      	ldr	r3, [r4, #0]
 800181c:	9301      	str	r3, [sp, #4]
 800181e:	f7ff ffd9 	bl	80017d4 <_Z8depth_34v.isra.0>
 8001822:	9b01      	ldr	r3, [sp, #4]
 8001824:	2b00      	cmp	r3, #0
 8001826:	bfa8      	it	ge
 8001828:	6823      	ldrge	r3, [r4, #0]
 800182a:	b002      	add	sp, #8
 800182c:	bd10      	pop	{r4, pc}
 800182e:	bf00      	nop
 8001830:	2000019c 	.word	0x2000019c

08001834 <_Z8depth_36v.isra.0>:
 8001834:	b510      	push	{r4, lr}
 8001836:	4c0a      	ldr	r4, [pc, #40]	@ (8001860 <_Z8depth_36v.isra.0+0x2c>)
 8001838:	b082      	sub	sp, #8
 800183a:	6822      	ldr	r2, [r4, #0]
 800183c:	6823      	ldr	r3, [r4, #0]
 800183e:	3301      	adds	r3, #1
 8001840:	6023      	str	r3, [r4, #0]
 8001842:	6823      	ldr	r3, [r4, #0]
 8001844:	eb03 2322 	add.w	r3, r3, r2, asr #8
 8001848:	6023      	str	r3, [r4, #0]
 800184a:	6823      	ldr	r3, [r4, #0]
 800184c:	9301      	str	r3, [sp, #4]
 800184e:	f7ff ffd9 	bl	8001804 <_Z8depth_35v.isra.0>
 8001852:	9b01      	ldr	r3, [sp, #4]
 8001854:	2b00      	cmp	r3, #0
 8001856:	bfa8      	it	ge
 8001858:	6823      	ldrge	r3, [r4, #0]
 800185a:	b002      	add	sp, #8
 800185c:	bd10      	pop	{r4, pc}
 800185e:	bf00      	nop
 8001860:	2000019c 	.word	0x2000019c

08001864 <_Z8depth_37v.isra.0>:
 8001864:	b510      	push	{r4, lr}
 8001866:	4c0a      	ldr	r4, [pc, #40]	@ (8001890 <_Z8depth_37v.isra.0+0x2c>)
 8001868:	b082      	sub	sp, #8
 800186a:	6822      	ldr	r2, [r4, #0]
 800186c:	6823      	ldr	r3, [r4, #0]
 800186e:	3301      	adds	r3, #1
 8001870:	6023      	str	r3, [r4, #0]
 8001872:	6823      	ldr	r3, [r4, #0]
 8001874:	eb03 2322 	add.w	r3, r3, r2, asr #8
 8001878:	6023      	str	r3, [r4, #0]
 800187a:	6823      	ldr	r3, [r4, #0]
 800187c:	9301      	str	r3, [sp, #4]
 800187e:	f7ff ffd9 	bl	8001834 <_Z8depth_36v.isra.0>
 8001882:	9b01      	ldr	r3, [sp, #4]
 8001884:	2b00      	cmp	r3, #0
 8001886:	bfa8      	it	ge
 8001888:	6823      	ldrge	r3, [r4, #0]
 800188a:	b002      	add	sp, #8
 800188c:	bd10      	pop	{r4, pc}
 800188e:	bf00      	nop
 8001890:	2000019c 	.word	0x2000019c

08001894 <_Z8depth_38v.isra.0>:
 8001894:	b510      	push	{r4, lr}
 8001896:	4c0a      	ldr	r4, [pc, #40]	@ (80018c0 <_Z8depth_38v.isra.0+0x2c>)
 8001898:	b082      	sub	sp, #8
 800189a:	6822      	ldr	r2, [r4, #0]
 800189c:	6823      	ldr	r3, [r4, #0]
 800189e:	3301      	adds	r3, #1
 80018a0:	6023      	str	r3, [r4, #0]
 80018a2:	6823      	ldr	r3, [r4, #0]
 80018a4:	eb03 2322 	add.w	r3, r3, r2, asr #8
 80018a8:	6023      	str	r3, [r4, #0]
 80018aa:	6823      	ldr	r3, [r4, #0]
 80018ac:	9301      	str	r3, [sp, #4]
 80018ae:	f7ff ffd9 	bl	8001864 <_Z8depth_37v.isra.0>
 80018b2:	9b01      	ldr	r3, [sp, #4]
 80018b4:	2b00      	cmp	r3, #0
 80018b6:	bfa8      	it	ge
 80018b8:	6823      	ldrge	r3, [r4, #0]
 80018ba:	b002      	add	sp, #8
 80018bc:	bd10      	pop	{r4, pc}
 80018be:	bf00      	nop
 80018c0:	2000019c 	.word	0x2000019c

080018c4 <_Z8depth_39v.isra.0>:
 80018c4:	b510      	push	{r4, lr}
 80018c6:	4c0a      	ldr	r4, [pc, #40]	@ (80018f0 <_Z8depth_39v.isra.0+0x2c>)
 80018c8:	b082      	sub	sp, #8
 80018ca:	6822      	ldr	r2, [r4, #0]
 80018cc:	6823      	ldr	r3, [r4, #0]
 80018ce:	3301      	adds	r3, #1
 80018d0:	6023      	str	r3, [r4, #0]
 80018d2:	6823      	ldr	r3, [r4, #0]
 80018d4:	eb03 2322 	add.w	r3, r3, r2, asr #8
 80018d8:	6023      	str	r3, [r4, #0]
 80018da:	6823      	ldr	r3, [r4, #0]
 80018dc:	9301      	str	r3, [sp, #4]
 80018de:	f7ff ffd9 	bl	8001894 <_Z8depth_38v.isra.0>
 80018e2:	9b01      	ldr	r3, [sp, #4]
 80018e4:	2b00      	cmp	r3, #0
 80018e6:	bfa8      	it	ge
 80018e8:	6823      	ldrge	r3, [r4, #0]
 80018ea:	b002      	add	sp, #8
 80018ec:	bd10      	pop	{r4, pc}
 80018ee:	bf00      	nop
 80018f0:	2000019c 	.word	0x2000019c

080018f4 <_Z8depth_40v.isra.0>:
 80018f4:	b510      	push	{r4, lr}
 80018f6:	4c0a      	ldr	r4, [pc, #40]	@ (8001920 <_Z8depth_40v.isra.0+0x2c>)
 80018f8:	b082      	sub	sp, #8
 80018fa:	6822      	ldr	r2, [r4, #0]
 80018fc:	6823      	ldr	r3, [r4, #0]
 80018fe:	3301      	adds	r3, #1
 8001900:	6023      	str	r3, [r4, #0]
 8001902:	6823      	ldr	r3, [r4, #0]
 8001904:	eb03 2322 	add.w	r3, r3, r2, asr #8
 8001908:	6023      	str	r3, [r4, #0]
 800190a:	6823      	ldr	r3, [r4, #0]
 800190c:	9301      	str	r3, [sp, #4]
 800190e:	f7ff ffd9 	bl	80018c4 <_Z8depth_39v.isra.0>
 8001912:	9b01      	ldr	r3, [sp, #4]
 8001914:	2b00      	cmp	r3, #0
 8001916:	bfa8      	it	ge
 8001918:	6823      	ldrge	r3, [r4, #0]
 800191a:	b002      	add	sp, #8
 800191c:	bd10      	pop	{r4, pc}
 800191e:	bf00      	nop
 8001920:	2000019c 	.word	0x2000019c

08001924 <_Z8depth_41v.isra.0>:
 8001924:	b510      	push	{r4, lr}
 8001926:	4c0a      	ldr	r4, [pc, #40]	@ (8001950 <_Z8depth_41v.isra.0+0x2c>)
 8001928:	b082      	sub	sp, #8
 800192a:	6822      	ldr	r2, [r4, #0]
 800192c:	6823      	ldr	r3, [r4, #0]
 800192e:	3301      	adds	r3, #1
 8001930:	6023      	str	r3, [r4, #0]
 8001932:	6823      	ldr	r3, [r4, #0]
 8001934:	eb03 2322 	add.w	r3, r3, r2, asr #8
 8001938:	6023      	str	r3, [r4, #0]
 800193a:	6823      	ldr	r3, [r4, #0]
 800193c:	9301      	str	r3, [sp, #4]
 800193e:	f7ff ffd9 	bl	80018f4 <_Z8depth_40v.isra.0>
 8001942:	9b01      	ldr	r3, [sp, #4]
 8001944:	2b00      	cmp	r3, #0
 8001946:	bfa8      	it	ge
 8001948:	6823      	ldrge	r3, [r4, #0]
 800194a:	b002      	add	sp, #8
 800194c:	bd10      	pop	{r4, pc}
 800194e:	bf00      	nop
 8001950:	2000019c 	.word	0x2000019c

08001954 <_Z8depth_42v.isra.0>:
 8001954:	b510      	push	{r4, lr}
 8001956:	4c0a      	ldr	r4, [pc, #40]	@ (8001980 <_Z8depth_42v.isra.0+0x2c>)
 8001958:	b082      	sub	sp, #8
 800195a:	6822      	ldr	r2, [r4, #0]
 800195c:	6823      	ldr	r3, [r4, #0]
 800195e:	3301      	adds	r3, #1
 8001960:	6023      	str	r3, [r4, #0]
 8001962:	6823      	ldr	r3, [r4, #0]
 8001964:	eb03 2322 	add.w	r3, r3, r2, asr #8
 8001968:	6023      	str	r3, [r4, #0]
 800196a:	6823      	ldr	r3, [r4, #0]
 800196c:	9301      	str	r3, [sp, #4]
 800196e:	f7ff ffd9 	bl	8001924 <_Z8depth_41v.isra.0>
 8001972:	9b01      	ldr	r3, [sp, #4]
 8001974:	2b00      	cmp	r3, #0
 8001976:	bfa8      	it	ge
 8001978:	6823      	ldrge	r3, [r4, #0]
 800197a:	b002      	add	sp, #8
 800197c:	bd10      	pop	{r4, pc}
 800197e:	bf00      	nop
 8001980:	2000019c 	.word	0x2000019c

08001984 <_Z8depth_43v.isra.0>:
 8001984:	b510      	push	{r4, lr}
 8001986:	4c0a      	ldr	r4, [pc, #40]	@ (80019b0 <_Z8depth_43v.isra.0+0x2c>)
 8001988:	b082      	sub	sp, #8
 800198a:	6822      	ldr	r2, [r4, #0]
 800198c:	6823      	ldr	r3, [r4, #0]
 800198e:	3301      	adds	r3, #1
 8001990:	6023      	str	r3, [r4, #0]
 8001992:	6823      	ldr	r3, [r4, #0]
 8001994:	eb03 2322 	add.w	r3, r3, r2, asr #8
 8001998:	6023      	str	r3, [r4, #0]
 800199a:	6823      	ldr	r3, [r4, #0]
 800199c:	9301      	str	r3, [sp, #4]
 800199e:	f7ff ffd9 	bl	8001954 <_Z8depth_42v.isra.0>
 80019a2:	9b01      	ldr	r3, [sp, #4]
 80019a4:	2b00      	cmp	r3, #0
 80019a6:	bfa8      	it	ge
 80019a8:	6823      	ldrge	r3, [r4, #0]
 80019aa:	b002      	add	sp, #8
 80019ac:	bd10      	pop	{r4, pc}
 80019ae:	bf00      	nop
 80019b0:	2000019c 	.word	0x2000019c

080019b4 <_Z8depth_44v.isra.0>:
 80019b4:	b510      	push	{r4, lr}
 80019b6:	4c0a      	ldr	r4, [pc, #40]	@ (80019e0 <_Z8depth_44v.isra.0+0x2c>)
 80019b8:	b082      	sub	sp, #8
 80019ba:	6822      	ldr	r2, [r4, #0]
 80019bc:	6823      	ldr	r3, [r4, #0]
 80019be:	3301      	adds	r3, #1
 80019c0:	6023      	str	r3, [r4, #0]
 80019c2:	6823      	ldr	r3, [r4, #0]
 80019c4:	eb03 2322 	add.w	r3, r3, r2, asr #8
 80019c8:	6023      	str	r3, [r4, #0]
 80019ca:	6823      	ldr	r3, [r4, #0]
 80019cc:	9301      	str	r3, [sp, #4]
 80019ce:	f7ff ffd9 	bl	8001984 <_Z8depth_43v.isra.0>
 80019d2:	9b01      	ldr	r3, [sp, #4]
 80019d4:	2b00      	cmp	r3, #0
 80019d6:	bfa8      	it	ge
 80019d8:	6823      	ldrge	r3, [r4, #0]
 80019da:	b002      	add	sp, #8
 80019dc:	bd10      	pop	{r4, pc}
 80019de:	bf00      	nop
 80019e0:	2000019c 	.word	0x2000019c

080019e4 <_Z8depth_45v.isra.0>:
 80019e4:	b510      	push	{r4, lr}
 80019e6:	4c0a      	ldr	r4, [pc, #40]	@ (8001a10 <_Z8depth_45v.isra.0+0x2c>)
 80019e8:	b082      	sub	sp, #8
 80019ea:	6822      	ldr	r2, [r4, #0]
 80019ec:	6823      	ldr	r3, [r4, #0]
 80019ee:	3301      	adds	r3, #1
 80019f0:	6023      	str	r3, [r4, #0]
 80019f2:	6823      	ldr	r3, [r4, #0]
 80019f4:	eb03 2322 	add.w	r3, r3, r2, asr #8
 80019f8:	6023      	str	r3, [r4, #0]
 80019fa:	6823      	ldr	r3, [r4, #0]
 80019fc:	9301      	str	r3, [sp, #4]
 80019fe:	f7ff ffd9 	bl	80019b4 <_Z8depth_44v.isra.0>
 8001a02:	9b01      	ldr	r3, [sp, #4]
 8001a04:	2b00      	cmp	r3, #0
 8001a06:	bfa8      	it	ge
 8001a08:	6823      	ldrge	r3, [r4, #0]
 8001a0a:	b002      	add	sp, #8
 8001a0c:	bd10      	pop	{r4, pc}
 8001a0e:	bf00      	nop
 8001a10:	2000019c 	.word	0x2000019c

08001a14 <_Z8depth_46v.isra.0>:
 8001a14:	b510      	push	{r4, lr}
 8001a16:	4c0a      	ldr	r4, [pc, #40]	@ (8001a40 <_Z8depth_46v.isra.0+0x2c>)
 8001a18:	b082      	sub	sp, #8
 8001a1a:	6822      	ldr	r2, [r4, #0]
 8001a1c:	6823      	ldr	r3, [r4, #0]
 8001a1e:	3301      	adds	r3, #1
 8001a20:	6023      	str	r3, [r4, #0]
 8001a22:	6823      	ldr	r3, [r4, #0]
 8001a24:	eb03 2322 	add.w	r3, r3, r2, asr #8
 8001a28:	6023      	str	r3, [r4, #0]
 8001a2a:	6823      	ldr	r3, [r4, #0]
 8001a2c:	9301      	str	r3, [sp, #4]
 8001a2e:	f7ff ffd9 	bl	80019e4 <_Z8depth_45v.isra.0>
 8001a32:	9b01      	ldr	r3, [sp, #4]
 8001a34:	2b00      	cmp	r3, #0
 8001a36:	bfa8      	it	ge
 8001a38:	6823      	ldrge	r3, [r4, #0]
 8001a3a:	b002      	add	sp, #8
 8001a3c:	bd10      	pop	{r4, pc}
 8001a3e:	bf00      	nop
 8001a40:	2000019c 	.word	0x2000019c

08001a44 <_Z8depth_47v.isra.0>:
 8001a44:	b510      	push	{r4, lr}
 8001a46:	4c0a      	ldr	r4, [pc, #40]	@ (8001a70 <_Z8depth_47v.isra.0+0x2c>)
 8001a48:	b082      	sub	sp, #8
 8001a4a:	6822      	ldr	r2, [r4, #0]
 8001a4c:	6823      	ldr	r3, [r4, #0]
 8001a4e:	3301      	adds	r3, #1
 8001a50:	6023      	str	r3, [r4, #0]
 8001a52:	6823      	ldr	r3, [r4, #0]
 8001a54:	eb03 2322 	add.w	r3, r3, r2, asr #8
 8001a58:	6023      	str	r3, [r4, #0]
 8001a5a:	6823      	ldr	r3, [r4, #0]
 8001a5c:	9301      	str	r3, [sp, #4]
 8001a5e:	f7ff ffd9 	bl	8001a14 <_Z8depth_46v.isra.0>
 8001a62:	9b01      	ldr	r3, [sp, #4]
 8001a64:	2b00      	cmp	r3, #0
 8001a66:	bfa8      	it	ge
 8001a68:	6823      	ldrge	r3, [r4, #0]
 8001a6a:	b002      	add	sp, #8
 8001a6c:	bd10      	pop	{r4, pc}
 8001a6e:	bf00      	nop
 8001a70:	2000019c 	.word	0x2000019c

08001a74 <_Z8depth_48v.isra.0>:
 8001a74:	b510      	push	{r4, lr}
 8001a76:	4c0a      	ldr	r4, [pc, #40]	@ (8001aa0 <_Z8depth_48v.isra.0+0x2c>)
 8001a78:	b082      	sub	sp, #8
 8001a7a:	6822      	ldr	r2, [r4, #0]
 8001a7c:	6823      	ldr	r3, [r4, #0]
 8001a7e:	3301      	adds	r3, #1
 8001a80:	6023      	str	r3, [r4, #0]
 8001a82:	6823      	ldr	r3, [r4, #0]
 8001a84:	eb03 2322 	add.w	r3, r3, r2, asr #8
 8001a88:	6023      	str	r3, [r4, #0]
 8001a8a:	6823      	ldr	r3, [r4, #0]
 8001a8c:	9301      	str	r3, [sp, #4]
 8001a8e:	f7ff ffd9 	bl	8001a44 <_Z8depth_47v.isra.0>
 8001a92:	9b01      	ldr	r3, [sp, #4]
 8001a94:	2b00      	cmp	r3, #0
 8001a96:	bfa8      	it	ge
 8001a98:	6823      	ldrge	r3, [r4, #0]
 8001a9a:	b002      	add	sp, #8
 8001a9c:	bd10      	pop	{r4, pc}
 8001a9e:	bf00      	nop
 8001aa0:	2000019c 	.word	0x2000019c

08001aa4 <_Z8depth_49v.isra.0>:
 8001aa4:	b510      	push	{r4, lr}
 8001aa6:	4c0a      	ldr	r4, [pc, #40]	@ (8001ad0 <_Z8depth_49v.isra.0+0x2c>)
 8001aa8:	b082      	sub	sp, #8
 8001aaa:	6822      	ldr	r2, [r4, #0]
 8001aac:	6823      	ldr	r3, [r4, #0]
 8001aae:	3301      	adds	r3, #1
 8001ab0:	6023      	str	r3, [r4, #0]
 8001ab2:	6823      	ldr	r3, [r4, #0]
 8001ab4:	eb03 2322 	add.w	r3, r3, r2, asr #8
 8001ab8:	6023      	str	r3, [r4, #0]
 8001aba:	6823      	ldr	r3, [r4, #0]
 8001abc:	9301      	str	r3, [sp, #4]
 8001abe:	f7ff ffd9 	bl	8001a74 <_Z8depth_48v.isra.0>
 8001ac2:	9b01      	ldr	r3, [sp, #4]
 8001ac4:	2b00      	cmp	r3, #0
 8001ac6:	bfa8      	it	ge
 8001ac8:	6823      	ldrge	r3, [r4, #0]
 8001aca:	b002      	add	sp, #8
 8001acc:	bd10      	pop	{r4, pc}
 8001ace:	bf00      	nop
 8001ad0:	2000019c 	.word	0x2000019c

08001ad4 <_Z8depth_50v.isra.0>:
 8001ad4:	b510      	push	{r4, lr}
 8001ad6:	4c0a      	ldr	r4, [pc, #40]	@ (8001b00 <_Z8depth_50v.isra.0+0x2c>)
 8001ad8:	b082      	sub	sp, #8
 8001ada:	6822      	ldr	r2, [r4, #0]
 8001adc:	6823      	ldr	r3, [r4, #0]
 8001ade:	3301      	adds	r3, #1
 8001ae0:	6023      	str	r3, [r4, #0]
 8001ae2:	6823      	ldr	r3, [r4, #0]
 8001ae4:	eb03 2322 	add.w	r3, r3, r2, asr #8
 8001ae8:	6023      	str	r3, [r4, #0]
 8001aea:	6823      	ldr	r3, [r4, #0]
 8001aec:	9301      	str	r3, [sp, #4]
 8001aee:	f7ff ffd9 	bl	8001aa4 <_Z8depth_49v.isra.0>
 8001af2:	9b01      	ldr	r3, [sp, #4]
 8001af4:	2b00      	cmp	r3, #0
 8001af6:	bfa8      	it	ge
 8001af8:	6823      	ldrge	r3, [r4, #0]
 8001afa:	b002      	add	sp, #8
 8001afc:	bd10      	pop	{r4, pc}
 8001afe:	bf00      	nop
 8001b00:	2000019c 	.word	0x2000019c

08001b04 <_Z8depth_51v.isra.0>:
 8001b04:	b510      	push	{r4, lr}
 8001b06:	4c0a      	ldr	r4, [pc, #40]	@ (8001b30 <_Z8depth_51v.isra.0+0x2c>)
 8001b08:	b082      	sub	sp, #8
 8001b0a:	6822      	ldr	r2, [r4, #0]
 8001b0c:	6823      	ldr	r3, [r4, #0]
 8001b0e:	3301      	adds	r3, #1
 8001b10:	6023      	str	r3, [r4, #0]
 8001b12:	6823      	ldr	r3, [r4, #0]
 8001b14:	eb03 2322 	add.w	r3, r3, r2, asr #8
 8001b18:	6023      	str	r3, [r4, #0]
 8001b1a:	6823      	ldr	r3, [r4, #0]
 8001b1c:	9301      	str	r3, [sp, #4]
 8001b1e:	f7ff ffd9 	bl	8001ad4 <_Z8depth_50v.isra.0>
 8001b22:	9b01      	ldr	r3, [sp, #4]
 8001b24:	2b00      	cmp	r3, #0
 8001b26:	bfa8      	it	ge
 8001b28:	6823      	ldrge	r3, [r4, #0]
 8001b2a:	b002      	add	sp, #8
 8001b2c:	bd10      	pop	{r4, pc}
 8001b2e:	bf00      	nop
 8001b30:	2000019c 	.word	0x2000019c

08001b34 <_Z8depth_52v.isra.0>:
 8001b34:	b510      	push	{r4, lr}
 8001b36:	4c0a      	ldr	r4, [pc, #40]	@ (8001b60 <_Z8depth_52v.isra.0+0x2c>)
 8001b38:	b082      	sub	sp, #8
 8001b3a:	6822      	ldr	r2, [r4, #0]
 8001b3c:	6823      	ldr	r3, [r4, #0]
 8001b3e:	3301      	adds	r3, #1
 8001b40:	6023      	str	r3, [r4, #0]
 8001b42:	6823      	ldr	r3, [r4, #0]
 8001b44:	eb03 2322 	add.w	r3, r3, r2, asr #8
 8001b48:	6023      	str	r3, [r4, #0]
 8001b4a:	6823      	ldr	r3, [r4, #0]
 8001b4c:	9301      	str	r3, [sp, #4]
 8001b4e:	f7ff ffd9 	bl	8001b04 <_Z8depth_51v.isra.0>
 8001b52:	9b01      	ldr	r3, [sp, #4]
 8001b54:	2b00      	cmp	r3, #0
 8001b56:	bfa8      	it	ge
 8001b58:	6823      	ldrge	r3, [r4, #0]
 8001b5a:	b002      	add	sp, #8
 8001b5c:	bd10      	pop	{r4, pc}
 8001b5e:	bf00      	nop
 8001b60:	2000019c 	.word	0x2000019c

08001b64 <_Z8depth_53v.isra.0>:
 8001b64:	b510      	push	{r4, lr}
 8001b66:	4c0a      	ldr	r4, [pc, #40]	@ (8001b90 <_Z8depth_53v.isra.0+0x2c>)
 8001b68:	b082      	sub	sp, #8
 8001b6a:	6822      	ldr	r2, [r4, #0]
 8001b6c:	6823      	ldr	r3, [r4, #0]
 8001b6e:	3301      	adds	r3, #1
 8001b70:	6023      	str	r3, [r4, #0]
 8001b72:	6823      	ldr	r3, [r4, #0]
 8001b74:	eb03 2322 	add.w	r3, r3, r2, asr #8
 8001b78:	6023      	str	r3, [r4, #0]
 8001b7a:	6823      	ldr	r3, [r4, #0]
 8001b7c:	9301      	str	r3, [sp, #4]
 8001b7e:	f7ff ffd9 	bl	8001b34 <_Z8depth_52v.isra.0>
 8001b82:	9b01      	ldr	r3, [sp, #4]
 8001b84:	2b00      	cmp	r3, #0
 8001b86:	bfa8      	it	ge
 8001b88:	6823      	ldrge	r3, [r4, #0]
 8001b8a:	b002      	add	sp, #8
 8001b8c:	bd10      	pop	{r4, pc}
 8001b8e:	bf00      	nop
 8001b90:	2000019c 	.word	0x2000019c

08001b94 <_Z8depth_54v.isra.0>:
 8001b94:	b510      	push	{r4, lr}
 8001b96:	4c0a      	ldr	r4, [pc, #40]	@ (8001bc0 <_Z8depth_54v.isra.0+0x2c>)
 8001b98:	b082      	sub	sp, #8
 8001b9a:	6822      	ldr	r2, [r4, #0]
 8001b9c:	6823      	ldr	r3, [r4, #0]
 8001b9e:	3301      	adds	r3, #1
 8001ba0:	6023      	str	r3, [r4, #0]
 8001ba2:	6823      	ldr	r3, [r4, #0]
 8001ba4:	eb03 2322 	add.w	r3, r3, r2, asr #8
 8001ba8:	6023      	str	r3, [r4, #0]
 8001baa:	6823      	ldr	r3, [r4, #0]
 8001bac:	9301      	str	r3, [sp, #4]
 8001bae:	f7ff ffd9 	bl	8001b64 <_Z8depth_53v.isra.0>
 8001bb2:	9b01      	ldr	r3, [sp, #4]
 8001bb4:	2b00      	cmp	r3, #0
 8001bb6:	bfa8      	it	ge
 8001bb8:	6823      	ldrge	r3, [r4, #0]
 8001bba:	b002      	add	sp, #8
 8001bbc:	bd10      	pop	{r4, pc}
 8001bbe:	bf00      	nop
 8001bc0:	2000019c 	.word	0x2000019c

08001bc4 <_Z8depth_55v.isra.0>:
 8001bc4:	b510      	push	{r4, lr}
 8001bc6:	4c0a      	ldr	r4, [pc, #40]	@ (8001bf0 <_Z8depth_55v.isra.0+0x2c>)
 8001bc8:	b082      	sub	sp, #8
 8001bca:	6822      	ldr	r2, [r4, #0]
 8001bcc:	6823      	ldr	r3, [r4, #0]
 8001bce:	3301      	adds	r3, #1
 8001bd0:	6023      	str	r3, [r4, #0]
 8001bd2:	6823      	ldr	r3, [r4, #0]
 8001bd4:	eb03 2322 	add.w	r3, r3, r2, asr #8
 8001bd8:	6023      	str	r3, [r4, #0]
 8001bda:	6823      	ldr	r3, [r4, #0]
 8001bdc:	9301      	str	r3, [sp, #4]
 8001bde:	f7ff ffd9 	bl	8001b94 <_Z8depth_54v.isra.0>
 8001be2:	9b01      	ldr	r3, [sp, #4]
 8001be4:	2b00      	cmp	r3, #0
 8001be6:	bfa8      	it	ge
 8001be8:	6823      	ldrge	r3, [r4, #0]
 8001bea:	b002      	add	sp, #8
 8001bec:	bd10      	pop	{r4, pc}
 8001bee:	bf00      	nop
 8001bf0:	2000019c 	.word	0x2000019c

08001bf4 <_Z8depth_56v.isra.0>:
 8001bf4:	b510      	push	{r4, lr}
 8001bf6:	4c0a      	ldr	r4, [pc, #40]	@ (8001c20 <_Z8depth_56v.isra.0+0x2c>)
 8001bf8:	b082      	sub	sp, #8
 8001bfa:	6822      	ldr	r2, [r4, #0]
 8001bfc:	6823      	ldr	r3, [r4, #0]
 8001bfe:	3301      	adds	r3, #1
 8001c00:	6023      	str	r3, [r4, #0]
 8001c02:	6823      	ldr	r3, [r4, #0]
 8001c04:	eb03 2322 	add.w	r3, r3, r2, asr #8
 8001c08:	6023      	str	r3, [r4, #0]
 8001c0a:	6823      	ldr	r3, [r4, #0]
 8001c0c:	9301      	str	r3, [sp, #4]
 8001c0e:	f7ff ffd9 	bl	8001bc4 <_Z8depth_55v.isra.0>
 8001c12:	9b01      	ldr	r3, [sp, #4]
 8001c14:	2b00      	cmp	r3, #0
 8001c16:	bfa8      	it	ge
 8001c18:	6823      	ldrge	r3, [r4, #0]
 8001c1a:	b002      	add	sp, #8
 8001c1c:	bd10      	pop	{r4, pc}
 8001c1e:	bf00      	nop
 8001c20:	2000019c 	.word	0x2000019c

08001c24 <_Z8depth_57v.isra.0>:
 8001c24:	b510      	push	{r4, lr}
 8001c26:	4c0a      	ldr	r4, [pc, #40]	@ (8001c50 <_Z8depth_57v.isra.0+0x2c>)
 8001c28:	b082      	sub	sp, #8
 8001c2a:	6822      	ldr	r2, [r4, #0]
 8001c2c:	6823      	ldr	r3, [r4, #0]
 8001c2e:	3301      	adds	r3, #1
 8001c30:	6023      	str	r3, [r4, #0]
 8001c32:	6823      	ldr	r3, [r4, #0]
 8001c34:	eb03 2322 	add.w	r3, r3, r2, asr #8
 8001c38:	6023      	str	r3, [r4, #0]
 8001c3a:	6823      	ldr	r3, [r4, #0]
 8001c3c:	9301      	str	r3, [sp, #4]
 8001c3e:	f7ff ffd9 	bl	8001bf4 <_Z8depth_56v.isra.0>
 8001c42:	9b01      	ldr	r3, [sp, #4]
 8001c44:	2b00      	cmp	r3, #0
 8001c46:	bfa8      	it	ge
 8001c48:	6823      	ldrge	r3, [r4, #0]
 8001c4a:	b002      	add	sp, #8
 8001c4c:	bd10      	pop	{r4, pc}
 8001c4e:	bf00      	nop
 8001c50:	2000019c 	.word	0x2000019c

08001c54 <_Z8depth_58v.isra.0>:
 8001c54:	b510      	push	{r4, lr}
 8001c56:	4c0a      	ldr	r4, [pc, #40]	@ (8001c80 <_Z8depth_58v.isra.0+0x2c>)
 8001c58:	b082      	sub	sp, #8
 8001c5a:	6822      	ldr	r2, [r4, #0]
 8001c5c:	6823      	ldr	r3, [r4, #0]
 8001c5e:	3301      	adds	r3, #1
 8001c60:	6023      	str	r3, [r4, #0]
 8001c62:	6823      	ldr	r3, [r4, #0]
 8001c64:	eb03 2322 	add.w	r3, r3, r2, asr #8
 8001c68:	6023      	str	r3, [r4, #0]
 8001c6a:	6823      	ldr	r3, [r4, #0]
 8001c6c:	9301      	str	r3, [sp, #4]
 8001c6e:	f7ff ffd9 	bl	8001c24 <_Z8depth_57v.isra.0>
 8001c72:	9b01      	ldr	r3, [sp, #4]
 8001c74:	2b00      	cmp	r3, #0
 8001c76:	bfa8      	it	ge
 8001c78:	6823      	ldrge	r3, [r4, #0]
 8001c7a:	b002      	add	sp, #8
 8001c7c:	bd10      	pop	{r4, pc}
 8001c7e:	bf00      	nop
 8001c80:	2000019c 	.word	0x2000019c

08001c84 <_Z8depth_59v.isra.0>:
 8001c84:	b510      	push	{r4, lr}
 8001c86:	4c0a      	ldr	r4, [pc, #40]	@ (8001cb0 <_Z8depth_59v.isra.0+0x2c>)
 8001c88:	b082      	sub	sp, #8
 8001c8a:	6822      	ldr	r2, [r4, #0]
 8001c8c:	6823      	ldr	r3, [r4, #0]
 8001c8e:	3301      	adds	r3, #1
 8001c90:	6023      	str	r3, [r4, #0]
 8001c92:	6823      	ldr	r3, [r4, #0]
 8001c94:	eb03 2322 	add.w	r3, r3, r2, asr #8
 8001c98:	6023      	str	r3, [r4, #0]
 8001c9a:	6823      	ldr	r3, [r4, #0]
 8001c9c:	9301      	str	r3, [sp, #4]
 8001c9e:	f7ff ffd9 	bl	8001c54 <_Z8depth_58v.isra.0>
 8001ca2:	9b01      	ldr	r3, [sp, #4]
 8001ca4:	2b00      	cmp	r3, #0
 8001ca6:	bfa8      	it	ge
 8001ca8:	6823      	ldrge	r3, [r4, #0]
 8001caa:	b002      	add	sp, #8
 8001cac:	bd10      	pop	{r4, pc}
 8001cae:	bf00      	nop
 8001cb0:	2000019c 	.word	0x2000019c

08001cb4 <_Z8depth_60v.isra.0>:
 8001cb4:	b510      	push	{r4, lr}
 8001cb6:	4c0a      	ldr	r4, [pc, #40]	@ (8001ce0 <_Z8depth_60v.isra.0+0x2c>)
 8001cb8:	b082      	sub	sp, #8
 8001cba:	6822      	ldr	r2, [r4, #0]
 8001cbc:	6823      	ldr	r3, [r4, #0]
 8001cbe:	3301      	adds	r3, #1
 8001cc0:	6023      	str	r3, [r4, #0]
 8001cc2:	6823      	ldr	r3, [r4, #0]
 8001cc4:	eb03 2322 	add.w	r3, r3, r2, asr #8
 8001cc8:	6023      	str	r3, [r4, #0]
 8001cca:	6823      	ldr	r3, [r4, #0]
 8001ccc:	9301      	str	r3, [sp, #4]
 8001cce:	f7ff ffd9 	bl	8001c84 <_Z8depth_59v.isra.0>
 8001cd2:	9b01      	ldr	r3, [sp, #4]
 8001cd4:	2b00      	cmp	r3, #0
 8001cd6:	bfa8      	it	ge
 8001cd8:	6823      	ldrge	r3, [r4, #0]
 8001cda:	b002      	add	sp, #8
 8001cdc:	bd10      	pop	{r4, pc}
 8001cde:	bf00      	nop
 8001ce0:	2000019c 	.word	0x2000019c

08001ce4 <_Z8depth_61v.isra.0>:
 8001ce4:	b510      	push	{r4, lr}
 8001ce6:	4c0a      	ldr	r4, [pc, #40]	@ (8001d10 <_Z8depth_61v.isra.0+0x2c>)
 8001ce8:	b082      	sub	sp, #8
 8001cea:	6822      	ldr	r2, [r4, #0]
 8001cec:	6823      	ldr	r3, [r4, #0]
 8001cee:	3301      	adds	r3, #1
 8001cf0:	6023      	str	r3, [r4, #0]
 8001cf2:	6823      	ldr	r3, [r4, #0]
 8001cf4:	eb03 2322 	add.w	r3, r3, r2, asr #8
 8001cf8:	6023      	str	r3, [r4, #0]
 8001cfa:	6823      	ldr	r3, [r4, #0]
 8001cfc:	9301      	str	r3, [sp, #4]
 8001cfe:	f7ff ffd9 	bl	8001cb4 <_Z8depth_60v.isra.0>
 8001d02:	9b01      	ldr	r3, [sp, #4]
 8001d04:	2b00      	cmp	r3, #0
 8001d06:	bfa8      	it	ge
 8001d08:	6823      	ldrge	r3, [r4, #0]
 8001d0a:	b002      	add	sp, #8
 8001d0c:	bd10      	pop	{r4, pc}
 8001d0e:	bf00      	nop
 8001d10:	2000019c 	.word	0x2000019c

08001d14 <_Z8depth_62v.isra.0>:
 8001d14:	b510      	push	{r4, lr}
 8001d16:	4c0a      	ldr	r4, [pc, #40]	@ (8001d40 <_Z8depth_62v.isra.0+0x2c>)
 8001d18:	b082      	sub	sp, #8
 8001d1a:	6822      	ldr	r2, [r4, #0]
 8001d1c:	6823      	ldr	r3, [r4, #0]
 8001d1e:	3301      	adds	r3, #1
 8001d20:	6023      	str	r3, [r4, #0]
 8001d22:	6823      	ldr	r3, [r4, #0]
 8001d24:	eb03 2322 	add.w	r3, r3, r2, asr #8
 8001d28:	6023      	str	r3, [r4, #0]
 8001d2a:	6823      	ldr	r3, [r4, #0]
 8001d2c:	9301      	str	r3, [sp, #4]
 8001d2e:	f7ff ffd9 	bl	8001ce4 <_Z8depth_61v.isra.0>
 8001d32:	9b01      	ldr	r3, [sp, #4]
 8001d34:	2b00      	cmp	r3, #0
 8001d36:	bfa8      	it	ge
 8001d38:	6823      	ldrge	r3, [r4, #0]
 8001d3a:	b002      	add	sp, #8
 8001d3c:	bd10      	pop	{r4, pc}
 8001d3e:	bf00      	nop
 8001d40:	2000019c 	.word	0x2000019c

08001d44 <_Z8depth_63v.isra.0>:
 8001d44:	b510      	push	{r4, lr}
 8001d46:	4c0a      	ldr	r4, [pc, #40]	@ (8001d70 <_Z8depth_63v.isra.0+0x2c>)
 8001d48:	b082      	sub	sp, #8
 8001d4a:	6822      	ldr	r2, [r4, #0]
 8001d4c:	6823      	ldr	r3, [r4, #0]
 8001d4e:	3301      	adds	r3, #1
 8001d50:	6023      	str	r3, [r4, #0]
 8001d52:	6823      	ldr	r3, [r4, #0]
 8001d54:	eb03 2322 	add.w	r3, r3, r2, asr #8
 8001d58:	6023      	str	r3, [r4, #0]
 8001d5a:	6823      	ldr	r3, [r4, #0]
 8001d5c:	9301      	str	r3, [sp, #4]
 8001d5e:	f7ff ffd9 	bl	8001d14 <_Z8depth_62v.isra.0>
 8001d62:	9b01      	ldr	r3, [sp, #4]
 8001d64:	2b00      	cmp	r3, #0
 8001d66:	bfa8      	it	ge
 8001d68:	6823      	ldrge	r3, [r4, #0]
 8001d6a:	b002      	add	sp, #8
 8001d6c:	bd10      	pop	{r4, pc}
 8001d6e:	bf00      	nop
 8001d70:	2000019c 	.word	0x2000019c

08001d74 <_Z8depth_64v.isra.0>:
 8001d74:	b510      	push	{r4, lr}
 8001d76:	4c0a      	ldr	r4, [pc, #40]	@ (8001da0 <_Z8depth_64v.isra.0+0x2c>)
 8001d78:	b082      	sub	sp, #8
 8001d7a:	6822      	ldr	r2, [r4, #0]
 8001d7c:	6823      	ldr	r3, [r4, #0]
 8001d7e:	3301      	adds	r3, #1
 8001d80:	6023      	str	r3, [r4, #0]
 8001d82:	6823      	ldr	r3, [r4, #0]
 8001d84:	eb03 2322 	add.w	r3, r3, r2, asr #8
 8001d88:	6023      	str	r3, [r4, #0]
 8001d8a:	6823      	ldr	r3, [r4, #0]
 8001d8c:	9301      	str	r3, [sp, #4]
 8001d8e:	f7ff ffd9 	bl	8001d44 <_Z8depth_63v.isra.0>
 8001d92:	9b01      	ldr	r3, [sp, #4]
 8001d94:	2b00      	cmp	r3, #0
 8001d96:	bfa8      	it	ge
 8001d98:	6823      	ldrge	r3, [r4, #0]
 8001d9a:	b002      	add	sp, #8
 8001d9c:	bd10      	pop	{r4, pc}
 8001d9e:	bf00      	nop
 8001da0:	2000019c 	.word	0x2000019c

08001da4 <_Z8depth_65v.isra.0>:
 8001da4:	b510      	push	{r4, lr}
 8001da6:	4c0a      	ldr	r4, [pc, #40]	@ (8001dd0 <_Z8depth_65v.isra.0+0x2c>)
 8001da8:	b082      	sub	sp, #8
 8001daa:	6822      	ldr	r2, [r4, #0]
 8001dac:	6823      	ldr	r3, [r4, #0]
 8001dae:	3301      	adds	r3, #1
 8001db0:	6023      	str	r3, [r4, #0]
 8001db2:	6823      	ldr	r3, [r4, #0]
 8001db4:	eb03 2322 	add.w	r3, r3, r2, asr #8
 8001db8:	6023      	str	r3, [r4, #0]
 8001dba:	6823      	ldr	r3, [r4, #0]
 8001dbc:	9301      	str	r3, [sp, #4]
 8001dbe:	f7ff ffd9 	bl	8001d74 <_Z8depth_64v.isra.0>
 8001dc2:	9b01      	ldr	r3, [sp, #4]
 8001dc4:	2b00      	cmp	r3, #0
 8001dc6:	bfa8      	it	ge
 8001dc8:	6823      	ldrge	r3, [r4, #0]
 8001dca:	b002      	add	sp, #8
 8001dcc:	bd10      	pop	{r4, pc}
 8001dce:	bf00      	nop
 8001dd0:	2000019c 	.word	0x2000019c

08001dd4 <_Z8depth_66v.isra.0>:
 8001dd4:	b510      	push	{r4, lr}
 8001dd6:	4c0a      	ldr	r4, [pc, #40]	@ (8001e00 <_Z8depth_66v.isra.0+0x2c>)
 8001dd8:	b082      	sub	sp, #8
 8001dda:	6822      	ldr	r2, [r4, #0]
 8001ddc:	6823      	ldr	r3, [r4, #0]
 8001dde:	3301      	adds	r3, #1
 8001de0:	6023      	str	r3, [r4, #0]
 8001de2:	6823      	ldr	r3, [r4, #0]
 8001de4:	eb03 2322 	add.w	r3, r3, r2, asr #8
 8001de8:	6023      	str	r3, [r4, #0]
 8001dea:	6823      	ldr	r3, [r4, #0]
 8001dec:	9301      	str	r3, [sp, #4]
 8001dee:	f7ff ffd9 	bl	8001da4 <_Z8depth_65v.isra.0>
 8001df2:	9b01      	ldr	r3, [sp, #4]
 8001df4:	2b00      	cmp	r3, #0
 8001df6:	bfa8      	it	ge
 8001df8:	6823      	ldrge	r3, [r4, #0]
 8001dfa:	b002      	add	sp, #8
 8001dfc:	bd10      	pop	{r4, pc}
 8001dfe:	bf00      	nop
 8001e00:	2000019c 	.word	0x2000019c

08001e04 <_Z8depth_67v.isra.0>:
 8001e04:	b510      	push	{r4, lr}
 8001e06:	4c0a      	ldr	r4, [pc, #40]	@ (8001e30 <_Z8depth_67v.isra.0+0x2c>)
 8001e08:	b082      	sub	sp, #8
 8001e0a:	6822      	ldr	r2, [r4, #0]
 8001e0c:	6823      	ldr	r3, [r4, #0]
 8001e0e:	3301      	adds	r3, #1
 8001e10:	6023      	str	r3, [r4, #0]
 8001e12:	6823      	ldr	r3, [r4, #0]
 8001e14:	eb03 2322 	add.w	r3, r3, r2, asr #8
 8001e18:	6023      	str	r3, [r4, #0]
 8001e1a:	6823      	ldr	r3, [r4, #0]
 8001e1c:	9301      	str	r3, [sp, #4]
 8001e1e:	f7ff ffd9 	bl	8001dd4 <_Z8depth_66v.isra.0>
 8001e22:	9b01      	ldr	r3, [sp, #4]
 8001e24:	2b00      	cmp	r3, #0
 8001e26:	bfa8      	it	ge
 8001e28:	6823      	ldrge	r3, [r4, #0]
 8001e2a:	b002      	add	sp, #8
 8001e2c:	bd10      	pop	{r4, pc}
 8001e2e:	bf00      	nop
 8001e30:	2000019c 	.word	0x2000019c

08001e34 <_Z8depth_68v.isra.0>:
 8001e34:	b510      	push	{r4, lr}
 8001e36:	4c0a      	ldr	r4, [pc, #40]	@ (8001e60 <_Z8depth_68v.isra.0+0x2c>)
 8001e38:	b082      	sub	sp, #8
 8001e3a:	6822      	ldr	r2, [r4, #0]
 8001e3c:	6823      	ldr	r3, [r4, #0]
 8001e3e:	3301      	adds	r3, #1
 8001e40:	6023      	str	r3, [r4, #0]
 8001e42:	6823      	ldr	r3, [r4, #0]
 8001e44:	eb03 2322 	add.w	r3, r3, r2, asr #8
 8001e48:	6023      	str	r3, [r4, #0]
 8001e4a:	6823      	ldr	r3, [r4, #0]
 8001e4c:	9301      	str	r3, [sp, #4]
 8001e4e:	f7ff ffd9 	bl	8001e04 <_Z8depth_67v.isra.0>
 8001e52:	9b01      	ldr	r3, [sp, #4]
 8001e54:	2b00      	cmp	r3, #0
 8001e56:	bfa8      	it	ge
 8001e58:	6823      	ldrge	r3, [r4, #0]
 8001e5a:	b002      	add	sp, #8
 8001e5c:	bd10      	pop	{r4, pc}
 8001e5e:	bf00      	nop
 8001e60:	2000019c 	.word	0x2000019c

08001e64 <_Z8depth_69v.isra.0>:
 8001e64:	b510      	push	{r4, lr}
 8001e66:	4c0a      	ldr	r4, [pc, #40]	@ (8001e90 <_Z8depth_69v.isra.0+0x2c>)
 8001e68:	b082      	sub	sp, #8
 8001e6a:	6822      	ldr	r2, [r4, #0]
 8001e6c:	6823      	ldr	r3, [r4, #0]
 8001e6e:	3301      	adds	r3, #1
 8001e70:	6023      	str	r3, [r4, #0]
 8001e72:	6823      	ldr	r3, [r4, #0]
 8001e74:	eb03 2322 	add.w	r3, r3, r2, asr #8
 8001e78:	6023      	str	r3, [r4, #0]
 8001e7a:	6823      	ldr	r3, [r4, #0]
 8001e7c:	9301      	str	r3, [sp, #4]
 8001e7e:	f7ff ffd9 	bl	8001e34 <_Z8depth_68v.isra.0>
 8001e82:	9b01      	ldr	r3, [sp, #4]
 8001e84:	2b00      	cmp	r3, #0
 8001e86:	bfa8      	it	ge
 8001e88:	6823      	ldrge	r3, [r4, #0]
 8001e8a:	b002      	add	sp, #8
 8001e8c:	bd10      	pop	{r4, pc}
 8001e8e:	bf00      	nop
 8001e90:	2000019c 	.word	0x2000019c

08001e94 <_Z8depth_70v.isra.0>:
 8001e94:	b510      	push	{r4, lr}
 8001e96:	4c0a      	ldr	r4, [pc, #40]	@ (8001ec0 <_Z8depth_70v.isra.0+0x2c>)
 8001e98:	b082      	sub	sp, #8
 8001e9a:	6822      	ldr	r2, [r4, #0]
 8001e9c:	6823      	ldr	r3, [r4, #0]
 8001e9e:	3301      	adds	r3, #1
 8001ea0:	6023      	str	r3, [r4, #0]
 8001ea2:	6823      	ldr	r3, [r4, #0]
 8001ea4:	eb03 2322 	add.w	r3, r3, r2, asr #8
 8001ea8:	6023      	str	r3, [r4, #0]
 8001eaa:	6823      	ldr	r3, [r4, #0]
 8001eac:	9301      	str	r3, [sp, #4]
 8001eae:	f7ff ffd9 	bl	8001e64 <_Z8depth_69v.isra.0>
 8001eb2:	9b01      	ldr	r3, [sp, #4]
 8001eb4:	2b00      	cmp	r3, #0
 8001eb6:	bfa8      	it	ge
 8001eb8:	6823      	ldrge	r3, [r4, #0]
 8001eba:	b002      	add	sp, #8
 8001ebc:	bd10      	pop	{r4, pc}
 8001ebe:	bf00      	nop
 8001ec0:	2000019c 	.word	0x2000019c

08001ec4 <_ZN3hal26single_exception_allocatorD1Ev>:
 8001ec4:	b510      	push	{r4, lr}
 8001ec6:	4604      	mov	r4, r0
 8001ec8:	4b02      	ldr	r3, [pc, #8]	@ (8001ed4 <_ZN3hal26single_exception_allocatorD1Ev+0x10>)
 8001eca:	6003      	str	r3, [r0, #0]
 8001ecc:	f001 fdec 	bl	8003aa8 <_ZNSt3pmr15memory_resourceD1Ev>
 8001ed0:	4620      	mov	r0, r4
 8001ed2:	bd10      	pop	{r4, pc}
 8001ed4:	080073b0 	.word	0x080073b0

08001ed8 <_ZN3hal26single_exception_allocatorD0Ev>:
 8001ed8:	b510      	push	{r4, lr}
 8001eda:	4604      	mov	r4, r0
 8001edc:	4b04      	ldr	r3, [pc, #16]	@ (8001ef0 <_ZN3hal26single_exception_allocatorD0Ev+0x18>)
 8001ede:	6003      	str	r3, [r0, #0]
 8001ee0:	f001 fde2 	bl	8003aa8 <_ZNSt3pmr15memory_resourceD1Ev>
 8001ee4:	4620      	mov	r0, r4
 8001ee6:	2150      	movs	r1, #80	@ 0x50
 8001ee8:	f001 f98a 	bl	8003200 <_ZdlPvj>
 8001eec:	4620      	mov	r0, r4
 8001eee:	bd10      	pop	{r4, pc}
 8001ef0:	080073b0 	.word	0x080073b0

08001ef4 <_ZN3hal7stm32f112gpio_manager6outputD0Ev>:
 8001ef4:	b510      	push	{r4, lr}
 8001ef6:	4604      	mov	r4, r0
 8001ef8:	2108      	movs	r1, #8
 8001efa:	f001 f981 	bl	8003200 <_ZdlPvj>
 8001efe:	4620      	mov	r0, r4
 8001f00:	bd10      	pop	{r4, pc}
 8001f02:	bf00      	nop

08001f04 <_ZN3hal8cortex_m11dwt_counterD0Ev>:
 8001f04:	b510      	push	{r4, lr}
 8001f06:	4604      	mov	r4, r0
 8001f08:	2110      	movs	r1, #16
 8001f0a:	f001 f979 	bl	8003200 <_ZdlPvj>
 8001f0e:	4620      	mov	r0, r4
 8001f10:	bd10      	pop	{r4, pc}
 8001f12:	bf00      	nop

08001f14 <_ZN3hal7stm32f112gpio_manager6output12driver_levelEb>:
 8001f14:	b508      	push	{r3, lr}
 8001f16:	7903      	ldrb	r3, [r0, #4]
 8001f18:	7942      	ldrb	r2, [r0, #5]
 8001f1a:	3b41      	subs	r3, #65	@ 0x41
 8001f1c:	b149      	cbz	r1, 8001f32 <_ZN3hal7stm32f112gpio_manager6output12driver_levelEb+0x1e>
 8001f1e:	2101      	movs	r1, #1
 8001f20:	2b07      	cmp	r3, #7
 8001f22:	fa01 f202 	lsl.w	r2, r1, r2
 8001f26:	d80a      	bhi.n	8001f3e <_ZN3hal7stm32f112gpio_manager6output12driver_levelEb+0x2a>
 8001f28:	4907      	ldr	r1, [pc, #28]	@ (8001f48 <_ZN3hal7stm32f112gpio_manager6output12driver_levelEb+0x34>)
 8001f2a:	f851 3023 	ldr.w	r3, [r1, r3, lsl #2]
 8001f2e:	611a      	str	r2, [r3, #16]
 8001f30:	bd08      	pop	{r3, pc}
 8001f32:	2101      	movs	r1, #1
 8001f34:	3210      	adds	r2, #16
 8001f36:	2b07      	cmp	r3, #7
 8001f38:	fa01 f202 	lsl.w	r2, r1, r2
 8001f3c:	d9f4      	bls.n	8001f28 <_ZN3hal7stm32f112gpio_manager6output12driver_levelEb+0x14>
 8001f3e:	2208      	movs	r2, #8
 8001f40:	4619      	mov	r1, r3
 8001f42:	4802      	ldr	r0, [pc, #8]	@ (8001f4c <_ZN3hal7stm32f112gpio_manager6output12driver_levelEb+0x38>)
 8001f44:	f7fe f8f6 	bl	8000134 <_ZSt24__throw_out_of_range_fmtPKcz>
 8001f48:	08007324 	.word	0x08007324
 8001f4c:	080078d4 	.word	0x080078d4

08001f50 <_ZN3hal7stm32f112gpio_manager6output12driver_levelEv>:
 8001f50:	b508      	push	{r3, lr}
 8001f52:	7901      	ldrb	r1, [r0, #4]
 8001f54:	3941      	subs	r1, #65	@ 0x41
 8001f56:	2907      	cmp	r1, #7
 8001f58:	d808      	bhi.n	8001f6c <_ZN3hal7stm32f112gpio_manager6output12driver_levelEv+0x1c>
 8001f5a:	4a06      	ldr	r2, [pc, #24]	@ (8001f74 <_ZN3hal7stm32f112gpio_manager6output12driver_levelEv+0x24>)
 8001f5c:	7943      	ldrb	r3, [r0, #5]
 8001f5e:	f852 2021 	ldr.w	r2, [r2, r1, lsl #2]
 8001f62:	6890      	ldr	r0, [r2, #8]
 8001f64:	40d8      	lsrs	r0, r3
 8001f66:	f000 0001 	and.w	r0, r0, #1
 8001f6a:	bd08      	pop	{r3, pc}
 8001f6c:	2208      	movs	r2, #8
 8001f6e:	4802      	ldr	r0, [pc, #8]	@ (8001f78 <_ZN3hal7stm32f112gpio_manager6output12driver_levelEv+0x28>)
 8001f70:	f7fe f8e0 	bl	8000134 <_ZSt24__throw_out_of_range_fmtPKcz>
 8001f74:	08007324 	.word	0x08007324
 8001f78:	080078d4 	.word	0x080078d4

08001f7c <_ZN3hal7stm32f113configure_pinENS0_10pin_selectENS0_12pin_config_tE>:
 8001f7c:	b530      	push	{r4, r5, lr}
 8001f7e:	f3c0 2207 	ubfx	r2, r0, #8, #8
 8001f82:	b083      	sub	sp, #12
 8001f84:	9100      	str	r1, [sp, #0]
 8001f86:	2a07      	cmp	r2, #7
 8001f88:	b2c1      	uxtb	r1, r0
 8001f8a:	f8ad 0004 	strh.w	r0, [sp, #4]
 8001f8e:	f1a1 0141 	sub.w	r1, r1, #65	@ 0x41
 8001f92:	d811      	bhi.n	8001fb8 <_ZN3hal7stm32f113configure_pinENS0_10pin_selectENS0_12pin_config_tE+0x3c>
 8001f94:	2907      	cmp	r1, #7
 8001f96:	f200 80be 	bhi.w	8002116 <_ZN3hal7stm32f113configure_pinENS0_10pin_selectENS0_12pin_config_tE+0x19a>
 8001f9a:	4b61      	ldr	r3, [pc, #388]	@ (8002120 <_ZN3hal7stm32f113configure_pinENS0_10pin_selectENS0_12pin_config_tE+0x1a4>)
 8001f9c:	4c61      	ldr	r4, [pc, #388]	@ (8002124 <_ZN3hal7stm32f113configure_pinENS0_10pin_selectENS0_12pin_config_tE+0x1a8>)
 8001f9e:	699d      	ldr	r5, [r3, #24]
 8001fa0:	f854 0021 	ldr.w	r0, [r4, r1, lsl #2]
 8001fa4:	07ed      	lsls	r5, r5, #31
 8001fa6:	d513      	bpl.n	8001fd0 <_ZN3hal7stm32f113configure_pinENS0_10pin_selectENS0_12pin_config_tE+0x54>
 8001fa8:	2904      	cmp	r1, #4
 8001faa:	f200 80a6 	bhi.w	80020fa <_ZN3hal7stm32f113configure_pinENS0_10pin_selectENS0_12pin_config_tE+0x17e>
 8001fae:	e8df f001 	tbb	[pc, r1]
 8001fb2:	333c      	.short	0x333c
 8001fb4:	212a      	.short	0x212a
 8001fb6:	18          	.byte	0x18
 8001fb7:	00          	.byte	0x00
 8001fb8:	2907      	cmp	r1, #7
 8001fba:	f200 80ac 	bhi.w	8002116 <_ZN3hal7stm32f113configure_pinENS0_10pin_selectENS0_12pin_config_tE+0x19a>
 8001fbe:	4b58      	ldr	r3, [pc, #352]	@ (8002120 <_ZN3hal7stm32f113configure_pinENS0_10pin_selectENS0_12pin_config_tE+0x1a4>)
 8001fc0:	4c58      	ldr	r4, [pc, #352]	@ (8002124 <_ZN3hal7stm32f113configure_pinENS0_10pin_selectENS0_12pin_config_tE+0x1a8>)
 8001fc2:	699d      	ldr	r5, [r3, #24]
 8001fc4:	f854 0021 	ldr.w	r0, [r4, r1, lsl #2]
 8001fc8:	07ed      	lsls	r5, r5, #31
 8001fca:	f100 0004 	add.w	r0, r0, #4
 8001fce:	d4eb      	bmi.n	8001fa8 <_ZN3hal7stm32f113configure_pinENS0_10pin_selectENS0_12pin_config_tE+0x2c>
 8001fd0:	699d      	ldr	r5, [r3, #24]
 8001fd2:	07ed      	lsls	r5, r5, #31
 8001fd4:	f100 808f 	bmi.w	80020f6 <_ZN3hal7stm32f113configure_pinENS0_10pin_selectENS0_12pin_config_tE+0x17a>
 8001fd8:	699d      	ldr	r5, [r3, #24]
 8001fda:	f045 0501 	orr.w	r5, r5, #1
 8001fde:	619d      	str	r5, [r3, #24]
 8001fe0:	e7e2      	b.n	8001fa8 <_ZN3hal7stm32f113configure_pinENS0_10pin_selectENS0_12pin_config_tE+0x2c>
 8001fe2:	4b4f      	ldr	r3, [pc, #316]	@ (8002120 <_ZN3hal7stm32f113configure_pinENS0_10pin_selectENS0_12pin_config_tE+0x1a4>)
 8001fe4:	699d      	ldr	r5, [r3, #24]
 8001fe6:	066d      	lsls	r5, r5, #25
 8001fe8:	d561      	bpl.n	80020ae <_ZN3hal7stm32f113configure_pinENS0_10pin_selectENS0_12pin_config_tE+0x132>
 8001fea:	2a07      	cmp	r2, #7
 8001fec:	d97d      	bls.n	80020ea <_ZN3hal7stm32f113configure_pinENS0_10pin_selectENS0_12pin_config_tE+0x16e>
 8001fee:	f5a3 4378 	sub.w	r3, r3, #63488	@ 0xf800
 8001ff2:	e022      	b.n	800203a <_ZN3hal7stm32f113configure_pinENS0_10pin_selectENS0_12pin_config_tE+0xbe>
 8001ff4:	4b4a      	ldr	r3, [pc, #296]	@ (8002120 <_ZN3hal7stm32f113configure_pinENS0_10pin_selectENS0_12pin_config_tE+0x1a4>)
 8001ff6:	699d      	ldr	r5, [r3, #24]
 8001ff8:	06ad      	lsls	r5, r5, #26
 8001ffa:	d568      	bpl.n	80020ce <_ZN3hal7stm32f113configure_pinENS0_10pin_selectENS0_12pin_config_tE+0x152>
 8001ffc:	2a07      	cmp	r2, #7
 8001ffe:	d970      	bls.n	80020e2 <_ZN3hal7stm32f113configure_pinENS0_10pin_selectENS0_12pin_config_tE+0x166>
 8002000:	f5a3 437c 	sub.w	r3, r3, #64512	@ 0xfc00
 8002004:	e019      	b.n	800203a <_ZN3hal7stm32f113configure_pinENS0_10pin_selectENS0_12pin_config_tE+0xbe>
 8002006:	4b46      	ldr	r3, [pc, #280]	@ (8002120 <_ZN3hal7stm32f113configure_pinENS0_10pin_selectENS0_12pin_config_tE+0x1a4>)
 8002008:	699d      	ldr	r5, [r3, #24]
 800200a:	06ed      	lsls	r5, r5, #27
 800200c:	d557      	bpl.n	80020be <_ZN3hal7stm32f113configure_pinENS0_10pin_selectENS0_12pin_config_tE+0x142>
 800200e:	2a07      	cmp	r2, #7
 8002010:	d965      	bls.n	80020de <_ZN3hal7stm32f113configure_pinENS0_10pin_selectENS0_12pin_config_tE+0x162>
 8002012:	f5a3 3380 	sub.w	r3, r3, #65536	@ 0x10000
 8002016:	e010      	b.n	800203a <_ZN3hal7stm32f113configure_pinENS0_10pin_selectENS0_12pin_config_tE+0xbe>
 8002018:	4b41      	ldr	r3, [pc, #260]	@ (8002120 <_ZN3hal7stm32f113configure_pinENS0_10pin_selectENS0_12pin_config_tE+0x1a4>)
 800201a:	699d      	ldr	r5, [r3, #24]
 800201c:	072d      	lsls	r5, r5, #28
 800201e:	d53e      	bpl.n	800209e <_ZN3hal7stm32f113configure_pinENS0_10pin_selectENS0_12pin_config_tE+0x122>
 8002020:	2a07      	cmp	r2, #7
 8002022:	d964      	bls.n	80020ee <_ZN3hal7stm32f113configure_pinENS0_10pin_selectENS0_12pin_config_tE+0x172>
 8002024:	f5a3 3382 	sub.w	r3, r3, #66560	@ 0x10400
 8002028:	e007      	b.n	800203a <_ZN3hal7stm32f113configure_pinENS0_10pin_selectENS0_12pin_config_tE+0xbe>
 800202a:	4b3d      	ldr	r3, [pc, #244]	@ (8002120 <_ZN3hal7stm32f113configure_pinENS0_10pin_selectENS0_12pin_config_tE+0x1a4>)
 800202c:	699d      	ldr	r5, [r3, #24]
 800202e:	076d      	lsls	r5, r5, #29
 8002030:	d529      	bpl.n	8002086 <_ZN3hal7stm32f113configure_pinENS0_10pin_selectENS0_12pin_config_tE+0x10a>
 8002032:	2a07      	cmp	r2, #7
 8002034:	d957      	bls.n	80020e6 <_ZN3hal7stm32f113configure_pinENS0_10pin_selectENS0_12pin_config_tE+0x16a>
 8002036:	f5a3 3384 	sub.w	r3, r3, #67584	@ 0x10800
 800203a:	3304      	adds	r3, #4
 800203c:	681b      	ldr	r3, [r3, #0]
 800203e:	0092      	lsls	r2, r2, #2
 8002040:	f002 021c 	and.w	r2, r2, #28
 8002044:	40d3      	lsrs	r3, r2
 8002046:	f003 030f 	and.w	r3, r3, #15
 800204a:	2b04      	cmp	r3, #4
 800204c:	d151      	bne.n	80020f2 <_ZN3hal7stm32f113configure_pinENS0_10pin_selectENS0_12pin_config_tE+0x176>
 800204e:	f04f 0c0f 	mov.w	ip, #15
 8002052:	f89d 3001 	ldrb.w	r3, [sp, #1]
 8002056:	f89d 1000 	ldrb.w	r1, [sp]
 800205a:	009b      	lsls	r3, r3, #2
 800205c:	00c9      	lsls	r1, r1, #3
 800205e:	f001 0108 	and.w	r1, r1, #8
 8002062:	f003 0304 	and.w	r3, r3, #4
 8002066:	430b      	orrs	r3, r1
 8002068:	f89d 1002 	ldrb.w	r1, [sp, #2]
 800206c:	6804      	ldr	r4, [r0, #0]
 800206e:	f001 0103 	and.w	r1, r1, #3
 8002072:	430b      	orrs	r3, r1
 8002074:	4093      	lsls	r3, r2
 8002076:	4063      	eors	r3, r4
 8002078:	fa0c f202 	lsl.w	r2, ip, r2
 800207c:	4013      	ands	r3, r2
 800207e:	4063      	eors	r3, r4
 8002080:	6003      	str	r3, [r0, #0]
 8002082:	b003      	add	sp, #12
 8002084:	bd30      	pop	{r4, r5, pc}
 8002086:	699d      	ldr	r5, [r3, #24]
 8002088:	076d      	lsls	r5, r5, #29
 800208a:	d434      	bmi.n	80020f6 <_ZN3hal7stm32f113configure_pinENS0_10pin_selectENS0_12pin_config_tE+0x17a>
 800208c:	699d      	ldr	r5, [r3, #24]
 800208e:	f045 0504 	orr.w	r5, r5, #4
 8002092:	619d      	str	r5, [r3, #24]
 8002094:	2a07      	cmp	r2, #7
 8002096:	f854 3021 	ldr.w	r3, [r4, r1, lsl #2]
 800209a:	d8ce      	bhi.n	800203a <_ZN3hal7stm32f113configure_pinENS0_10pin_selectENS0_12pin_config_tE+0xbe>
 800209c:	e7ce      	b.n	800203c <_ZN3hal7stm32f113configure_pinENS0_10pin_selectENS0_12pin_config_tE+0xc0>
 800209e:	699d      	ldr	r5, [r3, #24]
 80020a0:	072d      	lsls	r5, r5, #28
 80020a2:	d428      	bmi.n	80020f6 <_ZN3hal7stm32f113configure_pinENS0_10pin_selectENS0_12pin_config_tE+0x17a>
 80020a4:	699d      	ldr	r5, [r3, #24]
 80020a6:	f045 0508 	orr.w	r5, r5, #8
 80020aa:	619d      	str	r5, [r3, #24]
 80020ac:	e7f2      	b.n	8002094 <_ZN3hal7stm32f113configure_pinENS0_10pin_selectENS0_12pin_config_tE+0x118>
 80020ae:	699d      	ldr	r5, [r3, #24]
 80020b0:	066d      	lsls	r5, r5, #25
 80020b2:	d420      	bmi.n	80020f6 <_ZN3hal7stm32f113configure_pinENS0_10pin_selectENS0_12pin_config_tE+0x17a>
 80020b4:	699d      	ldr	r5, [r3, #24]
 80020b6:	f045 0540 	orr.w	r5, r5, #64	@ 0x40
 80020ba:	619d      	str	r5, [r3, #24]
 80020bc:	e7ea      	b.n	8002094 <_ZN3hal7stm32f113configure_pinENS0_10pin_selectENS0_12pin_config_tE+0x118>
 80020be:	699d      	ldr	r5, [r3, #24]
 80020c0:	06ed      	lsls	r5, r5, #27
 80020c2:	d418      	bmi.n	80020f6 <_ZN3hal7stm32f113configure_pinENS0_10pin_selectENS0_12pin_config_tE+0x17a>
 80020c4:	699d      	ldr	r5, [r3, #24]
 80020c6:	f045 0510 	orr.w	r5, r5, #16
 80020ca:	619d      	str	r5, [r3, #24]
 80020cc:	e7e2      	b.n	8002094 <_ZN3hal7stm32f113configure_pinENS0_10pin_selectENS0_12pin_config_tE+0x118>
 80020ce:	699d      	ldr	r5, [r3, #24]
 80020d0:	06ad      	lsls	r5, r5, #26
 80020d2:	d410      	bmi.n	80020f6 <_ZN3hal7stm32f113configure_pinENS0_10pin_selectENS0_12pin_config_tE+0x17a>
 80020d4:	699d      	ldr	r5, [r3, #24]
 80020d6:	f045 0520 	orr.w	r5, r5, #32
 80020da:	619d      	str	r5, [r3, #24]
 80020dc:	e7da      	b.n	8002094 <_ZN3hal7stm32f113configure_pinENS0_10pin_selectENS0_12pin_config_tE+0x118>
 80020de:	4b12      	ldr	r3, [pc, #72]	@ (8002128 <_ZN3hal7stm32f113configure_pinENS0_10pin_selectENS0_12pin_config_tE+0x1ac>)
 80020e0:	e7ac      	b.n	800203c <_ZN3hal7stm32f113configure_pinENS0_10pin_selectENS0_12pin_config_tE+0xc0>
 80020e2:	4b12      	ldr	r3, [pc, #72]	@ (800212c <_ZN3hal7stm32f113configure_pinENS0_10pin_selectENS0_12pin_config_tE+0x1b0>)
 80020e4:	e7aa      	b.n	800203c <_ZN3hal7stm32f113configure_pinENS0_10pin_selectENS0_12pin_config_tE+0xc0>
 80020e6:	4b12      	ldr	r3, [pc, #72]	@ (8002130 <_ZN3hal7stm32f113configure_pinENS0_10pin_selectENS0_12pin_config_tE+0x1b4>)
 80020e8:	e7a8      	b.n	800203c <_ZN3hal7stm32f113configure_pinENS0_10pin_selectENS0_12pin_config_tE+0xc0>
 80020ea:	4b12      	ldr	r3, [pc, #72]	@ (8002134 <_ZN3hal7stm32f113configure_pinENS0_10pin_selectENS0_12pin_config_tE+0x1b8>)
 80020ec:	e7a6      	b.n	800203c <_ZN3hal7stm32f113configure_pinENS0_10pin_selectENS0_12pin_config_tE+0xc0>
 80020ee:	4b12      	ldr	r3, [pc, #72]	@ (8002138 <_ZN3hal7stm32f113configure_pinENS0_10pin_selectENS0_12pin_config_tE+0x1bc>)
 80020f0:	e7a4      	b.n	800203c <_ZN3hal7stm32f113configure_pinENS0_10pin_selectENS0_12pin_config_tE+0xc0>
 80020f2:	f7fd ffad 	bl	8000050 <_ZN3hal7stm32f127throw_if_pin_is_unavailableENS0_10pin_selectE.part.0>
 80020f6:	f7fd ffab 	bl	8000050 <_ZN3hal7stm32f127throw_if_pin_is_unavailableENS0_10pin_selectE.part.0>
 80020fa:	2018      	movs	r0, #24
 80020fc:	f000 fec8 	bl	8002e90 <__wrap___cxa_allocate_exception>
 8002100:	2421      	movs	r4, #33	@ 0x21
 8002102:	2200      	movs	r2, #0
 8002104:	490d      	ldr	r1, [pc, #52]	@ (800213c <_ZN3hal7stm32f113configure_pinENS0_10pin_selectENS0_12pin_config_tE+0x1c0>)
 8002106:	e9c0 2400 	strd	r2, r4, [r0]
 800210a:	e9c0 2202 	strd	r2, r2, [r0, #8]
 800210e:	e9c0 2204 	strd	r2, r2, [r0, #16]
 8002112:	f000 fe13 	bl	8002d3c <__wrap___cxa_throw>
 8002116:	2208      	movs	r2, #8
 8002118:	4809      	ldr	r0, [pc, #36]	@ (8002140 <_ZN3hal7stm32f113configure_pinENS0_10pin_selectENS0_12pin_config_tE+0x1c4>)
 800211a:	f7fe f80b 	bl	8000134 <_ZSt24__throw_out_of_range_fmtPKcz>
 800211e:	bf00      	nop
 8002120:	40021000 	.word	0x40021000
 8002124:	08007324 	.word	0x08007324
 8002128:	40011000 	.word	0x40011000
 800212c:	40011400 	.word	0x40011400
 8002130:	40010800 	.word	0x40010800
 8002134:	40011800 	.word	0x40011800
 8002138:	40010c00 	.word	0x40010c00
 800213c:	08007310 	.word	0x08007310
 8002140:	080078d4 	.word	0x080078d4

08002144 <_ZN3hal7stm32f112gpio_manager6output16driver_configureERKNS_10output_pin8settingsE>:
 8002144:	7943      	ldrb	r3, [r0, #5]
 8002146:	f890 c004 	ldrb.w	ip, [r0, #4]
 800214a:	2b07      	cmp	r3, #7
 800214c:	b570      	push	{r4, r5, r6, lr}
 800214e:	f1ac 0c41 	sub.w	ip, ip, #65	@ 0x41
 8002152:	d81c      	bhi.n	800218e <_ZN3hal7stm32f112gpio_manager6output16driver_configureERKNS_10output_pin8settingsE+0x4a>
 8002154:	f1bc 0f07 	cmp.w	ip, #7
 8002158:	d828      	bhi.n	80021ac <_ZN3hal7stm32f112gpio_manager6output16driver_configureERKNS_10output_pin8settingsE+0x68>
 800215a:	4a17      	ldr	r2, [pc, #92]	@ (80021b8 <_ZN3hal7stm32f112gpio_manager6output16driver_configureERKNS_10output_pin8settingsE+0x74>)
 800215c:	f852 402c 	ldr.w	r4, [r2, ip, lsl #2]
 8002160:	009b      	lsls	r3, r3, #2
 8002162:	f003 021c 	and.w	r2, r3, #28
 8002166:	2304      	movs	r3, #4
 8002168:	790e      	ldrb	r6, [r1, #4]
 800216a:	210f      	movs	r1, #15
 800216c:	6825      	ldr	r5, [r4, #0]
 800216e:	4093      	lsls	r3, r2
 8002170:	406b      	eors	r3, r5
 8002172:	fa01 f202 	lsl.w	r2, r1, r2
 8002176:	4013      	ands	r3, r2
 8002178:	406b      	eors	r3, r5
 800217a:	6023      	str	r3, [r4, #0]
 800217c:	6023      	str	r3, [r4, #0]
 800217e:	b176      	cbz	r6, 800219e <_ZN3hal7stm32f112gpio_manager6output16driver_configureERKNS_10output_pin8settingsE+0x5a>
 8002180:	e8bd 4070 	ldmia.w	sp!, {r4, r5, r6, lr}
 8002184:	4b0d      	ldr	r3, [pc, #52]	@ (80021bc <_ZN3hal7stm32f112gpio_manager6output16driver_configureERKNS_10output_pin8settingsE+0x78>)
 8002186:	6840      	ldr	r0, [r0, #4]
 8002188:	6819      	ldr	r1, [r3, #0]
 800218a:	f7ff bef7 	b.w	8001f7c <_ZN3hal7stm32f113configure_pinENS0_10pin_selectENS0_12pin_config_tE>
 800218e:	f1bc 0f07 	cmp.w	ip, #7
 8002192:	d80b      	bhi.n	80021ac <_ZN3hal7stm32f112gpio_manager6output16driver_configureERKNS_10output_pin8settingsE+0x68>
 8002194:	4a08      	ldr	r2, [pc, #32]	@ (80021b8 <_ZN3hal7stm32f112gpio_manager6output16driver_configureERKNS_10output_pin8settingsE+0x74>)
 8002196:	f852 402c 	ldr.w	r4, [r2, ip, lsl #2]
 800219a:	3404      	adds	r4, #4
 800219c:	e7e0      	b.n	8002160 <_ZN3hal7stm32f112gpio_manager6output16driver_configureERKNS_10output_pin8settingsE+0x1c>
 800219e:	4b08      	ldr	r3, [pc, #32]	@ (80021c0 <_ZN3hal7stm32f112gpio_manager6output16driver_configureERKNS_10output_pin8settingsE+0x7c>)
 80021a0:	6840      	ldr	r0, [r0, #4]
 80021a2:	6819      	ldr	r1, [r3, #0]
 80021a4:	e8bd 4070 	ldmia.w	sp!, {r4, r5, r6, lr}
 80021a8:	f7ff bee8 	b.w	8001f7c <_ZN3hal7stm32f113configure_pinENS0_10pin_selectENS0_12pin_config_tE>
 80021ac:	2208      	movs	r2, #8
 80021ae:	4661      	mov	r1, ip
 80021b0:	4804      	ldr	r0, [pc, #16]	@ (80021c4 <_ZN3hal7stm32f112gpio_manager6output16driver_configureERKNS_10output_pin8settingsE+0x80>)
 80021b2:	f7fd ffbf 	bl	8000134 <_ZSt24__throw_out_of_range_fmtPKcz>
 80021b6:	bf00      	nop
 80021b8:	08007324 	.word	0x08007324
 80021bc:	0800731c 	.word	0x0800731c
 80021c0:	08007320 	.word	0x08007320
 80021c4:	080078d4 	.word	0x080078d4

080021c8 <_ZN3hal7stm32f14uartD1Ev>:
 80021c8:	b538      	push	{r3, r4, r5, lr}
 80021ca:	7d03      	ldrb	r3, [r0, #20]
 80021cc:	4a21      	ldr	r2, [pc, #132]	@ (8002254 <_ZN3hal7stm32f14uartD1Ev+0x8c>)
 80021ce:	7cc1      	ldrb	r1, [r0, #19]
 80021d0:	2b07      	cmp	r3, #7
 80021d2:	6002      	str	r2, [r0, #0]
 80021d4:	f1a1 0141 	sub.w	r1, r1, #65	@ 0x41
 80021d8:	d82b      	bhi.n	8002232 <_ZN3hal7stm32f14uartD1Ev+0x6a>
 80021da:	2907      	cmp	r1, #7
 80021dc:	d836      	bhi.n	800224c <_ZN3hal7stm32f14uartD1Ev+0x84>
 80021de:	4c1e      	ldr	r4, [pc, #120]	@ (8002258 <_ZN3hal7stm32f14uartD1Ev+0x90>)
 80021e0:	f854 1021 	ldr.w	r1, [r4, r1, lsl #2]
 80021e4:	009b      	lsls	r3, r3, #2
 80021e6:	f003 021c 	and.w	r2, r3, #28
 80021ea:	2304      	movs	r3, #4
 80021ec:	f04f 0c0f 	mov.w	ip, #15
 80021f0:	680d      	ldr	r5, [r1, #0]
 80021f2:	4093      	lsls	r3, r2
 80021f4:	406b      	eors	r3, r5
 80021f6:	fa0c f202 	lsl.w	r2, ip, r2
 80021fa:	4013      	ands	r3, r2
 80021fc:	406b      	eors	r3, r5
 80021fe:	600b      	str	r3, [r1, #0]
 8002200:	600b      	str	r3, [r1, #0]
 8002202:	7d82      	ldrb	r2, [r0, #22]
 8002204:	7d41      	ldrb	r1, [r0, #21]
 8002206:	2a07      	cmp	r2, #7
 8002208:	f1a1 0141 	sub.w	r1, r1, #65	@ 0x41
 800220c:	d818      	bhi.n	8002240 <_ZN3hal7stm32f14uartD1Ev+0x78>
 800220e:	2907      	cmp	r1, #7
 8002210:	d81c      	bhi.n	800224c <_ZN3hal7stm32f14uartD1Ev+0x84>
 8002212:	f854 1021 	ldr.w	r1, [r4, r1, lsl #2]
 8002216:	2304      	movs	r3, #4
 8002218:	240f      	movs	r4, #15
 800221a:	0092      	lsls	r2, r2, #2
 800221c:	680d      	ldr	r5, [r1, #0]
 800221e:	f002 021c 	and.w	r2, r2, #28
 8002222:	4093      	lsls	r3, r2
 8002224:	4094      	lsls	r4, r2
 8002226:	406b      	eors	r3, r5
 8002228:	4023      	ands	r3, r4
 800222a:	406b      	eors	r3, r5
 800222c:	600b      	str	r3, [r1, #0]
 800222e:	600b      	str	r3, [r1, #0]
 8002230:	bd38      	pop	{r3, r4, r5, pc}
 8002232:	2907      	cmp	r1, #7
 8002234:	d80a      	bhi.n	800224c <_ZN3hal7stm32f14uartD1Ev+0x84>
 8002236:	4c08      	ldr	r4, [pc, #32]	@ (8002258 <_ZN3hal7stm32f14uartD1Ev+0x90>)
 8002238:	f854 1021 	ldr.w	r1, [r4, r1, lsl #2]
 800223c:	3104      	adds	r1, #4
 800223e:	e7d1      	b.n	80021e4 <_ZN3hal7stm32f14uartD1Ev+0x1c>
 8002240:	2907      	cmp	r1, #7
 8002242:	d803      	bhi.n	800224c <_ZN3hal7stm32f14uartD1Ev+0x84>
 8002244:	f854 1021 	ldr.w	r1, [r4, r1, lsl #2]
 8002248:	3104      	adds	r1, #4
 800224a:	e7e4      	b.n	8002216 <_ZN3hal7stm32f14uartD1Ev+0x4e>
 800224c:	2208      	movs	r2, #8
 800224e:	4803      	ldr	r0, [pc, #12]	@ (800225c <_ZN3hal7stm32f14uartD1Ev+0x94>)
 8002250:	f7fd ff70 	bl	8000134 <_ZSt24__throw_out_of_range_fmtPKcz>
 8002254:	08007388 	.word	0x08007388
 8002258:	08007324 	.word	0x08007324
 800225c:	080078d4 	.word	0x080078d4

08002260 <_ZN3hal7stm32f14uartD0Ev>:
 8002260:	b570      	push	{r4, r5, r6, lr}
 8002262:	7d03      	ldrb	r3, [r0, #20]
 8002264:	4a25      	ldr	r2, [pc, #148]	@ (80022fc <_ZN3hal7stm32f14uartD0Ev+0x9c>)
 8002266:	7cc1      	ldrb	r1, [r0, #19]
 8002268:	2b07      	cmp	r3, #7
 800226a:	4604      	mov	r4, r0
 800226c:	6002      	str	r2, [r0, #0]
 800226e:	f1a1 0141 	sub.w	r1, r1, #65	@ 0x41
 8002272:	d831      	bhi.n	80022d8 <_ZN3hal7stm32f14uartD0Ev+0x78>
 8002274:	2907      	cmp	r1, #7
 8002276:	d83c      	bhi.n	80022f2 <_ZN3hal7stm32f14uartD0Ev+0x92>
 8002278:	4821      	ldr	r0, [pc, #132]	@ (8002300 <_ZN3hal7stm32f14uartD0Ev+0xa0>)
 800227a:	f850 1021 	ldr.w	r1, [r0, r1, lsl #2]
 800227e:	009b      	lsls	r3, r3, #2
 8002280:	f003 021c 	and.w	r2, r3, #28
 8002284:	2304      	movs	r3, #4
 8002286:	250f      	movs	r5, #15
 8002288:	680e      	ldr	r6, [r1, #0]
 800228a:	4093      	lsls	r3, r2
 800228c:	4073      	eors	r3, r6
 800228e:	fa05 f202 	lsl.w	r2, r5, r2
 8002292:	4013      	ands	r3, r2
 8002294:	4073      	eors	r3, r6
 8002296:	600b      	str	r3, [r1, #0]
 8002298:	600b      	str	r3, [r1, #0]
 800229a:	7da2      	ldrb	r2, [r4, #22]
 800229c:	7d61      	ldrb	r1, [r4, #21]
 800229e:	2a07      	cmp	r2, #7
 80022a0:	f1a1 0141 	sub.w	r1, r1, #65	@ 0x41
 80022a4:	d81f      	bhi.n	80022e6 <_ZN3hal7stm32f14uartD0Ev+0x86>
 80022a6:	2907      	cmp	r1, #7
 80022a8:	d823      	bhi.n	80022f2 <_ZN3hal7stm32f14uartD0Ev+0x92>
 80022aa:	f850 5021 	ldr.w	r5, [r0, r1, lsl #2]
 80022ae:	2304      	movs	r3, #4
 80022b0:	f04f 0c0f 	mov.w	ip, #15
 80022b4:	0092      	lsls	r2, r2, #2
 80022b6:	682e      	ldr	r6, [r5, #0]
 80022b8:	f002 021c 	and.w	r2, r2, #28
 80022bc:	4093      	lsls	r3, r2
 80022be:	4073      	eors	r3, r6
 80022c0:	fa0c f202 	lsl.w	r2, ip, r2
 80022c4:	4013      	ands	r3, r2
 80022c6:	4073      	eors	r3, r6
 80022c8:	4620      	mov	r0, r4
 80022ca:	602b      	str	r3, [r5, #0]
 80022cc:	2118      	movs	r1, #24
 80022ce:	602b      	str	r3, [r5, #0]
 80022d0:	f000 ff96 	bl	8003200 <_ZdlPvj>
 80022d4:	4620      	mov	r0, r4
 80022d6:	bd70      	pop	{r4, r5, r6, pc}
 80022d8:	2907      	cmp	r1, #7
 80022da:	d80a      	bhi.n	80022f2 <_ZN3hal7stm32f14uartD0Ev+0x92>
 80022dc:	4808      	ldr	r0, [pc, #32]	@ (8002300 <_ZN3hal7stm32f14uartD0Ev+0xa0>)
 80022de:	f850 1021 	ldr.w	r1, [r0, r1, lsl #2]
 80022e2:	3104      	adds	r1, #4
 80022e4:	e7cb      	b.n	800227e <_ZN3hal7stm32f14uartD0Ev+0x1e>
 80022e6:	2907      	cmp	r1, #7
 80022e8:	d803      	bhi.n	80022f2 <_ZN3hal7stm32f14uartD0Ev+0x92>
 80022ea:	f850 5021 	ldr.w	r5, [r0, r1, lsl #2]
 80022ee:	3504      	adds	r5, #4
 80022f0:	e7dd      	b.n	80022ae <_ZN3hal7stm32f14uartD0Ev+0x4e>
 80022f2:	2208      	movs	r2, #8
 80022f4:	4803      	ldr	r0, [pc, #12]	@ (8002304 <_ZN3hal7stm32f14uartD0Ev+0xa4>)
 80022f6:	f7fd ff1d 	bl	8000134 <_ZSt24__throw_out_of_range_fmtPKcz>
 80022fa:	bf00      	nop
 80022fc:	08007388 	.word	0x08007388
 8002300:	08007324 	.word	0x08007324
 8002304:	080078d4 	.word	0x080078d4

08002308 <_ZN3hal7stm32f14uart16driver_configureERKNS_6serial8settingsE>:
 8002308:	b5f8      	push	{r3, r4, r5, r6, r7, lr}
 800230a:	7dc2      	ldrb	r2, [r0, #23]
 800230c:	460e      	mov	r6, r1
 800230e:	1f13      	subs	r3, r2, #4
 8002310:	6845      	ldr	r5, [r0, #4]
 8002312:	2b5e      	cmp	r3, #94	@ 0x5e
 8002314:	d831      	bhi.n	800237a <_ZN3hal7stm32f14uart16driver_configureERKNS_6serial8settingsE+0x72>
 8002316:	e8df f003 	tbb	[pc, r3]
 800231a:	3097      	.short	0x3097
 800231c:	30303030 	.word	0x30303030
 8002320:	30303030 	.word	0x30303030
 8002324:	30303030 	.word	0x30303030
 8002328:	30303030 	.word	0x30303030
 800232c:	30303030 	.word	0x30303030
 8002330:	30303030 	.word	0x30303030
 8002334:	3b3b3030 	.word	0x3b3b3030
 8002338:	3b3b3b3b 	.word	0x3b3b3b3b
 800233c:	303b3b3b 	.word	0x303b3b3b
 8002340:	30303030 	.word	0x30303030
 8002344:	30303030 	.word	0x30303030
 8002348:	30303030 	.word	0x30303030
 800234c:	30309130 	.word	0x30309130
 8002350:	30303030 	.word	0x30303030
 8002354:	30303030 	.word	0x30303030
 8002358:	30303030 	.word	0x30303030
 800235c:	88303030 	.word	0x88303030
 8002360:	85308588 	.word	0x85308588
 8002364:	30308830 	.word	0x30308830
 8002368:	85858530 	.word	0x85858530
 800236c:	30303030 	.word	0x30303030
 8002370:	30303030 	.word	0x30303030
 8002374:	8b8b3030 	.word	0x8b8b3030
 8002378:	8e          	.byte	0x8e
 8002379:	00          	.byte	0x00
 800237a:	2a1f      	cmp	r2, #31
 800237c:	d958      	bls.n	8002430 <_ZN3hal7stm32f14uart16driver_configureERKNS_6serial8settingsE+0x128>
 800237e:	f1a2 0320 	sub.w	r3, r2, #32
 8002382:	2b1f      	cmp	r3, #31
 8002384:	d962      	bls.n	800244c <_ZN3hal7stm32f14uart16driver_configureERKNS_6serial8settingsE+0x144>
 8002386:	3a40      	subs	r2, #64	@ 0x40
 8002388:	2a1f      	cmp	r2, #31
 800238a:	d95a      	bls.n	8002442 <_ZN3hal7stm32f14uart16driver_configureERKNS_6serial8settingsE+0x13a>
 800238c:	2400      	movs	r4, #0
 800238e:	e001      	b.n	8002394 <_ZN3hal7stm32f14uart16driver_configureERKNS_6serial8settingsE+0x8c>
 8002390:	4b30      	ldr	r3, [pc, #192]	@ (8002454 <_ZN3hal7stm32f14uart16driver_configureERKNS_6serial8settingsE+0x14c>)
 8002392:	681c      	ldr	r4, [r3, #0]
 8002394:	f04f 4183 	mov.w	r1, #1098907648	@ 0x41800000
 8002398:	6830      	ldr	r0, [r6, #0]
 800239a:	f002 fbfd 	bl	8004b98 <__aeabi_fmul>
 800239e:	4601      	mov	r1, r0
 80023a0:	4620      	mov	r0, r4
 80023a2:	f002 fcad 	bl	8004d00 <__aeabi_fdiv>
 80023a6:	4607      	mov	r7, r0
 80023a8:	f002 fbd6 	bl	8004b58 <__aeabi_f2uiz>
 80023ac:	b284      	uxth	r4, r0
 80023ae:	4620      	mov	r0, r4
 80023b0:	f002 fb7a 	bl	8004aa8 <__aeabi_ui2f>
 80023b4:	4601      	mov	r1, r0
 80023b6:	4638      	mov	r0, r7
 80023b8:	f002 fac4 	bl	8004944 <__aeabi_fsub>
 80023bc:	f04f 4183 	mov.w	r1, #1098907648	@ 0x41800000
 80023c0:	f002 fbea 	bl	8004b98 <__aeabi_fmul>
 80023c4:	f004 fa34 	bl	8006830 <roundf>
 80023c8:	f002 fbc6 	bl	8004b58 <__aeabi_f2uiz>
 80023cc:	b280      	uxth	r0, r0
 80023ce:	280f      	cmp	r0, #15
 80023d0:	d902      	bls.n	80023d8 <_ZN3hal7stm32f14uart16driver_configureERKNS_6serial8settingsE+0xd0>
 80023d2:	2000      	movs	r0, #0
 80023d4:	3401      	adds	r4, #1
 80023d6:	b2a4      	uxth	r4, r4
 80023d8:	0124      	lsls	r4, r4, #4
 80023da:	b2a4      	uxth	r4, r4
 80023dc:	4304      	orrs	r4, r0
 80023de:	60ac      	str	r4, [r5, #8]
 80023e0:	7972      	ldrb	r2, [r6, #5]
 80023e2:	7931      	ldrb	r1, [r6, #4]
 80023e4:	1e10      	subs	r0, r2, #0
 80023e6:	bf18      	it	ne
 80023e8:	2001      	movne	r0, #1
 80023ea:	f1a2 0201 	sub.w	r2, r2, #1
 80023ee:	fab2 f282 	clz	r2, r2
 80023f2:	f1a1 0101 	sub.w	r1, r1, #1
 80023f6:	fab1 f181 	clz	r1, r1
 80023fa:	68eb      	ldr	r3, [r5, #12]
 80023fc:	0952      	lsrs	r2, r2, #5
 80023fe:	f423 6380 	bic.w	r3, r3, #1024	@ 0x400
 8002402:	ea43 2380 	orr.w	r3, r3, r0, lsl #10
 8002406:	f423 7300 	bic.w	r3, r3, #512	@ 0x200
 800240a:	ea43 2342 	orr.w	r3, r3, r2, lsl #9
 800240e:	f423 5380 	bic.w	r3, r3, #4096	@ 0x1000
 8002412:	60eb      	str	r3, [r5, #12]
 8002414:	692b      	ldr	r3, [r5, #16]
 8002416:	0949      	lsrs	r1, r1, #5
 8002418:	f423 5340 	bic.w	r3, r3, #12288	@ 0x3000
 800241c:	ea43 3341 	orr.w	r3, r3, r1, lsl #13
 8002420:	612b      	str	r3, [r5, #16]
 8002422:	bdf8      	pop	{r3, r4, r5, r6, r7, pc}
 8002424:	4b0c      	ldr	r3, [pc, #48]	@ (8002458 <_ZN3hal7stm32f14uart16driver_configureERKNS_6serial8settingsE+0x150>)
 8002426:	681c      	ldr	r4, [r3, #0]
 8002428:	e7b4      	b.n	8002394 <_ZN3hal7stm32f14uart16driver_configureERKNS_6serial8settingsE+0x8c>
 800242a:	4b0c      	ldr	r3, [pc, #48]	@ (800245c <_ZN3hal7stm32f14uart16driver_configureERKNS_6serial8settingsE+0x154>)
 800242c:	681c      	ldr	r4, [r3, #0]
 800242e:	e7b1      	b.n	8002394 <_ZN3hal7stm32f14uart16driver_configureERKNS_6serial8settingsE+0x8c>
 8002430:	4b0b      	ldr	r3, [pc, #44]	@ (8002460 <_ZN3hal7stm32f14uart16driver_configureERKNS_6serial8settingsE+0x158>)
 8002432:	681c      	ldr	r4, [r3, #0]
 8002434:	e7ae      	b.n	8002394 <_ZN3hal7stm32f14uart16driver_configureERKNS_6serial8settingsE+0x8c>
 8002436:	4b0b      	ldr	r3, [pc, #44]	@ (8002464 <_ZN3hal7stm32f14uart16driver_configureERKNS_6serial8settingsE+0x15c>)
 8002438:	681c      	ldr	r4, [r3, #0]
 800243a:	e7ab      	b.n	8002394 <_ZN3hal7stm32f14uart16driver_configureERKNS_6serial8settingsE+0x8c>
 800243c:	4b0a      	ldr	r3, [pc, #40]	@ (8002468 <_ZN3hal7stm32f14uart16driver_configureERKNS_6serial8settingsE+0x160>)
 800243e:	681c      	ldr	r4, [r3, #0]
 8002440:	e7a8      	b.n	8002394 <_ZN3hal7stm32f14uart16driver_configureERKNS_6serial8settingsE+0x8c>
 8002442:	4b0a      	ldr	r3, [pc, #40]	@ (800246c <_ZN3hal7stm32f14uart16driver_configureERKNS_6serial8settingsE+0x164>)
 8002444:	681c      	ldr	r4, [r3, #0]
 8002446:	e7a5      	b.n	8002394 <_ZN3hal7stm32f14uart16driver_configureERKNS_6serial8settingsE+0x8c>
 8002448:	4c09      	ldr	r4, [pc, #36]	@ (8002470 <_ZN3hal7stm32f14uart16driver_configureERKNS_6serial8settingsE+0x168>)
 800244a:	e7a3      	b.n	8002394 <_ZN3hal7stm32f14uart16driver_configureERKNS_6serial8settingsE+0x8c>
 800244c:	4b09      	ldr	r3, [pc, #36]	@ (8002474 <_ZN3hal7stm32f14uart16driver_configureERKNS_6serial8settingsE+0x16c>)
 800244e:	681c      	ldr	r4, [r3, #0]
 8002450:	e7a0      	b.n	8002394 <_ZN3hal7stm32f14uart16driver_configureERKNS_6serial8settingsE+0x8c>
 8002452:	bf00      	nop
 8002454:	20000018 	.word	0x20000018
 8002458:	20000014 	.word	0x20000014
 800245c:	20000010 	.word	0x20000010
 8002460:	2000001c 	.word	0x2000001c
 8002464:	200000c8 	.word	0x200000c8
 8002468:	200000c4 	.word	0x200000c4
 800246c:	20000008 	.word	0x20000008
 8002470:	4af42400 	.word	0x4af42400
 8002474:	2000000c 	.word	0x2000000c

08002478 <_ZN2ke16capture_cpu_coreERNS_12cortex_m_cpuE>:
 8002478:	f100 0010 	add.w	r0, r0, #16
 800247c:	e8a0 1ff0 	stmia.w	r0!, {r4, r5, r6, r7, r8, r9, sl, fp, ip}
 8002480:	f8c0 d000 	str.w	sp, [r0]
 8002484:	f8c0 e008 	str.w	lr, [r0, #8]
 8002488:	4770      	bx	lr
 800248a:	bf00      	nop

0800248c <_ZN2ke16restore_cpu_coreERNS_12cortex_m_cpuE>:
 800248c:	4602      	mov	r2, r0
 800248e:	e892 0003 	ldmia.w	r2, {r0, r1}
 8002492:	f102 0210 	add.w	r2, r2, #16
 8002496:	e8b2 1ff0 	ldmia.w	r2!, {r4, r5, r6, r7, r8, r9, sl, fp, ip}
 800249a:	f8d2 d000 	ldr.w	sp, [r2]
 800249e:	f8d2 e004 	ldr.w	lr, [r2, #4]
 80024a2:	f8d2 f008 	ldr.w	pc, [r2, #8]
 80024a6:	bf00      	nop

080024a8 <_ZN2ke15raise_exceptionERNS_23exception_control_blockE>:
 80024a8:	e92d 4ff0 	stmdb	sp!, {r4, r5, r6, r7, r8, r9, sl, fp, lr}
 80024ac:	4b88      	ldr	r3, [pc, #544]	@ (80026d0 <_ZN2ke15raise_exceptionERNS_23exception_control_blockE+0x228>)
 80024ae:	f8df a224 	ldr.w	sl, [pc, #548]	@ 80026d4 <_ZN2ke15raise_exceptionERNS_23exception_control_blockE+0x22c>
 80024b2:	4606      	mov	r6, r0
 80024b4:	eba3 030a 	sub.w	r3, r3, sl
 80024b8:	ea4f 09e3 	mov.w	r9, r3, asr #3
 80024bc:	f890 309c 	ldrb.w	r3, [r0, #156]	@ 0x9c
 80024c0:	b089      	sub	sp, #36	@ 0x24
 80024c2:	2b01      	cmp	r3, #1
 80024c4:	d038      	beq.n	8002538 <_ZN2ke15raise_exceptionERNS_23exception_control_blockE+0x90>
 80024c6:	2b00      	cmp	r3, #0
 80024c8:	f000 83ff 	beq.w	8002cca <_ZN2ke15raise_exceptionERNS_23exception_control_blockE+0x822>
 80024cc:	2b02      	cmp	r3, #2
 80024ce:	f000 838e 	beq.w	8002bee <_ZN2ke15raise_exceptionERNS_23exception_control_blockE+0x746>
 80024d2:	2b03      	cmp	r3, #3
 80024d4:	d003      	beq.n	80024de <_ZN2ke15raise_exceptionERNS_23exception_control_blockE+0x36>
 80024d6:	e7fe      	b.n	80024d6 <_ZN2ke15raise_exceptionERNS_23exception_control_blockE+0x2e>
 80024d8:	2303      	movs	r3, #3
 80024da:	f886 309c 	strb.w	r3, [r6, #156]	@ 0x9c
 80024de:	f8d6 5090 	ldr.w	r5, [r6, #144]	@ 0x90
 80024e2:	686b      	ldr	r3, [r5, #4]
 80024e4:	2b00      	cmp	r3, #0
 80024e6:	db05      	blt.n	80024f4 <_ZN2ke15raise_exceptionERNS_23exception_control_blockE+0x4c>
 80024e8:	f8d6 5094 	ldr.w	r5, [r6, #148]	@ 0x94
 80024ec:	682b      	ldr	r3, [r5, #0]
 80024ee:	2b00      	cmp	r3, #0
 80024f0:	db01      	blt.n	80024f6 <_ZN2ke15raise_exceptionERNS_23exception_control_blockE+0x4e>
 80024f2:	686b      	ldr	r3, [r5, #4]
 80024f4:	3504      	adds	r5, #4
 80024f6:	f04f 30b0 	mov.w	r0, #2964369584	@ 0xb0b0b0b0
 80024fa:	f24b 01b0 	movw	r1, #45232	@ 0xb0b0
 80024fe:	22b0      	movs	r2, #176	@ 0xb0
 8002500:	f013 6f70 	tst.w	r3, #251658240	@ 0xf000000
 8002504:	ea4f 4c13 	mov.w	ip, r3, lsr #16
 8002508:	f3c3 2707 	ubfx	r7, r3, #8, #8
 800250c:	b2dc      	uxtb	r4, r3
 800250e:	f8cd 000d 	str.w	r0, [sp, #13]
 8002512:	f8ad 1011 	strh.w	r1, [sp, #17]
 8002516:	f88d 2013 	strb.w	r2, [sp, #19]
 800251a:	f040 833e 	bne.w	8002b9a <_ZN2ke15raise_exceptionERNS_23exception_control_blockE+0x6f2>
 800251e:	f88d c00c 	strb.w	ip, [sp, #12]
 8002522:	f88d 700d 	strb.w	r7, [sp, #13]
 8002526:	f88d 400e 	strb.w	r4, [sp, #14]
 800252a:	4631      	mov	r1, r6
 800252c:	a803      	add	r0, sp, #12
 800252e:	f7fe fae1 	bl	8000af4 <_ZN2ke12unwind_frameERKNS_14instructions_tERNS_12cortex_m_cpuE>
 8002532:	2301      	movs	r3, #1
 8002534:	f886 309c 	strb.w	r3, [r6, #156]	@ 0x9c
 8002538:	464a      	mov	r2, r9
 800253a:	6bf5      	ldr	r5, [r6, #60]	@ 0x3c
 800253c:	4865      	ldr	r0, [pc, #404]	@ (80026d4 <_ZN2ke15raise_exceptionERNS_23exception_control_blockE+0x22c>)
 800253e:	e00f      	b.n	8002560 <_ZN2ke15raise_exceptionERNS_23exception_control_blockE+0xb8>
 8002540:	1051      	asrs	r1, r2, #1
 8002542:	f850 3031 	ldr.w	r3, [r0, r1, lsl #3]
 8002546:	eb00 04c1 	add.w	r4, r0, r1, lsl #3
 800254a:	f343 031e 	sbfx	r3, r3, #0, #31
 800254e:	4423      	add	r3, r4
 8002550:	429d      	cmp	r5, r3
 8002552:	bf31      	iteee	cc
 8002554:	460a      	movcc	r2, r1
 8002556:	1a52      	subcs	r2, r2, r1
 8002558:	f104 0008 	addcs.w	r0, r4, #8
 800255c:	f102 32ff 	addcs.w	r2, r2, #4294967295	@ 0xffffffff
 8002560:	2a00      	cmp	r2, #0
 8002562:	dced      	bgt.n	8002540 <_ZN2ke15raise_exceptionERNS_23exception_control_blockE+0x98>
 8002564:	4550      	cmp	r0, sl
 8002566:	bf18      	it	ne
 8002568:	3808      	subne	r0, #8
 800256a:	6843      	ldr	r3, [r0, #4]
 800256c:	f8c6 0090 	str.w	r0, [r6, #144]	@ 0x90
 8002570:	2b00      	cmp	r3, #0
 8002572:	dbb1      	blt.n	80024d8 <_ZN2ke15raise_exceptionERNS_23exception_control_blockE+0x30>
 8002574:	2b01      	cmp	r3, #1
 8002576:	f000 83a2 	beq.w	8002cbe <_ZN2ke15raise_exceptionERNS_23exception_control_blockE+0x816>
 800257a:	1d02      	adds	r2, r0, #4
 800257c:	f343 031e 	sbfx	r3, r3, #0, #31
 8002580:	58d1      	ldr	r1, [r2, r3]
 8002582:	4413      	add	r3, r2
 8002584:	f011 6f70 	tst.w	r1, #251658240	@ 0xf000000
 8002588:	bf0c      	ite	eq
 800258a:	1d1a      	addeq	r2, r3, #4
 800258c:	f103 0208 	addne.w	r2, r3, #8
 8002590:	6812      	ldr	r2, [r2, #0]
 8002592:	f8c6 3094 	str.w	r3, [r6, #148]	@ 0x94
 8002596:	2a00      	cmp	r2, #0
 8002598:	d09e      	beq.n	80024d8 <_ZN2ke15raise_exceptionERNS_23exception_control_blockE+0x30>
 800259a:	2102      	movs	r1, #2
 800259c:	6802      	ldr	r2, [r0, #0]
 800259e:	f886 109c 	strb.w	r1, [r6, #156]	@ 0x9c
 80025a2:	f342 021e 	sbfx	r2, r2, #0, #31
 80025a6:	4410      	add	r0, r2
 80025a8:	1a2d      	subs	r5, r5, r0
 80025aa:	f8c6 5098 	str.w	r5, [r6, #152]	@ 0x98
 80025ae:	685a      	ldr	r2, [r3, #4]
 80025b0:	f012 6f70 	tst.w	r2, #251658240	@ 0xf000000
 80025b4:	f000 8322 	beq.w	8002bfc <_ZN2ke15raise_exceptionERNS_23exception_control_blockE+0x754>
 80025b8:	f3c2 4207 	ubfx	r2, r2, #16, #8
 80025bc:	2a01      	cmp	r2, #1
 80025be:	f000 8322 	beq.w	8002c06 <_ZN2ke15raise_exceptionERNS_23exception_control_blockE+0x75e>
 80025c2:	2a02      	cmp	r2, #2
 80025c4:	f200 831f 	bhi.w	8002c06 <_ZN2ke15raise_exceptionERNS_23exception_control_blockE+0x75e>
 80025c8:	3310      	adds	r3, #16
 80025ca:	461a      	mov	r2, r3
 80025cc:	f812 1b01 	ldrb.w	r1, [r2], #1
 80025d0:	29ff      	cmp	r1, #255	@ 0xff
 80025d2:	d04f      	beq.n	8002674 <_ZN2ke15raise_exceptionERNS_23exception_control_blockE+0x1cc>
 80025d4:	f001 010f 	and.w	r1, r1, #15
 80025d8:	290c      	cmp	r1, #12
 80025da:	f200 8376 	bhi.w	8002cca <_ZN2ke15raise_exceptionERNS_23exception_control_blockE+0x822>
 80025de:	e8df f011 	tbh	[pc, r1, lsl #1]
 80025e2:	0048      	.short	0x0048
 80025e4:	026c000d 	.word	0x026c000d
 80025e8:	02690048 	.word	0x02690048
 80025ec:	03740374 	.word	0x03740374
 80025f0:	03740374 	.word	0x03740374
 80025f4:	026c0037 	.word	0x026c0037
 80025f8:	02690048 	.word	0x02690048
 80025fc:	f812 3b01 	ldrb.w	r3, [r2], #1
 8002600:	2b80      	cmp	r3, #128	@ 0x80
 8002602:	d137      	bne.n	8002674 <_ZN2ke15raise_exceptionERNS_23exception_control_blockE+0x1cc>
 8002604:	f812 3b01 	ldrb.w	r3, [r2], #1
 8002608:	2b80      	cmp	r3, #128	@ 0x80
 800260a:	d0f7      	beq.n	80025fc <_ZN2ke15raise_exceptionERNS_23exception_control_blockE+0x154>
 800260c:	e032      	b.n	8002674 <_ZN2ke15raise_exceptionERNS_23exception_control_blockE+0x1cc>
 800260e:	7893      	ldrb	r3, [r2, #2]
 8002610:	3201      	adds	r2, #1
 8002612:	2b80      	cmp	r3, #128	@ 0x80
 8002614:	4696      	mov	lr, r2
 8002616:	7814      	ldrb	r4, [r2, #0]
 8002618:	f102 0202 	add.w	r2, r2, #2
 800261c:	d049      	beq.n	80026b2 <_ZN2ke15raise_exceptionERNS_23exception_control_blockE+0x20a>
 800261e:	f003 037f 	and.w	r3, r3, #127	@ 0x7f
 8002622:	f8d6 7098 	ldr.w	r7, [r6, #152]	@ 0x98
 8002626:	1e61      	subs	r1, r4, #1
 8002628:	4413      	add	r3, r2
 800262a:	f027 0701 	bic.w	r7, r7, #1
 800262e:	290b      	cmp	r1, #11
 8002630:	f200 834b 	bhi.w	8002cca <_ZN2ke15raise_exceptionERNS_23exception_control_blockE+0x822>
 8002634:	e8df f011 	tbh	[pc, r1, lsl #1]
 8002638:	00500243 	.word	0x00500243
 800263c:	021f022e 	.word	0x021f022e
 8002640:	03490349 	.word	0x03490349
 8002644:	03490349 	.word	0x03490349
 8002648:	015801f1 	.word	0x015801f1
 800264c:	012f0148 	.word	0x012f0148
 8002650:	f993 2001 	ldrsb.w	r2, [r3, #1]
 8002654:	2a00      	cmp	r2, #0
 8002656:	bfa8      	it	ge
 8002658:	1c9a      	addge	r2, r3, #2
 800265a:	da0b      	bge.n	8002674 <_ZN2ke15raise_exceptionERNS_23exception_control_blockE+0x1cc>
 800265c:	f993 2002 	ldrsb.w	r2, [r3, #2]
 8002660:	2a00      	cmp	r2, #0
 8002662:	f280 822a 	bge.w	8002aba <_ZN2ke15raise_exceptionERNS_23exception_control_blockE+0x612>
 8002666:	f993 2003 	ldrsb.w	r2, [r3, #3]
 800266a:	2a00      	cmp	r2, #0
 800266c:	bfa8      	it	ge
 800266e:	1d1a      	addge	r2, r3, #4
 8002670:	da00      	bge.n	8002674 <_ZN2ke15raise_exceptionERNS_23exception_control_blockE+0x1cc>
 8002672:	1d5a      	adds	r2, r3, #5
 8002674:	7813      	ldrb	r3, [r2, #0]
 8002676:	2bff      	cmp	r3, #255	@ 0xff
 8002678:	d0c9      	beq.n	800260e <_ZN2ke15raise_exceptionERNS_23exception_control_blockE+0x166>
 800267a:	f892 e001 	ldrb.w	lr, [r2, #1]
 800267e:	3202      	adds	r2, #2
 8002680:	f1be 0f80 	cmp.w	lr, #128	@ 0x80
 8002684:	f040 8304 	bne.w	8002c90 <_ZN2ke15raise_exceptionERNS_23exception_control_blockE+0x7e8>
 8002688:	f04f 0e00 	mov.w	lr, #0
 800268c:	4673      	mov	r3, lr
 800268e:	f812 0b01 	ldrb.w	r0, [r2], #1
 8002692:	3307      	adds	r3, #7
 8002694:	b2db      	uxtb	r3, r3
 8002696:	f000 017f 	and.w	r1, r0, #127	@ 0x7f
 800269a:	4099      	lsls	r1, r3
 800269c:	2880      	cmp	r0, #128	@ 0x80
 800269e:	ea4e 0e01 	orr.w	lr, lr, r1
 80026a2:	d0f4      	beq.n	800268e <_ZN2ke15raise_exceptionERNS_23exception_control_blockE+0x1e6>
 80026a4:	7853      	ldrb	r3, [r2, #1]
 80026a6:	7814      	ldrb	r4, [r2, #0]
 80026a8:	2b80      	cmp	r3, #128	@ 0x80
 80026aa:	4496      	add	lr, r2
 80026ac:	f102 0202 	add.w	r2, r2, #2
 80026b0:	d1b5      	bne.n	800261e <_ZN2ke15raise_exceptionERNS_23exception_control_blockE+0x176>
 80026b2:	2300      	movs	r3, #0
 80026b4:	4619      	mov	r1, r3
 80026b6:	f812 5b01 	ldrb.w	r5, [r2], #1
 80026ba:	3107      	adds	r1, #7
 80026bc:	b2c9      	uxtb	r1, r1
 80026be:	f005 007f 	and.w	r0, r5, #127	@ 0x7f
 80026c2:	4088      	lsls	r0, r1
 80026c4:	2d80      	cmp	r5, #128	@ 0x80
 80026c6:	ea43 0300 	orr.w	r3, r3, r0
 80026ca:	d0f4      	beq.n	80026b6 <_ZN2ke15raise_exceptionERNS_23exception_control_blockE+0x20e>
 80026cc:	e7a9      	b.n	8002622 <_ZN2ke15raise_exceptionERNS_23exception_control_blockE+0x17a>
 80026ce:	bf00      	nop
 80026d0:	08008bb0 	.word	0x08008bb0
 80026d4:	080089e0 	.word	0x080089e0
 80026d8:	8814      	ldrh	r4, [r2, #0]
 80026da:	4615      	mov	r5, r2
 80026dc:	42a7      	cmp	r7, r4
 80026de:	8891      	ldrh	r1, [r2, #4]
 80026e0:	88d0      	ldrh	r0, [r2, #6]
 80026e2:	f102 0208 	add.w	r2, r2, #8
 80026e6:	d304      	bcc.n	80026f2 <_ZN2ke15raise_exceptionERNS_23exception_control_blockE+0x24a>
 80026e8:	886d      	ldrh	r5, [r5, #2]
 80026ea:	442c      	add	r4, r5
 80026ec:	42a7      	cmp	r7, r4
 80026ee:	f240 82ac 	bls.w	8002c4a <_ZN2ke15raise_exceptionERNS_23exception_control_blockE+0x7a2>
 80026f2:	429a      	cmp	r2, r3
 80026f4:	d3f0      	bcc.n	80026d8 <_ZN2ke15raise_exceptionERNS_23exception_control_blockE+0x230>
 80026f6:	f8d6 5090 	ldr.w	r5, [r6, #144]	@ 0x90
 80026fa:	459e      	cmp	lr, r3
 80026fc:	f0c0 8232 	bcc.w	8002b64 <_ZN2ke15raise_exceptionERNS_23exception_control_blockE+0x6bc>
 8002700:	3801      	subs	r0, #1
 8002702:	4403      	add	r3, r0
 8002704:	7818      	ldrb	r0, [r3, #0]
 8002706:	0607      	lsls	r7, r0, #24
 8002708:	f000 027f 	and.w	r2, r0, #127	@ 0x7f
 800270c:	f140 827d 	bpl.w	8002c0a <_ZN2ke15raise_exceptionERNS_23exception_control_blockE+0x762>
 8002710:	7858      	ldrb	r0, [r3, #1]
 8002712:	f000 047f 	and.w	r4, r0, #127	@ 0x7f
 8002716:	ea42 12c4 	orr.w	r2, r2, r4, lsl #7
 800271a:	0604      	lsls	r4, r0, #24
 800271c:	f140 8285 	bpl.w	8002c2a <_ZN2ke15raise_exceptionERNS_23exception_control_blockE+0x782>
 8002720:	7898      	ldrb	r0, [r3, #2]
 8002722:	f000 047f 	and.w	r4, r0, #127	@ 0x7f
 8002726:	0600      	lsls	r0, r0, #24
 8002728:	ea42 3284 	orr.w	r2, r2, r4, lsl #14
 800272c:	f140 8288 	bpl.w	8002c40 <_ZN2ke15raise_exceptionERNS_23exception_control_blockE+0x798>
 8002730:	78dc      	ldrb	r4, [r3, #3]
 8002732:	1d18      	adds	r0, r3, #4
 8002734:	0627      	lsls	r7, r4, #24
 8002736:	f004 037f 	and.w	r3, r4, #127	@ 0x7f
 800273a:	ea42 5243 	orr.w	r2, r2, r3, lsl #21
 800273e:	f140 8282 	bpl.w	8002c46 <_ZN2ke15raise_exceptionERNS_23exception_control_blockE+0x79e>
 8002742:	7804      	ldrb	r4, [r0, #0]
 8002744:	f004 037f 	and.w	r3, r4, #127	@ 0x7f
 8002748:	0624      	lsls	r4, r4, #24
 800274a:	f140 81e2 	bpl.w	8002b12 <_ZN2ke15raise_exceptionERNS_23exception_control_blockE+0x66a>
 800274e:	7844      	ldrb	r4, [r0, #1]
 8002750:	f004 077f 	and.w	r7, r4, #127	@ 0x7f
 8002754:	ea43 13c7 	orr.w	r3, r3, r7, lsl #7
 8002758:	0627      	lsls	r7, r4, #24
 800275a:	f140 8269 	bpl.w	8002c30 <_ZN2ke15raise_exceptionERNS_23exception_control_blockE+0x788>
 800275e:	7884      	ldrb	r4, [r0, #2]
 8002760:	f004 077f 	and.w	r7, r4, #127	@ 0x7f
 8002764:	0624      	lsls	r4, r4, #24
 8002766:	ea43 3387 	orr.w	r3, r3, r7, lsl #14
 800276a:	f140 8265 	bpl.w	8002c38 <_ZN2ke15raise_exceptionERNS_23exception_control_blockE+0x790>
 800276e:	78c4      	ldrb	r4, [r0, #3]
 8002770:	f004 077f 	and.w	r7, r4, #127	@ 0x7f
 8002774:	ea43 5347 	orr.w	r3, r3, r7, lsl #21
 8002778:	0627      	lsls	r7, r4, #24
 800277a:	bf58      	it	pl
 800277c:	2404      	movpl	r4, #4
 800277e:	f140 81c9 	bpl.w	8002b14 <_ZN2ke15raise_exceptionERNS_23exception_control_blockE+0x66c>
 8002782:	b103      	cbz	r3, 8002786 <_ZN2ke15raise_exceptionERNS_23exception_control_blockE+0x2de>
 8002784:	4403      	add	r3, r0
 8002786:	2a00      	cmp	r2, #0
 8002788:	dbbc      	blt.n	8002704 <_ZN2ke15raise_exceptionERNS_23exception_control_blockE+0x25c>
 800278a:	f000 8239 	beq.w	8002c00 <_ZN2ke15raise_exceptionERNS_23exception_control_blockE+0x758>
 800278e:	ebc2 7082 	rsb	r0, r2, r2, lsl #30
 8002792:	f85e 7020 	ldr.w	r7, [lr, r0, lsl #2]
 8002796:	eb0e 0480 	add.w	r4, lr, r0, lsl #2
 800279a:	2f00      	cmp	r7, #0
 800279c:	f000 8230 	beq.w	8002c00 <_ZN2ke15raise_exceptionERNS_23exception_control_blockE+0x758>
 80027a0:	f347 071e 	sbfx	r7, r7, #0, #31
 80027a4:	443c      	add	r4, r7
 80027a6:	46cb      	mov	fp, r9
 80027a8:	9101      	str	r1, [sp, #4]
 80027aa:	46a9      	mov	r9, r5
 80027ac:	4631      	mov	r1, r6
 80027ae:	2c00      	cmp	r4, #0
 80027b0:	d06d      	beq.n	800288e <_ZN2ke15raise_exceptionERNS_23exception_control_blockE+0x3e6>
 80027b2:	f8d1 5080 	ldr.w	r5, [r1, #128]	@ 0x80
 80027b6:	f101 0c40 	add.w	ip, r1, #64	@ 0x40
 80027ba:	00ee      	lsls	r6, r5, #3
 80027bc:	eb0c 08c5 	add.w	r8, ip, r5, lsl #3
 80027c0:	9500      	str	r5, [sp, #0]
 80027c2:	4660      	mov	r0, ip
 80027c4:	4647      	mov	r7, r8
 80027c6:	b91e      	cbnz	r6, 80027d0 <_ZN2ke15raise_exceptionERNS_23exception_control_blockE+0x328>
 80027c8:	e008      	b.n	80027dc <_ZN2ke15raise_exceptionERNS_23exception_control_blockE+0x334>
 80027ca:	3008      	adds	r0, #8
 80027cc:	42b8      	cmp	r0, r7
 80027ce:	d005      	beq.n	80027dc <_ZN2ke15raise_exceptionERNS_23exception_control_blockE+0x334>
 80027d0:	6805      	ldr	r5, [r0, #0]
 80027d2:	42a5      	cmp	r5, r4
 80027d4:	d1f9      	bne.n	80027ca <_ZN2ke15raise_exceptionERNS_23exception_control_blockE+0x322>
 80027d6:	4287      	cmp	r7, r0
 80027d8:	f040 81bb 	bne.w	8002b52 <_ZN2ke15raise_exceptionERNS_23exception_control_blockE+0x6aa>
 80027dc:	3401      	adds	r4, #1
 80027de:	f000 81b8 	beq.w	8002b52 <_ZN2ke15raise_exceptionERNS_23exception_control_blockE+0x6aa>
 80027e2:	2b00      	cmp	r3, #0
 80027e4:	d053      	beq.n	800288e <_ZN2ke15raise_exceptionERNS_23exception_control_blockE+0x3e6>
 80027e6:	7818      	ldrb	r0, [r3, #0]
 80027e8:	0604      	lsls	r4, r0, #24
 80027ea:	f000 027f 	and.w	r2, r0, #127	@ 0x7f
 80027ee:	f140 8194 	bpl.w	8002b1a <_ZN2ke15raise_exceptionERNS_23exception_control_blockE+0x672>
 80027f2:	7858      	ldrb	r0, [r3, #1]
 80027f4:	f000 047f 	and.w	r4, r0, #127	@ 0x7f
 80027f8:	0600      	lsls	r0, r0, #24
 80027fa:	ea42 12c4 	orr.w	r2, r2, r4, lsl #7
 80027fe:	f140 8195 	bpl.w	8002b2c <_ZN2ke15raise_exceptionERNS_23exception_control_blockE+0x684>
 8002802:	7898      	ldrb	r0, [r3, #2]
 8002804:	f000 047f 	and.w	r4, r0, #127	@ 0x7f
 8002808:	0607      	lsls	r7, r0, #24
 800280a:	ea42 3284 	orr.w	r2, r2, r4, lsl #14
 800280e:	f140 8190 	bpl.w	8002b32 <_ZN2ke15raise_exceptionERNS_23exception_control_blockE+0x68a>
 8002812:	78dc      	ldrb	r4, [r3, #3]
 8002814:	1d18      	adds	r0, r3, #4
 8002816:	0625      	lsls	r5, r4, #24
 8002818:	f004 037f 	and.w	r3, r4, #127	@ 0x7f
 800281c:	ea42 5243 	orr.w	r2, r2, r3, lsl #21
 8002820:	f140 818e 	bpl.w	8002b40 <_ZN2ke15raise_exceptionERNS_23exception_control_blockE+0x698>
 8002824:	7804      	ldrb	r4, [r0, #0]
 8002826:	f004 037f 	and.w	r3, r4, #127	@ 0x7f
 800282a:	0624      	lsls	r4, r4, #24
 800282c:	f140 816d 	bpl.w	8002b0a <_ZN2ke15raise_exceptionERNS_23exception_control_blockE+0x662>
 8002830:	7844      	ldrb	r4, [r0, #1]
 8002832:	f004 057f 	and.w	r5, r4, #127	@ 0x7f
 8002836:	0627      	lsls	r7, r4, #24
 8002838:	ea43 13c5 	orr.w	r3, r3, r5, lsl #7
 800283c:	f140 8172 	bpl.w	8002b24 <_ZN2ke15raise_exceptionERNS_23exception_control_blockE+0x67c>
 8002840:	7884      	ldrb	r4, [r0, #2]
 8002842:	f004 057f 	and.w	r5, r4, #127	@ 0x7f
 8002846:	ea43 3385 	orr.w	r3, r3, r5, lsl #14
 800284a:	0625      	lsls	r5, r4, #24
 800284c:	f140 8174 	bpl.w	8002b38 <_ZN2ke15raise_exceptionERNS_23exception_control_blockE+0x690>
 8002850:	78c4      	ldrb	r4, [r0, #3]
 8002852:	f004 057f 	and.w	r5, r4, #127	@ 0x7f
 8002856:	0624      	lsls	r4, r4, #24
 8002858:	bf58      	it	pl
 800285a:	2404      	movpl	r4, #4
 800285c:	ea43 5345 	orr.w	r3, r3, r5, lsl #21
 8002860:	f140 8154 	bpl.w	8002b0c <_ZN2ke15raise_exceptionERNS_23exception_control_blockE+0x664>
 8002864:	b103      	cbz	r3, 8002868 <_ZN2ke15raise_exceptionERNS_23exception_control_blockE+0x3c0>
 8002866:	4403      	add	r3, r0
 8002868:	2a00      	cmp	r2, #0
 800286a:	dbbc      	blt.n	80027e6 <_ZN2ke15raise_exceptionERNS_23exception_control_blockE+0x33e>
 800286c:	f04f 34ff 	mov.w	r4, #4294967295	@ 0xffffffff
 8002870:	d0a7      	beq.n	80027c2 <_ZN2ke15raise_exceptionERNS_23exception_control_blockE+0x31a>
 8002872:	ebc2 7082 	rsb	r0, r2, r2, lsl #30
 8002876:	f85e 7020 	ldr.w	r7, [lr, r0, lsl #2]
 800287a:	eb0e 0080 	add.w	r0, lr, r0, lsl #2
 800287e:	2f00      	cmp	r7, #0
 8002880:	f000 8160 	beq.w	8002b44 <_ZN2ke15raise_exceptionERNS_23exception_control_blockE+0x69c>
 8002884:	f347 041e 	sbfx	r4, r7, #0, #31
 8002888:	4404      	add	r4, r0
 800288a:	2c00      	cmp	r4, #0
 800288c:	d191      	bne.n	80027b2 <_ZN2ke15raise_exceptionERNS_23exception_control_blockE+0x30a>
 800288e:	464d      	mov	r5, r9
 8002890:	460e      	mov	r6, r1
 8002892:	46d9      	mov	r9, fp
 8002894:	e625      	b.n	80024e2 <_ZN2ke15raise_exceptionERNS_23exception_control_blockE+0x3a>
 8002896:	6810      	ldr	r0, [r2, #0]
 8002898:	4615      	mov	r5, r2
 800289a:	4287      	cmp	r7, r0
 800289c:	6911      	ldr	r1, [r2, #16]
 800289e:	f102 0220 	add.w	r2, r2, #32
 80028a2:	d304      	bcc.n	80028ae <_ZN2ke15raise_exceptionERNS_23exception_control_blockE+0x406>
 80028a4:	68ac      	ldr	r4, [r5, #8]
 80028a6:	4420      	add	r0, r4
 80028a8:	4287      	cmp	r7, r0
 80028aa:	f240 81d2 	bls.w	8002c52 <_ZN2ke15raise_exceptionERNS_23exception_control_blockE+0x7aa>
 80028ae:	4293      	cmp	r3, r2
 80028b0:	d8f1      	bhi.n	8002896 <_ZN2ke15raise_exceptionERNS_23exception_control_blockE+0x3ee>
 80028b2:	2400      	movs	r4, #0
 80028b4:	69a8      	ldr	r0, [r5, #24]
 80028b6:	f8d6 5090 	ldr.w	r5, [r6, #144]	@ 0x90
 80028ba:	2c00      	cmp	r4, #0
 80028bc:	f43f af1d 	beq.w	80026fa <_ZN2ke15raise_exceptionERNS_23exception_control_blockE+0x252>
 80028c0:	2303      	movs	r3, #3
 80028c2:	f886 309c 	strb.w	r3, [r6, #156]	@ 0x9c
 80028c6:	e60c      	b.n	80024e2 <_ZN2ke15raise_exceptionERNS_23exception_control_blockE+0x3a>
 80028c8:	6814      	ldr	r4, [r2, #0]
 80028ca:	4615      	mov	r5, r2
 80028cc:	e9d2 1002 	ldrd	r1, r0, [r2, #8]
 80028d0:	42a7      	cmp	r7, r4
 80028d2:	f102 0210 	add.w	r2, r2, #16
 80028d6:	d304      	bcc.n	80028e2 <_ZN2ke15raise_exceptionERNS_23exception_control_blockE+0x43a>
 80028d8:	686d      	ldr	r5, [r5, #4]
 80028da:	442c      	add	r4, r5
 80028dc:	42a7      	cmp	r7, r4
 80028de:	f240 81b4 	bls.w	8002c4a <_ZN2ke15raise_exceptionERNS_23exception_control_blockE+0x7a2>
 80028e2:	429a      	cmp	r2, r3
 80028e4:	d3f0      	bcc.n	80028c8 <_ZN2ke15raise_exceptionERNS_23exception_control_blockE+0x420>
 80028e6:	e706      	b.n	80026f6 <_ZN2ke15raise_exceptionERNS_23exception_control_blockE+0x24e>
 80028e8:	f9b2 4000 	ldrsh.w	r4, [r2]
 80028ec:	4615      	mov	r5, r2
 80028ee:	42a7      	cmp	r7, r4
 80028f0:	f9b2 1004 	ldrsh.w	r1, [r2, #4]
 80028f4:	f9b2 0006 	ldrsh.w	r0, [r2, #6]
 80028f8:	f102 0208 	add.w	r2, r2, #8
 80028fc:	d305      	bcc.n	800290a <_ZN2ke15raise_exceptionERNS_23exception_control_blockE+0x462>
 80028fe:	f9b5 5002 	ldrsh.w	r5, [r5, #2]
 8002902:	442c      	add	r4, r5
 8002904:	42a7      	cmp	r7, r4
 8002906:	f240 81a0 	bls.w	8002c4a <_ZN2ke15raise_exceptionERNS_23exception_control_blockE+0x7a2>
 800290a:	429a      	cmp	r2, r3
 800290c:	d3ec      	bcc.n	80028e8 <_ZN2ke15raise_exceptionERNS_23exception_control_blockE+0x440>
 800290e:	e6f2      	b.n	80026f6 <_ZN2ke15raise_exceptionERNS_23exception_control_blockE+0x24e>
 8002910:	7851      	ldrb	r1, [r2, #1]
 8002912:	f001 007f 	and.w	r0, r1, #127	@ 0x7f
 8002916:	ea4c 1cc0 	orr.w	ip, ip, r0, lsl #7
 800291a:	0608      	lsls	r0, r1, #24
 800291c:	f140 81bd 	bpl.w	8002c9a <_ZN2ke15raise_exceptionERNS_23exception_control_blockE+0x7f2>
 8002920:	7891      	ldrb	r1, [r2, #2]
 8002922:	f001 007f 	and.w	r0, r1, #127	@ 0x7f
 8002926:	0609      	lsls	r1, r1, #24
 8002928:	ea4c 3c80 	orr.w	ip, ip, r0, lsl #14
 800292c:	f140 81ba 	bpl.w	8002ca4 <_ZN2ke15raise_exceptionERNS_23exception_control_blockE+0x7fc>
 8002930:	78d1      	ldrb	r1, [r2, #3]
 8002932:	3204      	adds	r2, #4
 8002934:	f001 007f 	and.w	r0, r1, #127	@ 0x7f
 8002938:	060d      	lsls	r5, r1, #24
 800293a:	ea4c 5c40 	orr.w	ip, ip, r0, lsl #21
 800293e:	f140 81af 	bpl.w	8002ca0 <_ZN2ke15raise_exceptionERNS_23exception_control_blockE+0x7f8>
 8002942:	7811      	ldrb	r1, [r2, #0]
 8002944:	060c      	lsls	r4, r1, #24
 8002946:	f001 057f 	and.w	r5, r1, #127	@ 0x7f
 800294a:	d577      	bpl.n	8002a3c <_ZN2ke15raise_exceptionERNS_23exception_control_blockE+0x594>
 800294c:	7851      	ldrb	r1, [r2, #1]
 800294e:	f001 007f 	and.w	r0, r1, #127	@ 0x7f
 8002952:	ea45 15c0 	orr.w	r5, r5, r0, lsl #7
 8002956:	0608      	lsls	r0, r1, #24
 8002958:	f140 817f 	bpl.w	8002c5a <_ZN2ke15raise_exceptionERNS_23exception_control_blockE+0x7b2>
 800295c:	7891      	ldrb	r1, [r2, #2]
 800295e:	f001 007f 	and.w	r0, r1, #127	@ 0x7f
 8002962:	0609      	lsls	r1, r1, #24
 8002964:	ea45 3580 	orr.w	r5, r5, r0, lsl #14
 8002968:	f140 8183 	bpl.w	8002c72 <_ZN2ke15raise_exceptionERNS_23exception_control_blockE+0x7ca>
 800296c:	78d1      	ldrb	r1, [r2, #3]
 800296e:	3204      	adds	r2, #4
 8002970:	f001 007f 	and.w	r0, r1, #127	@ 0x7f
 8002974:	060c      	lsls	r4, r1, #24
 8002976:	ea45 5540 	orr.w	r5, r5, r0, lsl #21
 800297a:	f140 8178 	bpl.w	8002c6e <_ZN2ke15raise_exceptionERNS_23exception_control_blockE+0x7c6>
 800297e:	7811      	ldrb	r1, [r2, #0]
 8002980:	0608      	lsls	r0, r1, #24
 8002982:	f001 047f 	and.w	r4, r1, #127	@ 0x7f
 8002986:	d562      	bpl.n	8002a4e <_ZN2ke15raise_exceptionERNS_23exception_control_blockE+0x5a6>
 8002988:	7851      	ldrb	r1, [r2, #1]
 800298a:	f001 007f 	and.w	r0, r1, #127	@ 0x7f
 800298e:	0609      	lsls	r1, r1, #24
 8002990:	ea44 14c0 	orr.w	r4, r4, r0, lsl #7
 8002994:	f140 8174 	bpl.w	8002c80 <_ZN2ke15raise_exceptionERNS_23exception_control_blockE+0x7d8>
 8002998:	7891      	ldrb	r1, [r2, #2]
 800299a:	f001 007f 	and.w	r0, r1, #127	@ 0x7f
 800299e:	ea44 3480 	orr.w	r4, r4, r0, lsl #14
 80029a2:	0608      	lsls	r0, r1, #24
 80029a4:	f140 8171 	bpl.w	8002c8a <_ZN2ke15raise_exceptionERNS_23exception_control_blockE+0x7e2>
 80029a8:	78d1      	ldrb	r1, [r2, #3]
 80029aa:	3204      	adds	r2, #4
 80029ac:	f001 007f 	and.w	r0, r1, #127	@ 0x7f
 80029b0:	0609      	lsls	r1, r1, #24
 80029b2:	ea44 5440 	orr.w	r4, r4, r0, lsl #21
 80029b6:	f140 8166 	bpl.w	8002c86 <_ZN2ke15raise_exceptionERNS_23exception_control_blockE+0x7de>
 80029ba:	f892 8000 	ldrb.w	r8, [r2]
 80029be:	4621      	mov	r1, r4
 80029c0:	f018 0f80 	tst.w	r8, #128	@ 0x80
 80029c4:	f008 007f 	and.w	r0, r8, #127	@ 0x7f
 80029c8:	d04d      	beq.n	8002a66 <_ZN2ke15raise_exceptionERNS_23exception_control_blockE+0x5be>
 80029ca:	f892 8001 	ldrb.w	r8, [r2, #1]
 80029ce:	f008 0b7f 	and.w	fp, r8, #127	@ 0x7f
 80029d2:	f018 0f80 	tst.w	r8, #128	@ 0x80
 80029d6:	ea40 10cb 	orr.w	r0, r0, fp, lsl #7
 80029da:	f000 814d 	beq.w	8002c78 <_ZN2ke15raise_exceptionERNS_23exception_control_blockE+0x7d0>
 80029de:	f892 8002 	ldrb.w	r8, [r2, #2]
 80029e2:	f008 0b7f 	and.w	fp, r8, #127	@ 0x7f
 80029e6:	f018 0f80 	tst.w	r8, #128	@ 0x80
 80029ea:	ea40 308b 	orr.w	r0, r0, fp, lsl #14
 80029ee:	f000 813a 	beq.w	8002c66 <_ZN2ke15raise_exceptionERNS_23exception_control_blockE+0x7be>
 80029f2:	f892 8003 	ldrb.w	r8, [r2, #3]
 80029f6:	3204      	adds	r2, #4
 80029f8:	f008 0b7f 	and.w	fp, r8, #127	@ 0x7f
 80029fc:	f018 0f80 	tst.w	r8, #128	@ 0x80
 8002a00:	ea40 504b 	orr.w	r0, r0, fp, lsl #21
 8002a04:	f000 812c 	beq.w	8002c60 <_ZN2ke15raise_exceptionERNS_23exception_control_blockE+0x7b8>
 8002a08:	4567      	cmp	r7, ip
 8002a0a:	d303      	bcc.n	8002a14 <_ZN2ke15raise_exceptionERNS_23exception_control_blockE+0x56c>
 8002a0c:	4465      	add	r5, ip
 8002a0e:	42af      	cmp	r7, r5
 8002a10:	f240 8151 	bls.w	8002cb6 <_ZN2ke15raise_exceptionERNS_23exception_control_blockE+0x80e>
 8002a14:	4293      	cmp	r3, r2
 8002a16:	f240 813e 	bls.w	8002c96 <_ZN2ke15raise_exceptionERNS_23exception_control_blockE+0x7ee>
 8002a1a:	7811      	ldrb	r1, [r2, #0]
 8002a1c:	060c      	lsls	r4, r1, #24
 8002a1e:	f001 0c7f 	and.w	ip, r1, #127	@ 0x7f
 8002a22:	f53f af75 	bmi.w	8002910 <_ZN2ke15raise_exceptionERNS_23exception_control_blockE+0x468>
 8002a26:	2119      	movs	r1, #25
 8002a28:	3201      	adds	r2, #1
 8002a2a:	fa0c fc01 	lsl.w	ip, ip, r1
 8002a2e:	fa4c fc01 	asr.w	ip, ip, r1
 8002a32:	7811      	ldrb	r1, [r2, #0]
 8002a34:	060c      	lsls	r4, r1, #24
 8002a36:	f001 057f 	and.w	r5, r1, #127	@ 0x7f
 8002a3a:	d487      	bmi.n	800294c <_ZN2ke15raise_exceptionERNS_23exception_control_blockE+0x4a4>
 8002a3c:	2119      	movs	r1, #25
 8002a3e:	3201      	adds	r2, #1
 8002a40:	408d      	lsls	r5, r1
 8002a42:	410d      	asrs	r5, r1
 8002a44:	7811      	ldrb	r1, [r2, #0]
 8002a46:	0608      	lsls	r0, r1, #24
 8002a48:	f001 047f 	and.w	r4, r1, #127	@ 0x7f
 8002a4c:	d49c      	bmi.n	8002988 <_ZN2ke15raise_exceptionERNS_23exception_control_blockE+0x4e0>
 8002a4e:	2119      	movs	r1, #25
 8002a50:	3201      	adds	r2, #1
 8002a52:	f892 8000 	ldrb.w	r8, [r2]
 8002a56:	408c      	lsls	r4, r1
 8002a58:	410c      	asrs	r4, r1
 8002a5a:	f018 0f80 	tst.w	r8, #128	@ 0x80
 8002a5e:	4621      	mov	r1, r4
 8002a60:	f008 007f 	and.w	r0, r8, #127	@ 0x7f
 8002a64:	d1b1      	bne.n	80029ca <_ZN2ke15raise_exceptionERNS_23exception_control_blockE+0x522>
 8002a66:	f04f 0819 	mov.w	r8, #25
 8002a6a:	3201      	adds	r2, #1
 8002a6c:	fa00 f008 	lsl.w	r0, r0, r8
 8002a70:	fa40 f008 	asr.w	r0, r0, r8
 8002a74:	e7c8      	b.n	8002a08 <_ZN2ke15raise_exceptionERNS_23exception_control_blockE+0x560>
 8002a76:	6810      	ldr	r0, [r2, #0]
 8002a78:	4615      	mov	r5, r2
 8002a7a:	4287      	cmp	r7, r0
 8002a7c:	6911      	ldr	r1, [r2, #16]
 8002a7e:	f102 0220 	add.w	r2, r2, #32
 8002a82:	d304      	bcc.n	8002a8e <_ZN2ke15raise_exceptionERNS_23exception_control_blockE+0x5e6>
 8002a84:	68ac      	ldr	r4, [r5, #8]
 8002a86:	4420      	add	r0, r4
 8002a88:	4287      	cmp	r7, r0
 8002a8a:	f240 80e2 	bls.w	8002c52 <_ZN2ke15raise_exceptionERNS_23exception_control_blockE+0x7aa>
 8002a8e:	4293      	cmp	r3, r2
 8002a90:	d8f1      	bhi.n	8002a76 <_ZN2ke15raise_exceptionERNS_23exception_control_blockE+0x5ce>
 8002a92:	e70e      	b.n	80028b2 <_ZN2ke15raise_exceptionERNS_23exception_control_blockE+0x40a>
 8002a94:	6814      	ldr	r4, [r2, #0]
 8002a96:	4615      	mov	r5, r2
 8002a98:	e9d2 1002 	ldrd	r1, r0, [r2, #8]
 8002a9c:	42a7      	cmp	r7, r4
 8002a9e:	f102 0210 	add.w	r2, r2, #16
 8002aa2:	d304      	bcc.n	8002aae <_ZN2ke15raise_exceptionERNS_23exception_control_blockE+0x606>
 8002aa4:	686d      	ldr	r5, [r5, #4]
 8002aa6:	442c      	add	r4, r5
 8002aa8:	42a7      	cmp	r7, r4
 8002aaa:	f240 80ce 	bls.w	8002c4a <_ZN2ke15raise_exceptionERNS_23exception_control_blockE+0x7a2>
 8002aae:	429a      	cmp	r2, r3
 8002ab0:	d3f0      	bcc.n	8002a94 <_ZN2ke15raise_exceptionERNS_23exception_control_blockE+0x5ec>
 8002ab2:	e620      	b.n	80026f6 <_ZN2ke15raise_exceptionERNS_23exception_control_blockE+0x24e>
 8002ab4:	f103 0209 	add.w	r2, r3, #9
 8002ab8:	e5dc      	b.n	8002674 <_ZN2ke15raise_exceptionERNS_23exception_control_blockE+0x1cc>
 8002aba:	1cda      	adds	r2, r3, #3
 8002abc:	e5da      	b.n	8002674 <_ZN2ke15raise_exceptionERNS_23exception_control_blockE+0x1cc>
 8002abe:	f04f 0800 	mov.w	r8, #0
 8002ac2:	f10d 0c1c 	add.w	ip, sp, #28
 8002ac6:	f8cd 9000 	str.w	r9, [sp]
 8002aca:	2100      	movs	r1, #0
 8002acc:	e9cd 8803 	strd	r8, r8, [sp, #12]
 8002ad0:	468b      	mov	fp, r1
 8002ad2:	e9cd 8805 	strd	r8, r8, [sp, #20]
 8002ad6:	f8cd 801c 	str.w	r8, [sp, #28]
 8002ada:	ad03      	add	r5, sp, #12
 8002adc:	e004      	b.n	8002ae8 <_ZN2ke15raise_exceptionERNS_23exception_control_blockE+0x640>
 8002ade:	4565      	cmp	r5, ip
 8002ae0:	f10b 0b07 	add.w	fp, fp, #7
 8002ae4:	d049      	beq.n	8002b7a <_ZN2ke15raise_exceptionERNS_23exception_control_blockE+0x6d2>
 8002ae6:	6829      	ldr	r1, [r5, #0]
 8002ae8:	f812 9b01 	ldrb.w	r9, [r2], #1
 8002aec:	f009 007f 	and.w	r0, r9, #127	@ 0x7f
 8002af0:	fa00 f00b 	lsl.w	r0, r0, fp
 8002af4:	4308      	orrs	r0, r1
 8002af6:	f019 0f80 	tst.w	r9, #128	@ 0x80
 8002afa:	6028      	str	r0, [r5, #0]
 8002afc:	d1ef      	bne.n	8002ade <_ZN2ke15raise_exceptionERNS_23exception_control_blockE+0x636>
 8002afe:	3504      	adds	r5, #4
 8002b00:	4565      	cmp	r5, ip
 8002b02:	d03a      	beq.n	8002b7a <_ZN2ke15raise_exceptionERNS_23exception_control_blockE+0x6d2>
 8002b04:	f04f 0b00 	mov.w	fp, #0
 8002b08:	e7ed      	b.n	8002ae6 <_ZN2ke15raise_exceptionERNS_23exception_control_blockE+0x63e>
 8002b0a:	2419      	movs	r4, #25
 8002b0c:	40a3      	lsls	r3, r4
 8002b0e:	4123      	asrs	r3, r4
 8002b10:	e6a8      	b.n	8002864 <_ZN2ke15raise_exceptionERNS_23exception_control_blockE+0x3bc>
 8002b12:	2419      	movs	r4, #25
 8002b14:	40a3      	lsls	r3, r4
 8002b16:	4123      	asrs	r3, r4
 8002b18:	e633      	b.n	8002782 <_ZN2ke15raise_exceptionERNS_23exception_control_blockE+0x2da>
 8002b1a:	2419      	movs	r4, #25
 8002b1c:	1c58      	adds	r0, r3, #1
 8002b1e:	40a2      	lsls	r2, r4
 8002b20:	4122      	asrs	r2, r4
 8002b22:	e67f      	b.n	8002824 <_ZN2ke15raise_exceptionERNS_23exception_control_blockE+0x37c>
 8002b24:	2412      	movs	r4, #18
 8002b26:	40a3      	lsls	r3, r4
 8002b28:	4123      	asrs	r3, r4
 8002b2a:	e69b      	b.n	8002864 <_ZN2ke15raise_exceptionERNS_23exception_control_blockE+0x3bc>
 8002b2c:	2412      	movs	r4, #18
 8002b2e:	1c98      	adds	r0, r3, #2
 8002b30:	e7f5      	b.n	8002b1e <_ZN2ke15raise_exceptionERNS_23exception_control_blockE+0x676>
 8002b32:	240b      	movs	r4, #11
 8002b34:	1cd8      	adds	r0, r3, #3
 8002b36:	e7f2      	b.n	8002b1e <_ZN2ke15raise_exceptionERNS_23exception_control_blockE+0x676>
 8002b38:	240b      	movs	r4, #11
 8002b3a:	40a3      	lsls	r3, r4
 8002b3c:	4123      	asrs	r3, r4
 8002b3e:	e691      	b.n	8002864 <_ZN2ke15raise_exceptionERNS_23exception_control_blockE+0x3bc>
 8002b40:	2404      	movs	r4, #4
 8002b42:	e7ec      	b.n	8002b1e <_ZN2ke15raise_exceptionERNS_23exception_control_blockE+0x676>
 8002b44:	9d00      	ldr	r5, [sp, #0]
 8002b46:	4660      	mov	r0, ip
 8002b48:	eb0c 07c5 	add.w	r7, ip, r5, lsl #3
 8002b4c:	00ed      	lsls	r5, r5, #3
 8002b4e:	f47f ae3f 	bne.w	80027d0 <_ZN2ke15raise_exceptionERNS_23exception_control_blockE+0x328>
 8002b52:	460e      	mov	r6, r1
 8002b54:	464d      	mov	r5, r9
 8002b56:	b2d2      	uxtb	r2, r2
 8002b58:	6843      	ldr	r3, [r0, #4]
 8002b5a:	e9c6 6200 	strd	r6, r2, [r6]
 8002b5e:	9901      	ldr	r1, [sp, #4]
 8002b60:	f8c6 3088 	str.w	r3, [r6, #136]	@ 0x88
 8002b64:	682b      	ldr	r3, [r5, #0]
 8002b66:	4630      	mov	r0, r6
 8002b68:	f343 031e 	sbfx	r3, r3, #0, #31
 8002b6c:	442b      	add	r3, r5
 8002b6e:	440b      	add	r3, r1
 8002b70:	f043 0301 	orr.w	r3, r3, #1
 8002b74:	63f3      	str	r3, [r6, #60]	@ 0x3c
 8002b76:	f7ff fc89 	bl	800248c <_ZN2ke16restore_cpu_coreERNS_12cortex_m_cpuE>
 8002b7a:	9d03      	ldr	r5, [sp, #12]
 8002b7c:	42af      	cmp	r7, r5
 8002b7e:	d304      	bcc.n	8002b8a <_ZN2ke15raise_exceptionERNS_23exception_control_blockE+0x6e2>
 8002b80:	9904      	ldr	r1, [sp, #16]
 8002b82:	440d      	add	r5, r1
 8002b84:	42af      	cmp	r7, r5
 8002b86:	f240 8090 	bls.w	8002caa <_ZN2ke15raise_exceptionERNS_23exception_control_blockE+0x802>
 8002b8a:	4293      	cmp	r3, r2
 8002b8c:	d89d      	bhi.n	8002aca <_ZN2ke15raise_exceptionERNS_23exception_control_blockE+0x622>
 8002b8e:	2400      	movs	r4, #0
 8002b90:	f8dd 9000 	ldr.w	r9, [sp]
 8002b94:	4620      	mov	r0, r4
 8002b96:	4621      	mov	r1, r4
 8002b98:	e68d      	b.n	80028b6 <_ZN2ke15raise_exceptionERNS_23exception_control_blockE+0x40e>
 8002b9a:	2200      	movs	r2, #0
 8002b9c:	686b      	ldr	r3, [r5, #4]
 8002b9e:	f367 0207 	bfi	r2, r7, #0, #8
 8002ba2:	ea4f 6e13 	mov.w	lr, r3, lsr #24
 8002ba6:	88a9      	ldrh	r1, [r5, #4]
 8002ba8:	fa5f f08c 	uxtb.w	r0, ip
 8002bac:	f364 220f 	bfi	r2, r4, #8, #8
 8002bb0:	f3c3 4807 	ubfx	r8, r3, #16, #8
 8002bb4:	f36e 4217 	bfi	r2, lr, #16, #8
 8002bb8:	2801      	cmp	r0, #1
 8002bba:	f3c3 2b07 	ubfx	fp, r3, #8, #8
 8002bbe:	ba49      	rev16	r1, r1
 8002bc0:	b2db      	uxtb	r3, r3
 8002bc2:	f368 621f 	bfi	r2, r8, #24, #8
 8002bc6:	d02c      	beq.n	8002c22 <_ZN2ke15raise_exceptionERNS_23exception_control_blockE+0x77a>
 8002bc8:	2802      	cmp	r0, #2
 8002bca:	d023      	beq.n	8002c14 <_ZN2ke15raise_exceptionERNS_23exception_control_blockE+0x76c>
 8002bcc:	2200      	movs	r2, #0
 8002bce:	f36c 0207 	bfi	r2, ip, #0, #8
 8002bd2:	f367 220f 	bfi	r2, r7, #8, #8
 8002bd6:	f364 4217 	bfi	r2, r4, #16, #8
 8002bda:	f36e 621f 	bfi	r2, lr, #24, #8
 8002bde:	f88d 8010 	strb.w	r8, [sp, #16]
 8002be2:	f88d b011 	strb.w	fp, [sp, #17]
 8002be6:	f88d 3012 	strb.w	r3, [sp, #18]
 8002bea:	9203      	str	r2, [sp, #12]
 8002bec:	e49d      	b.n	800252a <_ZN2ke15raise_exceptionERNS_23exception_control_blockE+0x82>
 8002bee:	f8d0 3094 	ldr.w	r3, [r0, #148]	@ 0x94
 8002bf2:	685a      	ldr	r2, [r3, #4]
 8002bf4:	f012 6f70 	tst.w	r2, #251658240	@ 0xf000000
 8002bf8:	f47f acde 	bne.w	80025b8 <_ZN2ke15raise_exceptionERNS_23exception_control_blockE+0x110>
 8002bfc:	3308      	adds	r3, #8
 8002bfe:	e4e4      	b.n	80025ca <_ZN2ke15raise_exceptionERNS_23exception_control_blockE+0x122>
 8002c00:	f04f 34ff 	mov.w	r4, #4294967295	@ 0xffffffff
 8002c04:	e5cf      	b.n	80027a6 <_ZN2ke15raise_exceptionERNS_23exception_control_blockE+0x2fe>
 8002c06:	330c      	adds	r3, #12
 8002c08:	e4df      	b.n	80025ca <_ZN2ke15raise_exceptionERNS_23exception_control_blockE+0x122>
 8002c0a:	2419      	movs	r4, #25
 8002c0c:	1c58      	adds	r0, r3, #1
 8002c0e:	40a2      	lsls	r2, r4
 8002c10:	4122      	asrs	r2, r4
 8002c12:	e596      	b.n	8002742 <_ZN2ke15raise_exceptionERNS_23exception_control_blockE+0x29a>
 8002c14:	7aeb      	ldrb	r3, [r5, #11]
 8002c16:	9203      	str	r2, [sp, #12]
 8002c18:	f8ad 1010 	strh.w	r1, [sp, #16]
 8002c1c:	f88d 3012 	strb.w	r3, [sp, #18]
 8002c20:	e483      	b.n	800252a <_ZN2ke15raise_exceptionERNS_23exception_control_blockE+0x82>
 8002c22:	9203      	str	r2, [sp, #12]
 8002c24:	f8ad 1010 	strh.w	r1, [sp, #16]
 8002c28:	e47f      	b.n	800252a <_ZN2ke15raise_exceptionERNS_23exception_control_blockE+0x82>
 8002c2a:	2412      	movs	r4, #18
 8002c2c:	1c98      	adds	r0, r3, #2
 8002c2e:	e7ee      	b.n	8002c0e <_ZN2ke15raise_exceptionERNS_23exception_control_blockE+0x766>
 8002c30:	2412      	movs	r4, #18
 8002c32:	40a3      	lsls	r3, r4
 8002c34:	4123      	asrs	r3, r4
 8002c36:	e5a4      	b.n	8002782 <_ZN2ke15raise_exceptionERNS_23exception_control_blockE+0x2da>
 8002c38:	240b      	movs	r4, #11
 8002c3a:	40a3      	lsls	r3, r4
 8002c3c:	4123      	asrs	r3, r4
 8002c3e:	e5a0      	b.n	8002782 <_ZN2ke15raise_exceptionERNS_23exception_control_blockE+0x2da>
 8002c40:	240b      	movs	r4, #11
 8002c42:	1cd8      	adds	r0, r3, #3
 8002c44:	e7e3      	b.n	8002c0e <_ZN2ke15raise_exceptionERNS_23exception_control_blockE+0x766>
 8002c46:	2404      	movs	r4, #4
 8002c48:	e7e1      	b.n	8002c0e <_ZN2ke15raise_exceptionERNS_23exception_control_blockE+0x766>
 8002c4a:	fab1 f481 	clz	r4, r1
 8002c4e:	0964      	lsrs	r4, r4, #5
 8002c50:	e631      	b.n	80028b6 <_ZN2ke15raise_exceptionERNS_23exception_control_blockE+0x40e>
 8002c52:	fab1 f481 	clz	r4, r1
 8002c56:	0964      	lsrs	r4, r4, #5
 8002c58:	e62c      	b.n	80028b4 <_ZN2ke15raise_exceptionERNS_23exception_control_blockE+0x40c>
 8002c5a:	2112      	movs	r1, #18
 8002c5c:	3202      	adds	r2, #2
 8002c5e:	e6ef      	b.n	8002a40 <_ZN2ke15raise_exceptionERNS_23exception_control_blockE+0x598>
 8002c60:	f04f 0804 	mov.w	r8, #4
 8002c64:	e702      	b.n	8002a6c <_ZN2ke15raise_exceptionERNS_23exception_control_blockE+0x5c4>
 8002c66:	f04f 080b 	mov.w	r8, #11
 8002c6a:	3203      	adds	r2, #3
 8002c6c:	e6fe      	b.n	8002a6c <_ZN2ke15raise_exceptionERNS_23exception_control_blockE+0x5c4>
 8002c6e:	2104      	movs	r1, #4
 8002c70:	e6e6      	b.n	8002a40 <_ZN2ke15raise_exceptionERNS_23exception_control_blockE+0x598>
 8002c72:	210b      	movs	r1, #11
 8002c74:	3203      	adds	r2, #3
 8002c76:	e6e3      	b.n	8002a40 <_ZN2ke15raise_exceptionERNS_23exception_control_blockE+0x598>
 8002c78:	f04f 0812 	mov.w	r8, #18
 8002c7c:	3202      	adds	r2, #2
 8002c7e:	e6f5      	b.n	8002a6c <_ZN2ke15raise_exceptionERNS_23exception_control_blockE+0x5c4>
 8002c80:	2112      	movs	r1, #18
 8002c82:	3202      	adds	r2, #2
 8002c84:	e6e5      	b.n	8002a52 <_ZN2ke15raise_exceptionERNS_23exception_control_blockE+0x5aa>
 8002c86:	2104      	movs	r1, #4
 8002c88:	e6e3      	b.n	8002a52 <_ZN2ke15raise_exceptionERNS_23exception_control_blockE+0x5aa>
 8002c8a:	210b      	movs	r1, #11
 8002c8c:	3203      	adds	r2, #3
 8002c8e:	e6e0      	b.n	8002a52 <_ZN2ke15raise_exceptionERNS_23exception_control_blockE+0x5aa>
 8002c90:	f00e 0e7f 	and.w	lr, lr, #127	@ 0x7f
 8002c94:	e506      	b.n	80026a4 <_ZN2ke15raise_exceptionERNS_23exception_control_blockE+0x1fc>
 8002c96:	2400      	movs	r4, #0
 8002c98:	e60d      	b.n	80028b6 <_ZN2ke15raise_exceptionERNS_23exception_control_blockE+0x40e>
 8002c9a:	2112      	movs	r1, #18
 8002c9c:	3202      	adds	r2, #2
 8002c9e:	e6c4      	b.n	8002a2a <_ZN2ke15raise_exceptionERNS_23exception_control_blockE+0x582>
 8002ca0:	2104      	movs	r1, #4
 8002ca2:	e6c2      	b.n	8002a2a <_ZN2ke15raise_exceptionERNS_23exception_control_blockE+0x582>
 8002ca4:	210b      	movs	r1, #11
 8002ca6:	3203      	adds	r2, #3
 8002ca8:	e6bf      	b.n	8002a2a <_ZN2ke15raise_exceptionERNS_23exception_control_blockE+0x582>
 8002caa:	9905      	ldr	r1, [sp, #20]
 8002cac:	f8dd 9000 	ldr.w	r9, [sp]
 8002cb0:	b941      	cbnz	r1, 8002cc4 <_ZN2ke15raise_exceptionERNS_23exception_control_blockE+0x81c>
 8002cb2:	4608      	mov	r0, r1
 8002cb4:	e5ff      	b.n	80028b6 <_ZN2ke15raise_exceptionERNS_23exception_control_blockE+0x40e>
 8002cb6:	fab4 f484 	clz	r4, r4
 8002cba:	0964      	lsrs	r4, r4, #5
 8002cbc:	e5fb      	b.n	80028b6 <_ZN2ke15raise_exceptionERNS_23exception_control_blockE+0x40e>
 8002cbe:	b009      	add	sp, #36	@ 0x24
 8002cc0:	e8bd 8ff0 	ldmia.w	sp!, {r4, r5, r6, r7, r8, r9, sl, fp, pc}
 8002cc4:	2400      	movs	r4, #0
 8002cc6:	9806      	ldr	r0, [sp, #24]
 8002cc8:	e5f5      	b.n	80028b6 <_ZN2ke15raise_exceptionERNS_23exception_control_blockE+0x40e>
 8002cca:	f7fd f9e9 	bl	80000a0 <_ZSt9terminatev>
 8002cce:	bf00      	nop

08002cd0 <__wrap___cxa_rethrow>:
 8002cd0:	b510      	push	{r4, lr}
 8002cd2:	4813      	ldr	r0, [pc, #76]	@ (8002d20 <__wrap___cxa_rethrow+0x50>)
 8002cd4:	f002 f9ee 	bl	80050b4 <__emutls_get_address>
 8002cd8:	7803      	ldrb	r3, [r0, #0]
 8002cda:	b90b      	cbnz	r3, 8002ce0 <__wrap___cxa_rethrow+0x10>
 8002cdc:	f7fe fa06 	bl	80010ec <__tls_init.part.0>
 8002ce0:	4810      	ldr	r0, [pc, #64]	@ (8002d24 <__wrap___cxa_rethrow+0x54>)
 8002ce2:	f002 f9e7 	bl	80050b4 <__emutls_get_address>
 8002ce6:	4604      	mov	r4, r0
 8002ce8:	f7ff fbc6 	bl	8002478 <_ZN2ke16capture_cpu_coreERNS_12cortex_m_cpuE>
 8002cec:	f240 1201 	movw	r2, #257	@ 0x101
 8002cf0:	4b0d      	ldr	r3, [pc, #52]	@ (8002d28 <__wrap___cxa_rethrow+0x58>)
 8002cf2:	f8a4 209c 	strh.w	r2, [r4, #156]	@ 0x9c
 8002cf6:	781b      	ldrb	r3, [r3, #0]
 8002cf8:	b943      	cbnz	r3, 8002d0c <__wrap___cxa_rethrow+0x3c>
 8002cfa:	4621      	mov	r1, r4
 8002cfc:	480b      	ldr	r0, [pc, #44]	@ (8002d2c <__wrap___cxa_rethrow+0x5c>)
 8002cfe:	f7fd fef9 	bl	8000af4 <_ZN2ke12unwind_frameERKNS_14instructions_tERNS_12cortex_m_cpuE>
 8002d02:	4620      	mov	r0, r4
 8002d04:	f7ff fbd0 	bl	80024a8 <_ZN2ke15raise_exceptionERNS_23exception_control_blockE>
 8002d08:	f7fd f9ca 	bl	80000a0 <_ZSt9terminatev>
 8002d0c:	2004      	movs	r0, #4
 8002d0e:	f000 f8bf 	bl	8002e90 <__wrap___cxa_allocate_exception>
 8002d12:	4b07      	ldr	r3, [pc, #28]	@ (8002d30 <__wrap___cxa_rethrow+0x60>)
 8002d14:	4a07      	ldr	r2, [pc, #28]	@ (8002d34 <__wrap___cxa_rethrow+0x64>)
 8002d16:	4908      	ldr	r1, [pc, #32]	@ (8002d38 <__wrap___cxa_rethrow+0x68>)
 8002d18:	6003      	str	r3, [r0, #0]
 8002d1a:	f000 f80f 	bl	8002d3c <__wrap___cxa_throw>
 8002d1e:	bf00      	nop
 8002d20:	20000080 	.word	0x20000080
 8002d24:	20000070 	.word	0x20000070
 8002d28:	080073c4 	.word	0x080073c4
 8002d2c:	200001a8 	.word	0x200001a8
 8002d30:	08007948 	.word	0x08007948
 8002d34:	080030d5 	.word	0x080030d5
 8002d38:	08007934 	.word	0x08007934

08002d3c <__wrap___cxa_throw>:
 8002d3c:	e92d 4ff8 	stmdb	sp!, {r3, r4, r5, r6, r7, r8, r9, sl, fp, lr}
 8002d40:	4606      	mov	r6, r0
 8002d42:	4849      	ldr	r0, [pc, #292]	@ (8002e68 <__wrap___cxa_throw+0x12c>)
 8002d44:	460d      	mov	r5, r1
 8002d46:	4617      	mov	r7, r2
 8002d48:	f002 f9b4 	bl	80050b4 <__emutls_get_address>
 8002d4c:	7803      	ldrb	r3, [r0, #0]
 8002d4e:	b90b      	cbnz	r3, 8002d54 <__wrap___cxa_throw+0x18>
 8002d50:	f7fe f9cc 	bl	80010ec <__tls_init.part.0>
 8002d54:	4845      	ldr	r0, [pc, #276]	@ (8002e6c <__wrap___cxa_throw+0x130>)
 8002d56:	f002 f9ad 	bl	80050b4 <__emutls_get_address>
 8002d5a:	4604      	mov	r4, r0
 8002d5c:	f8c0 6084 	str.w	r6, [r0, #132]	@ 0x84
 8002d60:	f8c0 708c 	str.w	r7, [r0, #140]	@ 0x8c
 8002d64:	f7ff fb88 	bl	8002478 <_ZN2ke16capture_cpu_coreERNS_12cortex_m_cpuE>
 8002d68:	f8d4 3080 	ldr.w	r3, [r4, #128]	@ 0x80
 8002d6c:	2b08      	cmp	r3, #8
 8002d6e:	d821      	bhi.n	8002db4 <__wrap___cxa_throw+0x78>
 8002d70:	2200      	movs	r2, #0
 8002d72:	1c58      	adds	r0, r3, #1
 8002d74:	eb04 03c3 	add.w	r3, r4, r3, lsl #3
 8002d78:	f8c4 0080 	str.w	r0, [r4, #128]	@ 0x80
 8002d7c:	641d      	str	r5, [r3, #64]	@ 0x40
 8002d7e:	645a      	str	r2, [r3, #68]	@ 0x44
 8002d80:	682b      	ldr	r3, [r5, #0]
 8002d82:	4f3b      	ldr	r7, [pc, #236]	@ (8002e70 <__wrap___cxa_throw+0x134>)
 8002d84:	3b08      	subs	r3, #8
 8002d86:	42bb      	cmp	r3, r7
 8002d88:	d016      	beq.n	8002db8 <__wrap___cxa_throw+0x7c>
 8002d8a:	4a3a      	ldr	r2, [pc, #232]	@ (8002e74 <__wrap___cxa_throw+0x138>)
 8002d8c:	4293      	cmp	r3, r2
 8002d8e:	d013      	beq.n	8002db8 <__wrap___cxa_throw+0x7c>
 8002d90:	4a39      	ldr	r2, [pc, #228]	@ (8002e78 <__wrap___cxa_throw+0x13c>)
 8002d92:	4293      	cmp	r3, r2
 8002d94:	d010      	beq.n	8002db8 <__wrap___cxa_throw+0x7c>
 8002d96:	4b39      	ldr	r3, [pc, #228]	@ (8002e7c <__wrap___cxa_throw+0x140>)
 8002d98:	781b      	ldrb	r3, [r3, #0]
 8002d9a:	f003 05ff 	and.w	r5, r3, #255	@ 0xff
 8002d9e:	2b00      	cmp	r3, #0
 8002da0:	d158      	bne.n	8002e54 <__wrap___cxa_throw+0x118>
 8002da2:	4621      	mov	r1, r4
 8002da4:	4836      	ldr	r0, [pc, #216]	@ (8002e80 <__wrap___cxa_throw+0x144>)
 8002da6:	f7fd fea5 	bl	8000af4 <_ZN2ke12unwind_frameERKNS_14instructions_tERNS_12cortex_m_cpuE>
 8002daa:	4620      	mov	r0, r4
 8002dac:	f7ff fb7c 	bl	80024a8 <_ZN2ke15raise_exceptionERNS_23exception_control_blockE>
 8002db0:	f884 509c 	strb.w	r5, [r4, #156]	@ 0x9c
 8002db4:	f7fd f974 	bl	80000a0 <_ZSt9terminatev>
 8002db8:	f104 0c40 	add.w	ip, r4, #64	@ 0x40
 8002dbc:	4662      	mov	r2, ip
 8002dbe:	f8df 80b4 	ldr.w	r8, [pc, #180]	@ 8002e74 <__wrap___cxa_throw+0x138>
 8002dc2:	e006      	b.n	8002dd2 <__wrap___cxa_throw+0x96>
 8002dc4:	f8d4 0080 	ldr.w	r0, [r4, #128]	@ 0x80
 8002dc8:	3208      	adds	r2, #8
 8002dca:	eb0c 03c0 	add.w	r3, ip, r0, lsl #3
 8002dce:	429a      	cmp	r2, r3
 8002dd0:	d0e1      	beq.n	8002d96 <__wrap___cxa_throw+0x5a>
 8002dd2:	6815      	ldr	r5, [r2, #0]
 8002dd4:	682b      	ldr	r3, [r5, #0]
 8002dd6:	3b08      	subs	r3, #8
 8002dd8:	42bb      	cmp	r3, r7
 8002dda:	d0f3      	beq.n	8002dc4 <__wrap___cxa_throw+0x88>
 8002ddc:	4543      	cmp	r3, r8
 8002dde:	d02d      	beq.n	8002e3c <__wrap___cxa_throw+0x100>
 8002de0:	4925      	ldr	r1, [pc, #148]	@ (8002e78 <__wrap___cxa_throw+0x13c>)
 8002de2:	428b      	cmp	r3, r1
 8002de4:	d1ee      	bne.n	8002dc4 <__wrap___cxa_throw+0x88>
 8002de6:	68e8      	ldr	r0, [r5, #12]
 8002de8:	3002      	adds	r0, #2
 8002dea:	0040      	lsls	r0, r0, #1
 8002dec:	2804      	cmp	r0, #4
 8002dee:	d9e9      	bls.n	8002dc4 <__wrap___cxa_throw+0x88>
 8002df0:	2104      	movs	r1, #4
 8002df2:	4686      	mov	lr, r0
 8002df4:	eb05 0901 	add.w	r9, r5, r1
 8002df8:	f859 3021 	ldr.w	r3, [r9, r1, lsl #2]
 8002dfc:	0798      	lsls	r0, r3, #30
 8002dfe:	d519      	bpl.n	8002e34 <__wrap___cxa_throw+0xf8>
 8002e00:	f8d2 a004 	ldr.w	sl, [r2, #4]
 8002e04:	121b      	asrs	r3, r3, #8
 8002e06:	bf41      	itttt	mi
 8002e08:	3303      	addmi	r3, #3
 8002e0a:	f856 b00a 	ldrmi.w	fp, [r6, sl]
 8002e0e:	109b      	asrmi	r3, r3, #2
 8002e10:	f85b 3023 	ldrmi.w	r3, [fp, r3, lsl #2]
 8002e14:	f855 0021 	ldr.w	r0, [r5, r1, lsl #2]
 8002e18:	4453      	add	r3, sl
 8002e1a:	f8d4 a080 	ldr.w	sl, [r4, #128]	@ 0x80
 8002e1e:	f1ba 0f08 	cmp.w	sl, #8
 8002e22:	d8c7      	bhi.n	8002db4 <__wrap___cxa_throw+0x78>
 8002e24:	eb04 0bca 	add.w	fp, r4, sl, lsl #3
 8002e28:	f10a 0a01 	add.w	sl, sl, #1
 8002e2c:	f8c4 a080 	str.w	sl, [r4, #128]	@ 0x80
 8002e30:	e9cb 0310 	strd	r0, r3, [fp, #64]	@ 0x40
 8002e34:	3102      	adds	r1, #2
 8002e36:	4571      	cmp	r1, lr
 8002e38:	d3de      	bcc.n	8002df8 <__wrap___cxa_throw+0xbc>
 8002e3a:	e7c3      	b.n	8002dc4 <__wrap___cxa_throw+0x88>
 8002e3c:	2808      	cmp	r0, #8
 8002e3e:	68ad      	ldr	r5, [r5, #8]
 8002e40:	6851      	ldr	r1, [r2, #4]
 8002e42:	d8b7      	bhi.n	8002db4 <__wrap___cxa_throw+0x78>
 8002e44:	eb04 03c0 	add.w	r3, r4, r0, lsl #3
 8002e48:	3001      	adds	r0, #1
 8002e4a:	f8c4 0080 	str.w	r0, [r4, #128]	@ 0x80
 8002e4e:	e9c3 5110 	strd	r5, r1, [r3, #64]	@ 0x40
 8002e52:	e7b7      	b.n	8002dc4 <__wrap___cxa_throw+0x88>
 8002e54:	2004      	movs	r0, #4
 8002e56:	f000 f81b 	bl	8002e90 <__wrap___cxa_allocate_exception>
 8002e5a:	4b0a      	ldr	r3, [pc, #40]	@ (8002e84 <__wrap___cxa_throw+0x148>)
 8002e5c:	4a0a      	ldr	r2, [pc, #40]	@ (8002e88 <__wrap___cxa_throw+0x14c>)
 8002e5e:	490b      	ldr	r1, [pc, #44]	@ (8002e8c <__wrap___cxa_throw+0x150>)
 8002e60:	6003      	str	r3, [r0, #0]
 8002e62:	f7ff ff6b 	bl	8002d3c <__wrap___cxa_throw>
 8002e66:	bf00      	nop
 8002e68:	20000080 	.word	0x20000080
 8002e6c:	20000070 	.word	0x20000070
 8002e70:	08007984 	.word	0x08007984
 8002e74:	080079fc 	.word	0x080079fc
 8002e78:	08007a74 	.word	0x08007a74
 8002e7c:	080073c4 	.word	0x080073c4
 8002e80:	200001a0 	.word	0x200001a0
 8002e84:	08007948 	.word	0x08007948
 8002e88:	080030d5 	.word	0x080030d5
 8002e8c:	08007934 	.word	0x08007934

08002e90 <__wrap___cxa_allocate_exception>:
 8002e90:	b570      	push	{r4, r5, r6, lr}
 8002e92:	4606      	mov	r6, r0
 8002e94:	4823      	ldr	r0, [pc, #140]	@ (8002f24 <__wrap___cxa_allocate_exception+0x94>)
 8002e96:	f002 f90d 	bl	80050b4 <__emutls_get_address>
 8002e9a:	4605      	mov	r5, r0
 8002e9c:	4822      	ldr	r0, [pc, #136]	@ (8002f28 <__wrap___cxa_allocate_exception+0x98>)
 8002e9e:	f002 f909 	bl	80050b4 <__emutls_get_address>
 8002ea2:	7829      	ldrb	r1, [r5, #0]
 8002ea4:	4604      	mov	r4, r0
 8002ea6:	b9a9      	cbnz	r1, 8002ed4 <__wrap___cxa_allocate_exception+0x44>
 8002ea8:	2301      	movs	r3, #1
 8002eaa:	2244      	movs	r2, #68	@ 0x44
 8002eac:	702b      	strb	r3, [r5, #0]
 8002eae:	3040      	adds	r0, #64	@ 0x40
 8002eb0:	e9c4 1100 	strd	r1, r1, [r4]
 8002eb4:	e9c4 1102 	strd	r1, r1, [r4, #8]
 8002eb8:	e9c4 1104 	strd	r1, r1, [r4, #16]
 8002ebc:	e9c4 1106 	strd	r1, r1, [r4, #24]
 8002ec0:	e9c4 1108 	strd	r1, r1, [r4, #32]
 8002ec4:	e9c4 110a 	strd	r1, r1, [r4, #40]	@ 0x28
 8002ec8:	e9c4 110c 	strd	r1, r1, [r4, #48]	@ 0x30
 8002ecc:	e9c4 110e 	strd	r1, r1, [r4, #56]	@ 0x38
 8002ed0:	f002 f912 	bl	80050f8 <memset>
 8002ed4:	f894 309c 	ldrb.w	r3, [r4, #156]	@ 0x9c
 8002ed8:	b9fb      	cbnz	r3, 8002f1a <__wrap___cxa_allocate_exception+0x8a>
 8002eda:	2301      	movs	r3, #1
 8002edc:	4d13      	ldr	r5, [pc, #76]	@ (8002f2c <__wrap___cxa_allocate_exception+0x9c>)
 8002ede:	f884 309c 	strb.w	r3, [r4, #156]	@ 0x9c
 8002ee2:	6828      	ldr	r0, [r5, #0]
 8002ee4:	4a12      	ldr	r2, [pc, #72]	@ (8002f30 <__wrap___cxa_allocate_exception+0xa0>)
 8002ee6:	6880      	ldr	r0, [r0, #8]
 8002ee8:	f106 0110 	add.w	r1, r6, #16
 8002eec:	4290      	cmp	r0, r2
 8002eee:	d10c      	bne.n	8002f0a <__wrap___cxa_allocate_exception+0x7a>
 8002ef0:	f895 2048 	ldrb.w	r2, [r5, #72]	@ 0x48
 8002ef4:	b99a      	cbnz	r2, 8002f1e <__wrap___cxa_allocate_exception+0x8e>
 8002ef6:	2940      	cmp	r1, #64	@ 0x40
 8002ef8:	d811      	bhi.n	8002f1e <__wrap___cxa_allocate_exception+0x8e>
 8002efa:	f105 0008 	add.w	r0, r5, #8
 8002efe:	f885 3048 	strb.w	r3, [r5, #72]	@ 0x48
 8002f02:	e9c0 5100 	strd	r5, r1, [r0]
 8002f06:	3008      	adds	r0, #8
 8002f08:	bd70      	pop	{r4, r5, r6, pc}
 8002f0a:	2208      	movs	r2, #8
 8002f0c:	4628      	mov	r0, r5
 8002f0e:	f7fd fcff 	bl	8000910 <_ZN3hal26single_exception_allocator11do_allocateEjj>
 8002f12:	e9c0 5100 	strd	r5, r1, [r0]
 8002f16:	3008      	adds	r0, #8
 8002f18:	bd70      	pop	{r4, r5, r6, pc}
 8002f1a:	f7fd f8c1 	bl	80000a0 <_ZSt9terminatev>
 8002f1e:	2300      	movs	r3, #0
 8002f20:	601d      	str	r5, [r3, #0]
 8002f22:	deff      	udf	#255	@ 0xff
 8002f24:	20000080 	.word	0x20000080
 8002f28:	20000070 	.word	0x20000070
 8002f2c:	20000020 	.word	0x20000020
 8002f30:	08000911 	.word	0x08000911

08002f34 <__wrap___cxa_free_exception>:
 8002f34:	4602      	mov	r2, r0
 8002f36:	f850 0c08 	ldr.w	r0, [r0, #-8]
 8002f3a:	b510      	push	{r4, lr}
 8002f3c:	6804      	ldr	r4, [r0, #0]
 8002f3e:	4b0b      	ldr	r3, [pc, #44]	@ (8002f6c <__wrap___cxa_free_exception+0x38>)
 8002f40:	68e4      	ldr	r4, [r4, #12]
 8002f42:	f1a2 0108 	sub.w	r1, r2, #8
 8002f46:	429c      	cmp	r4, r3
 8002f48:	d107      	bne.n	8002f5a <__wrap___cxa_free_exception+0x26>
 8002f4a:	f100 0308 	add.w	r3, r0, #8
 8002f4e:	4299      	cmp	r1, r3
 8002f50:	d10a      	bne.n	8002f68 <__wrap___cxa_free_exception+0x34>
 8002f52:	2300      	movs	r3, #0
 8002f54:	f880 3048 	strb.w	r3, [r0, #72]	@ 0x48
 8002f58:	bd10      	pop	{r4, pc}
 8002f5a:	46a4      	mov	ip, r4
 8002f5c:	e8bd 4010 	ldmia.w	sp!, {r4, lr}
 8002f60:	2308      	movs	r3, #8
 8002f62:	f852 2c04 	ldr.w	r2, [r2, #-4]
 8002f66:	4760      	bx	ip
 8002f68:	f7fd f89a 	bl	80000a0 <_ZSt9terminatev>
 8002f6c:	080010d5 	.word	0x080010d5

08002f70 <__wrap___cxa_end_catch>:
 8002f70:	b570      	push	{r4, r5, r6, lr}
 8002f72:	4821      	ldr	r0, [pc, #132]	@ (8002ff8 <__wrap___cxa_end_catch+0x88>)
 8002f74:	f002 f89e 	bl	80050b4 <__emutls_get_address>
 8002f78:	4605      	mov	r5, r0
 8002f7a:	4820      	ldr	r0, [pc, #128]	@ (8002ffc <__wrap___cxa_end_catch+0x8c>)
 8002f7c:	f002 f89a 	bl	80050b4 <__emutls_get_address>
 8002f80:	7829      	ldrb	r1, [r5, #0]
 8002f82:	4604      	mov	r4, r0
 8002f84:	b9a9      	cbnz	r1, 8002fb2 <__wrap___cxa_end_catch+0x42>
 8002f86:	2301      	movs	r3, #1
 8002f88:	2244      	movs	r2, #68	@ 0x44
 8002f8a:	702b      	strb	r3, [r5, #0]
 8002f8c:	3040      	adds	r0, #64	@ 0x40
 8002f8e:	e9c4 1100 	strd	r1, r1, [r4]
 8002f92:	e9c4 1102 	strd	r1, r1, [r4, #8]
 8002f96:	e9c4 1104 	strd	r1, r1, [r4, #16]
 8002f9a:	e9c4 1106 	strd	r1, r1, [r4, #24]
 8002f9e:	e9c4 1108 	strd	r1, r1, [r4, #32]
 8002fa2:	e9c4 110a 	strd	r1, r1, [r4, #40]	@ 0x28
 8002fa6:	e9c4 110c 	strd	r1, r1, [r4, #48]	@ 0x30
 8002faa:	e9c4 110e 	strd	r1, r1, [r4, #56]	@ 0x38
 8002fae:	f002 f8a3 	bl	80050f8 <memset>
 8002fb2:	f894 309d 	ldrb.w	r3, [r4, #157]	@ 0x9d
 8002fb6:	b11b      	cbz	r3, 8002fc0 <__wrap___cxa_end_catch+0x50>
 8002fb8:	2300      	movs	r3, #0
 8002fba:	f884 309d 	strb.w	r3, [r4, #157]	@ 0x9d
 8002fbe:	bd70      	pop	{r4, r5, r6, pc}
 8002fc0:	f8d4 2084 	ldr.w	r2, [r4, #132]	@ 0x84
 8002fc4:	4d0e      	ldr	r5, [pc, #56]	@ (8003000 <__wrap___cxa_end_catch+0x90>)
 8002fc6:	f852 0c08 	ldr.w	r0, [r2, #-8]
 8002fca:	f1a2 0108 	sub.w	r1, r2, #8
 8002fce:	6804      	ldr	r4, [r0, #0]
 8002fd0:	68e4      	ldr	r4, [r4, #12]
 8002fd2:	42ac      	cmp	r4, r5
 8002fd4:	d108      	bne.n	8002fe8 <__wrap___cxa_end_catch+0x78>
 8002fd6:	f100 0208 	add.w	r2, r0, #8
 8002fda:	4291      	cmp	r1, r2
 8002fdc:	bf08      	it	eq
 8002fde:	f880 3048 	strbeq.w	r3, [r0, #72]	@ 0x48
 8002fe2:	d0ec      	beq.n	8002fbe <__wrap___cxa_end_catch+0x4e>
 8002fe4:	f7fd f85c 	bl	80000a0 <_ZSt9terminatev>
 8002fe8:	46a4      	mov	ip, r4
 8002fea:	e8bd 4070 	ldmia.w	sp!, {r4, r5, r6, lr}
 8002fee:	2308      	movs	r3, #8
 8002ff0:	f852 2c04 	ldr.w	r2, [r2, #-4]
 8002ff4:	4760      	bx	ip
 8002ff6:	bf00      	nop
 8002ff8:	20000080 	.word	0x20000080
 8002ffc:	20000070 	.word	0x20000070
 8003000:	080010d5 	.word	0x080010d5

08003004 <__wrap___cxa_begin_catch>:
 8003004:	b538      	push	{r3, r4, r5, lr}
 8003006:	4813      	ldr	r0, [pc, #76]	@ (8003054 <__wrap___cxa_begin_catch+0x50>)
 8003008:	f002 f854 	bl	80050b4 <__emutls_get_address>
 800300c:	4605      	mov	r5, r0
 800300e:	4812      	ldr	r0, [pc, #72]	@ (8003058 <__wrap___cxa_begin_catch+0x54>)
 8003010:	f002 f850 	bl	80050b4 <__emutls_get_address>
 8003014:	7829      	ldrb	r1, [r5, #0]
 8003016:	4604      	mov	r4, r0
 8003018:	b9a9      	cbnz	r1, 8003046 <__wrap___cxa_begin_catch+0x42>
 800301a:	2301      	movs	r3, #1
 800301c:	2244      	movs	r2, #68	@ 0x44
 800301e:	702b      	strb	r3, [r5, #0]
 8003020:	3040      	adds	r0, #64	@ 0x40
 8003022:	e9c4 1100 	strd	r1, r1, [r4]
 8003026:	e9c4 1102 	strd	r1, r1, [r4, #8]
 800302a:	e9c4 1104 	strd	r1, r1, [r4, #16]
 800302e:	e9c4 1106 	strd	r1, r1, [r4, #24]
 8003032:	e9c4 1108 	strd	r1, r1, [r4, #32]
 8003036:	e9c4 110a 	strd	r1, r1, [r4, #40]	@ 0x28
 800303a:	e9c4 110c 	strd	r1, r1, [r4, #48]	@ 0x30
 800303e:	e9c4 110e 	strd	r1, r1, [r4, #56]	@ 0x38
 8003042:	f002 f859 	bl	80050f8 <memset>
 8003046:	2300      	movs	r3, #0
 8003048:	f884 309c 	strb.w	r3, [r4, #156]	@ 0x9c
 800304c:	f8d4 0084 	ldr.w	r0, [r4, #132]	@ 0x84
 8003050:	bd38      	pop	{r3, r4, r5, pc}
 8003052:	bf00      	nop
 8003054:	20000080 	.word	0x20000080
 8003058:	20000070 	.word	0x20000070

0800305c <__wrap___cxa_end_cleanup>:
 800305c:	b508      	push	{r3, lr}
 800305e:	4808      	ldr	r0, [pc, #32]	@ (8003080 <__wrap___cxa_end_cleanup+0x24>)
 8003060:	f002 f828 	bl	80050b4 <__emutls_get_address>
 8003064:	7803      	ldrb	r3, [r0, #0]
 8003066:	b90b      	cbnz	r3, 800306c <__wrap___cxa_end_cleanup+0x10>
 8003068:	f7fe f840 	bl	80010ec <__tls_init.part.0>
 800306c:	4805      	ldr	r0, [pc, #20]	@ (8003084 <__wrap___cxa_end_cleanup+0x28>)
 800306e:	f002 f821 	bl	80050b4 <__emutls_get_address>
 8003072:	2303      	movs	r3, #3
 8003074:	f880 309c 	strb.w	r3, [r0, #156]	@ 0x9c
 8003078:	f7ff fa16 	bl	80024a8 <_ZN2ke15raise_exceptionERNS_23exception_control_blockE>
 800307c:	f7fd f810 	bl	80000a0 <_ZSt9terminatev>
 8003080:	20000080 	.word	0x20000080
 8003084:	20000070 	.word	0x20000070

08003088 <__wrap__Unwind_Resume>:
 8003088:	b508      	push	{r3, lr}
 800308a:	4808      	ldr	r0, [pc, #32]	@ (80030ac <__wrap__Unwind_Resume+0x24>)
 800308c:	f002 f812 	bl	80050b4 <__emutls_get_address>
 8003090:	7803      	ldrb	r3, [r0, #0]
 8003092:	b90b      	cbnz	r3, 8003098 <__wrap__Unwind_Resume+0x10>
 8003094:	f7fe f82a 	bl	80010ec <__tls_init.part.0>
 8003098:	4805      	ldr	r0, [pc, #20]	@ (80030b0 <__wrap__Unwind_Resume+0x28>)
 800309a:	f002 f80b 	bl	80050b4 <__emutls_get_address>
 800309e:	2303      	movs	r3, #3
 80030a0:	f880 309c 	strb.w	r3, [r0, #156]	@ 0x9c
 80030a4:	f7ff fa00 	bl	80024a8 <_ZN2ke15raise_exceptionERNS_23exception_control_blockE>
 80030a8:	f7fc fffa 	bl	80000a0 <_ZSt9terminatev>
 80030ac:	20000080 	.word	0x20000080
 80030b0:	20000070 	.word	0x20000070

080030b4 <__wrap___aeabi_unwind_cpp_pr0>:
 80030b4:	4770      	bx	lr
 80030b6:	bf00      	nop

080030b8 <__wrap___aeabi_unwind_cpp_pr1>:
 80030b8:	4770      	bx	lr
 80030ba:	bf00      	nop

080030bc <__wrap___gxx_personality_v0>:
 80030bc:	4770      	bx	lr
 80030be:	bf00      	nop

080030c0 <__aeabi_atexit>:
 80030c0:	460b      	mov	r3, r1
 80030c2:	4601      	mov	r1, r0
 80030c4:	4618      	mov	r0, r3
 80030c6:	f002 b957 	b.w	8005378 <__cxa_atexit>
 80030ca:	bf00      	nop

080030cc <_ZNKSt9bad_alloc4whatEv>:
 80030cc:	4800      	ldr	r0, [pc, #0]	@ (80030d0 <_ZNKSt9bad_alloc4whatEv+0x4>)
 80030ce:	4770      	bx	lr
 80030d0:	080077d0 	.word	0x080077d0

080030d4 <_ZNSt9bad_allocD1Ev>:
 80030d4:	b510      	push	{r4, lr}
 80030d6:	4604      	mov	r4, r0
 80030d8:	4b02      	ldr	r3, [pc, #8]	@ (80030e4 <_ZNSt9bad_allocD1Ev+0x10>)
 80030da:	6003      	str	r3, [r0, #0]
 80030dc:	f000 f892 	bl	8003204 <_ZNSt9exceptionD1Ev>
 80030e0:	4620      	mov	r0, r4
 80030e2:	bd10      	pop	{r4, pc}
 80030e4:	08007948 	.word	0x08007948

080030e8 <_ZNSt9bad_allocD0Ev>:
 80030e8:	b510      	push	{r4, lr}
 80030ea:	4604      	mov	r4, r0
 80030ec:	4b04      	ldr	r3, [pc, #16]	@ (8003100 <_ZNSt9bad_allocD0Ev+0x18>)
 80030ee:	6003      	str	r3, [r0, #0]
 80030f0:	f000 f888 	bl	8003204 <_ZNSt9exceptionD1Ev>
 80030f4:	4620      	mov	r0, r4
 80030f6:	2104      	movs	r1, #4
 80030f8:	f000 f882 	bl	8003200 <_ZdlPvj>
 80030fc:	4620      	mov	r0, r4
 80030fe:	bd10      	pop	{r4, pc}
 8003100:	08007948 	.word	0x08007948

08003104 <_ZNK10__cxxabiv117__class_type_info11__do_upcastEPKS0_PPv>:
 8003104:	2310      	movs	r3, #16
 8003106:	b570      	push	{r4, r5, r6, lr}
 8003108:	2400      	movs	r4, #0
 800310a:	b084      	sub	sp, #16
 800310c:	9302      	str	r3, [sp, #8]
 800310e:	6803      	ldr	r3, [r0, #0]
 8003110:	4615      	mov	r5, r2
 8003112:	699e      	ldr	r6, [r3, #24]
 8003114:	6812      	ldr	r2, [r2, #0]
 8003116:	466b      	mov	r3, sp
 8003118:	9400      	str	r4, [sp, #0]
 800311a:	9401      	str	r4, [sp, #4]
 800311c:	9403      	str	r4, [sp, #12]
 800311e:	47b0      	blx	r6
 8003120:	f89d 3004 	ldrb.w	r3, [sp, #4]
 8003124:	f003 0306 	and.w	r3, r3, #6
 8003128:	2b06      	cmp	r3, #6
 800312a:	bf09      	itett	eq
 800312c:	2001      	moveq	r0, #1
 800312e:	4620      	movne	r0, r4
 8003130:	9b00      	ldreq	r3, [sp, #0]
 8003132:	602b      	streq	r3, [r5, #0]
 8003134:	b004      	add	sp, #16
 8003136:	bd70      	pop	{r4, r5, r6, pc}

08003138 <_ZNK10__cxxabiv117__class_type_info20__do_find_public_srcEiPKvPKS0_S2_>:
 8003138:	9800      	ldr	r0, [sp, #0]
 800313a:	4290      	cmp	r0, r2
 800313c:	bf0c      	ite	eq
 800313e:	2006      	moveq	r0, #6
 8003140:	2001      	movne	r0, #1
 8003142:	4770      	bx	lr

08003144 <_ZN10__cxxabiv117__class_type_infoD1Ev>:
 8003144:	b510      	push	{r4, lr}
 8003146:	4604      	mov	r4, r0
 8003148:	4b02      	ldr	r3, [pc, #8]	@ (8003154 <_ZN10__cxxabiv117__class_type_infoD1Ev+0x10>)
 800314a:	6003      	str	r3, [r0, #0]
 800314c:	f000 f8f2 	bl	8003334 <_ZNSt9type_infoD1Ev>
 8003150:	4620      	mov	r0, r4
 8003152:	bd10      	pop	{r4, pc}
 8003154:	0800798c 	.word	0x0800798c

08003158 <_ZN10__cxxabiv117__class_type_infoD0Ev>:
 8003158:	b510      	push	{r4, lr}
 800315a:	4604      	mov	r4, r0
 800315c:	4b04      	ldr	r3, [pc, #16]	@ (8003170 <_ZN10__cxxabiv117__class_type_infoD0Ev+0x18>)
 800315e:	6003      	str	r3, [r0, #0]
 8003160:	f000 f8e8 	bl	8003334 <_ZNSt9type_infoD1Ev>
 8003164:	4620      	mov	r0, r4
 8003166:	2108      	movs	r1, #8
 8003168:	f000 f84a 	bl	8003200 <_ZdlPvj>
 800316c:	4620      	mov	r0, r4
 800316e:	bd10      	pop	{r4, pc}
 8003170:	0800798c 	.word	0x0800798c

08003174 <_ZNK10__cxxabiv117__class_type_info12__do_dyncastEiNS0_10__sub_kindEPKS0_PKvS3_S5_RNS0_16__dyncast_resultE>:
 8003174:	e92d 41f0 	stmdb	sp!, {r4, r5, r6, r7, r8, lr}
 8003178:	9f06      	ldr	r7, [sp, #24]
 800317a:	e9dd 1508 	ldrd	r1, r5, [sp, #32]
 800317e:	428f      	cmp	r7, r1
 8003180:	4604      	mov	r4, r0
 8003182:	4690      	mov	r8, r2
 8003184:	461e      	mov	r6, r3
 8003186:	d00c      	beq.n	80031a2 <_ZNK10__cxxabiv117__class_type_info12__do_dyncastEiNS0_10__sub_kindEPKS0_PKvS3_S5_RNS0_16__dyncast_resultE+0x2e>
 8003188:	4631      	mov	r1, r6
 800318a:	4620      	mov	r0, r4
 800318c:	f000 f8d6 	bl	800333c <_ZNKSt9type_info7__equalERKS_>
 8003190:	b120      	cbz	r0, 800319c <_ZNK10__cxxabiv117__class_type_info12__do_dyncastEiNS0_10__sub_kindEPKS0_PKvS3_S5_RNS0_16__dyncast_resultE+0x28>
 8003192:	2301      	movs	r3, #1
 8003194:	602f      	str	r7, [r5, #0]
 8003196:	f885 8004 	strb.w	r8, [r5, #4]
 800319a:	71ab      	strb	r3, [r5, #6]
 800319c:	2000      	movs	r0, #0
 800319e:	e8bd 81f0 	ldmia.w	sp!, {r4, r5, r6, r7, r8, pc}
 80031a2:	9907      	ldr	r1, [sp, #28]
 80031a4:	f000 f8ca 	bl	800333c <_ZNKSt9type_info7__equalERKS_>
 80031a8:	2800      	cmp	r0, #0
 80031aa:	d0ed      	beq.n	8003188 <_ZNK10__cxxabiv117__class_type_info12__do_dyncastEiNS0_10__sub_kindEPKS0_PKvS3_S5_RNS0_16__dyncast_resultE+0x14>
 80031ac:	2000      	movs	r0, #0
 80031ae:	f885 8005 	strb.w	r8, [r5, #5]
 80031b2:	e8bd 81f0 	ldmia.w	sp!, {r4, r5, r6, r7, r8, pc}
 80031b6:	bf00      	nop

080031b8 <_ZNK10__cxxabiv117__class_type_info11__do_upcastEPKS0_PKvRNS0_15__upcast_resultE>:
 80031b8:	b538      	push	{r3, r4, r5, lr}
 80031ba:	4615      	mov	r5, r2
 80031bc:	461c      	mov	r4, r3
 80031be:	f000 f8bd 	bl	800333c <_ZNKSt9type_info7__equalERKS_>
 80031c2:	b900      	cbnz	r0, 80031c6 <_ZNK10__cxxabiv117__class_type_info11__do_upcastEPKS0_PKvRNS0_15__upcast_resultE+0xe>
 80031c4:	bd38      	pop	{r3, r4, r5, pc}
 80031c6:	2208      	movs	r2, #8
 80031c8:	2306      	movs	r3, #6
 80031ca:	6025      	str	r5, [r4, #0]
 80031cc:	60e2      	str	r2, [r4, #12]
 80031ce:	7123      	strb	r3, [r4, #4]
 80031d0:	bd38      	pop	{r3, r4, r5, pc}
 80031d2:	bf00      	nop

080031d4 <_ZNK10__cxxabiv117__class_type_info10__do_catchEPKSt9type_infoPPvj>:
 80031d4:	e92d 41f0 	stmdb	sp!, {r4, r5, r6, r7, r8, lr}
 80031d8:	4606      	mov	r6, r0
 80031da:	4617      	mov	r7, r2
 80031dc:	461d      	mov	r5, r3
 80031de:	460c      	mov	r4, r1
 80031e0:	f000 f8ac 	bl	800333c <_ZNKSt9type_info7__equalERKS_>
 80031e4:	b948      	cbnz	r0, 80031fa <_ZNK10__cxxabiv117__class_type_info10__do_catchEPKSt9type_infoPPvj+0x26>
 80031e6:	2d03      	cmp	r5, #3
 80031e8:	d807      	bhi.n	80031fa <_ZNK10__cxxabiv117__class_type_info10__do_catchEPKSt9type_infoPPvj+0x26>
 80031ea:	6823      	ldr	r3, [r4, #0]
 80031ec:	463a      	mov	r2, r7
 80031ee:	4631      	mov	r1, r6
 80031f0:	4620      	mov	r0, r4
 80031f2:	e8bd 41f0 	ldmia.w	sp!, {r4, r5, r6, r7, r8, lr}
 80031f6:	695b      	ldr	r3, [r3, #20]
 80031f8:	4718      	bx	r3
 80031fa:	e8bd 81f0 	ldmia.w	sp!, {r4, r5, r6, r7, r8, pc}
 80031fe:	bf00      	nop

08003200 <_ZdlPvj>:
 8003200:	f000 bc54 	b.w	8003aac <_ZdlPv>

08003204 <_ZNSt9exceptionD1Ev>:
 8003204:	4770      	bx	lr
 8003206:	bf00      	nop

08003208 <_ZN10__cxxabiv111__terminateEPFvvE>:
 8003208:	b508      	push	{r3, lr}
 800320a:	4780      	blx	r0
 800320c:	f7fc ffe4 	bl	80001d8 <abort>
 8003210:	f7ff fef8 	bl	8003004 <__wrap___cxa_begin_catch>
 8003214:	f7fc ffe0 	bl	80001d8 <abort>

08003218 <_ZN10__cxxabiv120__si_class_type_infoD1Ev>:
 8003218:	b510      	push	{r4, lr}
 800321a:	4604      	mov	r4, r0
 800321c:	4b02      	ldr	r3, [pc, #8]	@ (8003228 <_ZN10__cxxabiv120__si_class_type_infoD1Ev+0x10>)
 800321e:	6003      	str	r3, [r0, #0]
 8003220:	f7ff ff90 	bl	8003144 <_ZN10__cxxabiv117__class_type_infoD1Ev>
 8003224:	4620      	mov	r0, r4
 8003226:	bd10      	pop	{r4, pc}
 8003228:	08007a04 	.word	0x08007a04

0800322c <_ZN10__cxxabiv120__si_class_type_infoD0Ev>:
 800322c:	b510      	push	{r4, lr}
 800322e:	4604      	mov	r4, r0
 8003230:	4b04      	ldr	r3, [pc, #16]	@ (8003244 <_ZN10__cxxabiv120__si_class_type_infoD0Ev+0x18>)
 8003232:	6003      	str	r3, [r0, #0]
 8003234:	f7ff ff86 	bl	8003144 <_ZN10__cxxabiv117__class_type_infoD1Ev>
 8003238:	4620      	mov	r0, r4
 800323a:	210c      	movs	r1, #12
 800323c:	f7ff ffe0 	bl	8003200 <_ZdlPvj>
 8003240:	4620      	mov	r0, r4
 8003242:	bd10      	pop	{r4, pc}
 8003244:	08007a04 	.word	0x08007a04

08003248 <_ZNK10__cxxabiv120__si_class_type_info20__do_find_public_srcEiPKvPKNS_17__class_type_infoES2_>:
 8003248:	b570      	push	{r4, r5, r6, lr}
 800324a:	b082      	sub	sp, #8
 800324c:	9e06      	ldr	r6, [sp, #24]
 800324e:	4604      	mov	r4, r0
 8003250:	4296      	cmp	r6, r2
 8003252:	460d      	mov	r5, r1
 8003254:	d009      	beq.n	800326a <_ZNK10__cxxabiv120__si_class_type_info20__do_find_public_srcEiPKvPKNS_17__class_type_infoES2_+0x22>
 8003256:	68a0      	ldr	r0, [r4, #8]
 8003258:	4629      	mov	r1, r5
 800325a:	6804      	ldr	r4, [r0, #0]
 800325c:	9606      	str	r6, [sp, #24]
 800325e:	6a24      	ldr	r4, [r4, #32]
 8003260:	46a4      	mov	ip, r4
 8003262:	b002      	add	sp, #8
 8003264:	e8bd 4070 	ldmia.w	sp!, {r4, r5, r6, lr}
 8003268:	4760      	bx	ip
 800326a:	4619      	mov	r1, r3
 800326c:	9201      	str	r2, [sp, #4]
 800326e:	9300      	str	r3, [sp, #0]
 8003270:	f000 f864 	bl	800333c <_ZNKSt9type_info7__equalERKS_>
 8003274:	e9dd 3200 	ldrd	r3, r2, [sp]
 8003278:	2800      	cmp	r0, #0
 800327a:	d0ec      	beq.n	8003256 <_ZNK10__cxxabiv120__si_class_type_info20__do_find_public_srcEiPKvPKNS_17__class_type_infoES2_+0xe>
 800327c:	2006      	movs	r0, #6
 800327e:	b002      	add	sp, #8
 8003280:	bd70      	pop	{r4, r5, r6, pc}
 8003282:	bf00      	nop

08003284 <_ZNK10__cxxabiv120__si_class_type_info12__do_dyncastEiNS_17__class_type_info10__sub_kindEPKS1_PKvS4_S6_RNS1_16__dyncast_resultE>:
 8003284:	e92d 4ff0 	stmdb	sp!, {r4, r5, r6, r7, r8, r9, sl, fp, lr}
 8003288:	460d      	mov	r5, r1
 800328a:	b081      	sub	sp, #4
 800328c:	4619      	mov	r1, r3
 800328e:	e9dd 8b0a 	ldrd	r8, fp, [sp, #40]	@ 0x28
 8003292:	e9dd a90c 	ldrd	sl, r9, [sp, #48]	@ 0x30
 8003296:	461c      	mov	r4, r3
 8003298:	4607      	mov	r7, r0
 800329a:	4616      	mov	r6, r2
 800329c:	f000 f84e 	bl	800333c <_ZNKSt9type_info7__equalERKS_>
 80032a0:	b980      	cbnz	r0, 80032c4 <_ZNK10__cxxabiv120__si_class_type_info12__do_dyncastEiNS_17__class_type_info10__sub_kindEPKS1_PKvS4_S6_RNS1_16__dyncast_resultE+0x40>
 80032a2:	45d0      	cmp	r8, sl
 80032a4:	d027      	beq.n	80032f6 <_ZNK10__cxxabiv120__si_class_type_info12__do_dyncastEiNS_17__class_type_info10__sub_kindEPKS1_PKvS4_S6_RNS1_16__dyncast_resultE+0x72>
 80032a6:	68b8      	ldr	r0, [r7, #8]
 80032a8:	4623      	mov	r3, r4
 80032aa:	6804      	ldr	r4, [r0, #0]
 80032ac:	e9cd a90c 	strd	sl, r9, [sp, #48]	@ 0x30
 80032b0:	e9cd 8b0a 	strd	r8, fp, [sp, #40]	@ 0x28
 80032b4:	69e4      	ldr	r4, [r4, #28]
 80032b6:	4632      	mov	r2, r6
 80032b8:	4629      	mov	r1, r5
 80032ba:	46a4      	mov	ip, r4
 80032bc:	b001      	add	sp, #4
 80032be:	e8bd 4ff0 	ldmia.w	sp!, {r4, r5, r6, r7, r8, r9, sl, fp, lr}
 80032c2:	4760      	bx	ip
 80032c4:	2d00      	cmp	r5, #0
 80032c6:	f8c9 8000 	str.w	r8, [r9]
 80032ca:	f889 6004 	strb.w	r6, [r9, #4]
 80032ce:	db0c      	blt.n	80032ea <_ZNK10__cxxabiv120__si_class_type_info12__do_dyncastEiNS_17__class_type_info10__sub_kindEPKS1_PKvS4_S6_RNS1_16__dyncast_resultE+0x66>
 80032d0:	44a8      	add	r8, r5
 80032d2:	45c2      	cmp	sl, r8
 80032d4:	bf14      	ite	ne
 80032d6:	f04f 0801 	movne.w	r8, #1
 80032da:	f04f 0806 	moveq.w	r8, #6
 80032de:	f889 8006 	strb.w	r8, [r9, #6]
 80032e2:	2000      	movs	r0, #0
 80032e4:	b001      	add	sp, #4
 80032e6:	e8bd 8ff0 	ldmia.w	sp!, {r4, r5, r6, r7, r8, r9, sl, fp, pc}
 80032ea:	3502      	adds	r5, #2
 80032ec:	d1f9      	bne.n	80032e2 <_ZNK10__cxxabiv120__si_class_type_info12__do_dyncastEiNS_17__class_type_info10__sub_kindEPKS1_PKvS4_S6_RNS1_16__dyncast_resultE+0x5e>
 80032ee:	2301      	movs	r3, #1
 80032f0:	f889 3006 	strb.w	r3, [r9, #6]
 80032f4:	e7f5      	b.n	80032e2 <_ZNK10__cxxabiv120__si_class_type_info12__do_dyncastEiNS_17__class_type_info10__sub_kindEPKS1_PKvS4_S6_RNS1_16__dyncast_resultE+0x5e>
 80032f6:	4659      	mov	r1, fp
 80032f8:	4638      	mov	r0, r7
 80032fa:	f000 f81f 	bl	800333c <_ZNKSt9type_info7__equalERKS_>
 80032fe:	2800      	cmp	r0, #0
 8003300:	d0d1      	beq.n	80032a6 <_ZNK10__cxxabiv120__si_class_type_info12__do_dyncastEiNS_17__class_type_info10__sub_kindEPKS1_PKvS4_S6_RNS1_16__dyncast_resultE+0x22>
 8003302:	f889 6005 	strb.w	r6, [r9, #5]
 8003306:	e7ec      	b.n	80032e2 <_ZNK10__cxxabiv120__si_class_type_info12__do_dyncastEiNS_17__class_type_info10__sub_kindEPKS1_PKvS4_S6_RNS1_16__dyncast_resultE+0x5e>

08003308 <_ZNK10__cxxabiv120__si_class_type_info11__do_upcastEPKNS_17__class_type_infoEPKvRNS1_15__upcast_resultE>:
 8003308:	e92d 41f0 	stmdb	sp!, {r4, r5, r6, r7, r8, lr}
 800330c:	4606      	mov	r6, r0
 800330e:	460f      	mov	r7, r1
 8003310:	4614      	mov	r4, r2
 8003312:	461d      	mov	r5, r3
 8003314:	f7ff ff50 	bl	80031b8 <_ZNK10__cxxabiv117__class_type_info11__do_upcastEPKS0_PKvRNS0_15__upcast_resultE>
 8003318:	b948      	cbnz	r0, 800332e <_ZNK10__cxxabiv120__si_class_type_info11__do_upcastEPKNS_17__class_type_infoEPKvRNS1_15__upcast_resultE+0x26>
 800331a:	68b0      	ldr	r0, [r6, #8]
 800331c:	462b      	mov	r3, r5
 800331e:	6805      	ldr	r5, [r0, #0]
 8003320:	4622      	mov	r2, r4
 8003322:	69ac      	ldr	r4, [r5, #24]
 8003324:	4639      	mov	r1, r7
 8003326:	46a4      	mov	ip, r4
 8003328:	e8bd 41f0 	ldmia.w	sp!, {r4, r5, r6, r7, r8, lr}
 800332c:	4760      	bx	ip
 800332e:	e8bd 81f0 	ldmia.w	sp!, {r4, r5, r6, r7, r8, pc}
 8003332:	bf00      	nop

08003334 <_ZNSt9type_infoD1Ev>:
 8003334:	4770      	bx	lr
 8003336:	bf00      	nop

08003338 <_ZNKSt9type_info14__is_pointer_pEv>:
 8003338:	2000      	movs	r0, #0
 800333a:	4770      	bx	lr

0800333c <_ZNKSt9type_info7__equalERKS_>:
 800333c:	4281      	cmp	r1, r0
 800333e:	d011      	beq.n	8003364 <_ZNKSt9type_info7__equalERKS_+0x28>
 8003340:	b508      	push	{r3, lr}
 8003342:	6840      	ldr	r0, [r0, #4]
 8003344:	7803      	ldrb	r3, [r0, #0]
 8003346:	2b2a      	cmp	r3, #42	@ 0x2a
 8003348:	d00a      	beq.n	8003360 <_ZNKSt9type_info7__equalERKS_+0x24>
 800334a:	6849      	ldr	r1, [r1, #4]
 800334c:	780b      	ldrb	r3, [r1, #0]
 800334e:	2b2a      	cmp	r3, #42	@ 0x2a
 8003350:	bf08      	it	eq
 8003352:	3101      	addeq	r1, #1
 8003354:	f001 feb8 	bl	80050c8 <strcmp>
 8003358:	fab0 f080 	clz	r0, r0
 800335c:	0940      	lsrs	r0, r0, #5
 800335e:	bd08      	pop	{r3, pc}
 8003360:	2000      	movs	r0, #0
 8003362:	bd08      	pop	{r3, pc}
 8003364:	2001      	movs	r0, #1
 8003366:	4770      	bx	lr

08003368 <_ZN10__cxxabiv121__vmi_class_type_infoD1Ev>:
 8003368:	b510      	push	{r4, lr}
 800336a:	4604      	mov	r4, r0
 800336c:	4b02      	ldr	r3, [pc, #8]	@ (8003378 <_ZN10__cxxabiv121__vmi_class_type_infoD1Ev+0x10>)
 800336e:	6003      	str	r3, [r0, #0]
 8003370:	f7ff fee8 	bl	8003144 <_ZN10__cxxabiv117__class_type_infoD1Ev>
