
benchmark/build/stm32f103c8/Release/except_0percent_depth70.cpp.elf:     file format elf32-littlearm


Disassembly of section .text:

08000040 <_Z3endv>:
 8000040:	4b02      	ldr	r3, [pc, #8]	@ (800004c <_Z3endv+0xc>)
 8000042:	2101      	movs	r1, #1
 8000044:	6818      	ldr	r0, [r3, #0]
 8000046:	6803      	ldr	r3, [r0, #0]
 8000048:	68db      	ldr	r3, [r3, #12]
 800004a:	4718      	bx	r3
 800004c:	20000168 	.word	0x20000168

08000050 <_ZN3hal7stm32f127throw_if_pin_is_unavailableENS0_10pin_selectE.part.0>:
 8000050:	b510      	push	{r4, lr}
 8000052:	2018      	movs	r0, #24
 8000054:	f002 ff1c 	bl	8002e90 <__wrap___cxa_allocate_exception>
 8000058:	2410      	movs	r4, #16
 800005a:	2200      	movs	r2, #0
 800005c:	4904      	ldr	r1, [pc, #16]	@ (8000070 <_ZN3hal7stm32f127throw_if_pin_is_unavailableENS0_10pin_selectE.part.0+0x20>)
 800005e:	e9c0 2400 	strd	r2, r4, [r0]
 8000062:	e9c0 2202 	strd	r2, r2, [r0, #8]
 8000066:	e9c0 2204 	strd	r2, r2, [r0, #16]
 800006a:	f002 fe67 	bl	8002d3c <__wrap___cxa_throw>
 800006e:	bf00      	nop
 8000070:	08007304 	.word	0x08007304

08000074 <_ZN3hal7stm32f112_GLOBAL__N_124get_enable_register_infoENS0_10peripheralE.part.0>:
 8000074:	b510      	push	{r4, lr}
 8000076:	2018      	movs	r0, #24
 8000078:	f002 ff0a 	bl	8002e90 <__wrap___cxa_allocate_exception>
 800007c:	2421      	movs	r4, #33	@ 0x21
 800007e:	2200      	movs	r2, #0
 8000080:	4904      	ldr	r1, [pc, #16]	@ (8000094 <_ZN3hal7stm32f112_GLOBAL__N_124get_enable_register_infoENS0_10peripheralE.part.0+0x20>)
 8000082:	e9c0 2400 	strd	r2, r4, [r0]
 8000086:	e9c0 2202 	strd	r2, r2, [r0, #8]
 800008a:	e9c0 2204 	strd	r2, r2, [r0, #16]
 800008e:	f002 fe55 	bl	8002d3c <__wrap___cxa_throw>
 8000092:	bf00      	nop
 8000094:	08007310 	.word	0x08007310

08000098 <_exit>:
 8000098:	b508      	push	{r3, lr}
 800009a:	f000 f801 	bl	80000a0 <_ZSt9terminatev>
	...

080000a0 <_ZSt9terminatev>:
 80000a0:	b508      	push	{r3, lr}
 80000a2:	4b03      	ldr	r3, [pc, #12]	@ (80000b0 <_ZSt9terminatev+0x10>)
 80000a4:	6818      	ldr	r0, [r3, #0]
 80000a6:	f3bf 8f5b 	dmb	ish
 80000aa:	f003 f8ad 	bl	8003208 <_ZN10__cxxabiv111__terminateEPFvvE>
 80000ae:	bf00      	nop
 80000b0:	20000004 	.word	0x20000004

080000b4 <_ZSt17__throw_bad_allocv>:
 80000b4:	b508      	push	{r3, lr}
 80000b6:	2004      	movs	r0, #4
 80000b8:	f002 feea 	bl	8002e90 <__wrap___cxa_allocate_exception>
 80000bc:	4b02      	ldr	r3, [pc, #8]	@ (80000c8 <_ZSt17__throw_bad_allocv+0x14>)
 80000be:	4a03      	ldr	r2, [pc, #12]	@ (80000cc <_ZSt17__throw_bad_allocv+0x18>)
 80000c0:	4903      	ldr	r1, [pc, #12]	@ (80000d0 <_ZSt17__throw_bad_allocv+0x1c>)
 80000c2:	6003      	str	r3, [r0, #0]
 80000c4:	f002 fe3a 	bl	8002d3c <__wrap___cxa_throw>
 80000c8:	08007948 	.word	0x08007948
 80000cc:	080030d5 	.word	0x080030d5
 80000d0:	08007934 	.word	0x08007934

080000d4 <_ZSt19__throw_logic_errorPKc>:
 80000d4:	b510      	push	{r4, lr}
 80000d6:	4604      	mov	r4, r0
 80000d8:	2008      	movs	r0, #8
 80000da:	f002 fed9 	bl	8002e90 <__wrap___cxa_allocate_exception>
 80000de:	4621      	mov	r1, r4
 80000e0:	4604      	mov	r4, r0
 80000e2:	f003 fddd 	bl	8003ca0 <_ZNSt11logic_errorC1EPKc>
 80000e6:	4620      	mov	r0, r4
 80000e8:	4a04      	ldr	r2, [pc, #16]	@ (80000fc <_ZSt19__throw_logic_errorPKc+0x28>)
 80000ea:	4905      	ldr	r1, [pc, #20]	@ (8000100 <_ZSt19__throw_logic_errorPKc+0x2c>)
 80000ec:	f002 fe26 	bl	8002d3c <__wrap___cxa_throw>
 80000f0:	4620      	mov	r0, r4
 80000f2:	f002 ff1f 	bl	8002f34 <__wrap___cxa_free_exception>
 80000f6:	f002 ffb1 	bl	800305c <__wrap___cxa_end_cleanup>
 80000fa:	bf00      	nop
 80000fc:	08003b09 	.word	0x08003b09
 8000100:	08007b70 	.word	0x08007b70

08000104 <_ZSt20__throw_length_errorPKc>:
 8000104:	b510      	push	{r4, lr}
 8000106:	4604      	mov	r4, r0
 8000108:	2008      	movs	r0, #8
 800010a:	f002 fec1 	bl	8002e90 <__wrap___cxa_allocate_exception>
 800010e:	4621      	mov	r1, r4
 8000110:	4604      	mov	r4, r0
 8000112:	f003 fe05 	bl	8003d20 <_ZNSt12length_errorC1EPKc>
 8000116:	4620      	mov	r0, r4
 8000118:	4a04      	ldr	r2, [pc, #16]	@ (800012c <_ZSt20__throw_length_errorPKc+0x28>)
 800011a:	4905      	ldr	r1, [pc, #20]	@ (8000130 <_ZSt20__throw_length_errorPKc+0x2c>)
 800011c:	f002 fe0e 	bl	8002d3c <__wrap___cxa_throw>
 8000120:	4620      	mov	r0, r4
 8000122:	f002 ff07 	bl	8002f34 <__wrap___cxa_free_exception>
 8000126:	f002 ff99 	bl	800305c <__wrap___cxa_end_cleanup>
 800012a:	bf00      	nop
 800012c:	08003b49 	.word	0x08003b49
 8000130:	08007b90 	.word	0x08007b90

08000134 <_ZSt24__throw_out_of_range_fmtPKcz>:
 8000134:	b40f      	push	{r0, r1, r2, r3}
 8000136:	b5b0      	push	{r4, r5, r7, lr}
 8000138:	b082      	sub	sp, #8
 800013a:	af00      	add	r7, sp, #0
 800013c:	f107 0418 	add.w	r4, r7, #24
 8000140:	f854 5b04 	ldr.w	r5, [r4], #4
 8000144:	4628      	mov	r0, r5
 8000146:	f004 ffdf 	bl	8005108 <strlen>
 800014a:	f200 2107 	addw	r1, r0, #519	@ 0x207
 800014e:	f021 0107 	bic.w	r1, r1, #7
 8000152:	ebad 0d01 	sub.w	sp, sp, r1
 8000156:	4623      	mov	r3, r4
 8000158:	f500 7100 	add.w	r1, r0, #512	@ 0x200
 800015c:	462a      	mov	r2, r5
 800015e:	4668      	mov	r0, sp
 8000160:	607c      	str	r4, [r7, #4]
 8000162:	f003 fc29 	bl	80039b8 <_ZN9__gnu_cxx15__snprintf_liteEPcjPKcSt9__va_list>
 8000166:	2008      	movs	r0, #8
 8000168:	f002 fe92 	bl	8002e90 <__wrap___cxa_allocate_exception>
 800016c:	4669      	mov	r1, sp
 800016e:	4604      	mov	r4, r0
 8000170:	f003 fde0 	bl	8003d34 <_ZNSt12out_of_rangeC1EPKc>
 8000174:	4620      	mov	r0, r4
 8000176:	4a04      	ldr	r2, [pc, #16]	@ (8000188 <_ZSt24__throw_out_of_range_fmtPKcz+0x54>)
 8000178:	4904      	ldr	r1, [pc, #16]	@ (800018c <_ZSt24__throw_out_of_range_fmtPKcz+0x58>)
 800017a:	f002 fddf 	bl	8002d3c <__wrap___cxa_throw>
 800017e:	4620      	mov	r0, r4
 8000180:	f002 fed8 	bl	8002f34 <__wrap___cxa_free_exception>
 8000184:	f002 ff6a 	bl	800305c <__wrap___cxa_end_cleanup>
 8000188:	08003b89 	.word	0x08003b89
 800018c:	08007bb0 	.word	0x08007bb0

08000190 <_ZN9__gnu_cxx26__throw_insufficient_spaceEPKcS1_>:
 8000190:	b5f0      	push	{r4, r5, r6, r7, lr}
 8000192:	4606      	mov	r6, r0
 8000194:	460c      	mov	r4, r1
 8000196:	b09d      	sub	sp, #116	@ 0x74
 8000198:	af00      	add	r7, sp, #0
 800019a:	1ba4      	subs	r4, r4, r6
 800019c:	2269      	movs	r2, #105	@ 0x69
 800019e:	490d      	ldr	r1, [pc, #52]	@ (80001d4 <_ZN9__gnu_cxx26__throw_insufficient_spaceEPKcS1_+0x44>)
 80001a0:	1d38      	adds	r0, r7, #4
 80001a2:	f004 ff9b 	bl	80050dc <memcpy>
 80001a6:	f104 0370 	add.w	r3, r4, #112	@ 0x70
 80001aa:	f023 0307 	bic.w	r3, r3, #7
 80001ae:	ebad 0d03 	sub.w	sp, sp, r3
 80001b2:	2268      	movs	r2, #104	@ 0x68
 80001b4:	1d39      	adds	r1, r7, #4
 80001b6:	4668      	mov	r0, sp
 80001b8:	f004 ff90 	bl	80050dc <memcpy>
 80001bc:	4622      	mov	r2, r4
 80001be:	4631      	mov	r1, r6
 80001c0:	a81a      	add	r0, sp, #104	@ 0x68
 80001c2:	f004 ff8b 	bl	80050dc <memcpy>
 80001c6:	2300      	movs	r3, #0
 80001c8:	446c      	add	r4, sp
 80001ca:	4668      	mov	r0, sp
 80001cc:	f884 3068 	strb.w	r3, [r4, #104]	@ 0x68
 80001d0:	f7ff ff80 	bl	80000d4 <_ZSt19__throw_logic_errorPKc>
 80001d4:	080077e0 	.word	0x080077e0

080001d8 <abort>:
 80001d8:	2006      	movs	r0, #6
 80001da:	b508      	push	{r3, lr}
 80001dc:	f006 fb54 	bl	8006888 <raise>
 80001e0:	2001      	movs	r0, #1
 80001e2:	f7ff ff59 	bl	8000098 <_exit>
	...

080001e8 <_ZN2ke5cacheIFvPvPSt9type_infoPFvS1_EEEENS_14instructions_tEPT_>:
 80001e8:	e92d 41f0 	stmdb	sp!, {r4, r5, r6, r7, r8, lr}
 80001ec:	4604      	mov	r4, r0
 80001ee:	4841      	ldr	r0, [pc, #260]	@ (80002f4 <_ZN2ke5cacheIFvPvPSt9type_infoPFvS1_EEEENS_14instructions_tEPT_+0x10c>)
 80001f0:	460d      	mov	r5, r1
 80001f2:	f004 ff5f 	bl	80050b4 <__emutls_get_address>
 80001f6:	7803      	ldrb	r3, [r0, #0]
 80001f8:	b90b      	cbnz	r3, 80001fe <_ZN2ke5cacheIFvPvPSt9type_infoPFvS1_EEEENS_14instructions_tEPT_+0x16>
 80001fa:	f000 ff77 	bl	80010ec <__tls_init.part.0>
 80001fe:	483e      	ldr	r0, [pc, #248]	@ (80002f8 <_ZN2ke5cacheIFvPvPSt9type_infoPFvS1_EEEENS_14instructions_tEPT_+0x110>)
 8000200:	f004 ff58 	bl	80050b4 <__emutls_get_address>
 8000204:	2200      	movs	r2, #0
 8000206:	4e3d      	ldr	r6, [pc, #244]	@ (80002fc <_ZN2ke5cacheIFvPvPSt9type_infoPFvS1_EEEENS_14instructions_tEPT_+0x114>)
 8000208:	4b3d      	ldr	r3, [pc, #244]	@ (8000300 <_ZN2ke5cacheIFvPvPSt9type_infoPFvS1_EEEENS_14instructions_tEPT_+0x118>)
 800020a:	46b6      	mov	lr, r6
 800020c:	1b9b      	subs	r3, r3, r6
 800020e:	ea4f 0ce3 	mov.w	ip, r3, asr #3
 8000212:	f880 209c 	strb.w	r2, [r0, #156]	@ 0x9c
 8000216:	e00d      	b.n	8000234 <_ZN2ke5cacheIFvPvPSt9type_infoPFvS1_EEEENS_14instructions_tEPT_+0x4c>
 8000218:	f85e 3032 	ldr.w	r3, [lr, r2, lsl #3]
 800021c:	f343 031e 	sbfx	r3, r3, #0, #31
 8000220:	440b      	add	r3, r1
 8000222:	429d      	cmp	r5, r3
 8000224:	bf31      	iteee	cc
 8000226:	4694      	movcc	ip, r2
 8000228:	ebac 0c02 	subcs.w	ip, ip, r2
 800022c:	f101 0e08 	addcs.w	lr, r1, #8
 8000230:	f10c 3cff 	addcs.w	ip, ip, #4294967295	@ 0xffffffff
 8000234:	ea4f 026c 	mov.w	r2, ip, asr #1
 8000238:	f1bc 0f00 	cmp.w	ip, #0
 800023c:	eb0e 01c2 	add.w	r1, lr, r2, lsl #3
 8000240:	dcea      	bgt.n	8000218 <_ZN2ke5cacheIFvPvPSt9type_infoPFvS1_EEEENS_14instructions_tEPT_+0x30>
 8000242:	45b6      	cmp	lr, r6
 8000244:	bf18      	it	ne
 8000246:	f1ae 0e08 	subne.w	lr, lr, #8
 800024a:	f8de 3004 	ldr.w	r3, [lr, #4]
 800024e:	2b00      	cmp	r3, #0
 8000250:	da15      	bge.n	800027e <_ZN2ke5cacheIFvPvPSt9type_infoPFvS1_EEEENS_14instructions_tEPT_+0x96>
 8000252:	f04f 31b0 	mov.w	r1, #2964369584	@ 0xb0b0b0b0
 8000256:	20b0      	movs	r0, #176	@ 0xb0
 8000258:	f24b 02b0 	movw	r2, #45232	@ 0xb0b0
 800025c:	f013 6f70 	tst.w	r3, #251658240	@ 0xf000000
 8000260:	71e0      	strb	r0, [r4, #7]
 8000262:	f8c4 1001 	str.w	r1, [r4, #1]
 8000266:	f8a4 2005 	strh.w	r2, [r4, #5]
 800026a:	ea4f 4513 	mov.w	r5, r3, lsr #16
 800026e:	f3c3 2007 	ubfx	r0, r3, #8, #8
 8000272:	b2d9      	uxtb	r1, r3
 8000274:	d10a      	bne.n	800028c <_ZN2ke5cacheIFvPvPSt9type_infoPFvS1_EEEENS_14instructions_tEPT_+0xa4>
 8000276:	7025      	strb	r5, [r4, #0]
 8000278:	7060      	strb	r0, [r4, #1]
 800027a:	70a1      	strb	r1, [r4, #2]
 800027c:	e003      	b.n	8000286 <_ZN2ke5cacheIFvPvPSt9type_infoPFvS1_EEEENS_14instructions_tEPT_+0x9e>
 800027e:	4b21      	ldr	r3, [pc, #132]	@ (8000304 <_ZN2ke5cacheIFvPvPSt9type_infoPFvS1_EEEENS_14instructions_tEPT_+0x11c>)
 8000280:	cb03      	ldmia	r3!, {r0, r1}
 8000282:	6020      	str	r0, [r4, #0]
 8000284:	6061      	str	r1, [r4, #4]
 8000286:	4620      	mov	r0, r4
 8000288:	e8bd 81f0 	ldmia.w	sp!, {r4, r5, r6, r7, r8, pc}
 800028c:	2200      	movs	r2, #0
 800028e:	f8de 3008 	ldr.w	r3, [lr, #8]
 8000292:	f360 0207 	bfi	r2, r0, #0, #8
 8000296:	ea4f 6c13 	mov.w	ip, r3, lsr #24
 800029a:	b2ee      	uxtb	r6, r5
 800029c:	f361 220f 	bfi	r2, r1, #8, #8
 80002a0:	f3c3 4707 	ubfx	r7, r3, #16, #8
 80002a4:	f36c 4217 	bfi	r2, ip, #16, #8
 80002a8:	2e01      	cmp	r6, #1
 80002aa:	f3c3 2807 	ubfx	r8, r3, #8, #8
 80002ae:	f367 621f 	bfi	r2, r7, #24, #8
 80002b2:	b2db      	uxtb	r3, r3
 80002b4:	d010      	beq.n	80002d8 <_ZN2ke5cacheIFvPvPSt9type_infoPFvS1_EEEENS_14instructions_tEPT_+0xf0>
 80002b6:	2e02      	cmp	r6, #2
 80002b8:	d013      	beq.n	80002e2 <_ZN2ke5cacheIFvPvPSt9type_infoPFvS1_EEEENS_14instructions_tEPT_+0xfa>
 80002ba:	71a3      	strb	r3, [r4, #6]
 80002bc:	2300      	movs	r3, #0
 80002be:	f365 0307 	bfi	r3, r5, #0, #8
 80002c2:	f360 230f 	bfi	r3, r0, #8, #8
 80002c6:	f361 4317 	bfi	r3, r1, #16, #8
 80002ca:	f36c 631f 	bfi	r3, ip, #24, #8
 80002ce:	7127      	strb	r7, [r4, #4]
 80002d0:	f884 8005 	strb.w	r8, [r4, #5]
 80002d4:	6023      	str	r3, [r4, #0]
 80002d6:	e7d6      	b.n	8000286 <_ZN2ke5cacheIFvPvPSt9type_infoPFvS1_EEEENS_14instructions_tEPT_+0x9e>
 80002d8:	6022      	str	r2, [r4, #0]
 80002da:	f884 8004 	strb.w	r8, [r4, #4]
 80002de:	7163      	strb	r3, [r4, #5]
 80002e0:	e7d1      	b.n	8000286 <_ZN2ke5cacheIFvPvPSt9type_infoPFvS1_EEEENS_14instructions_tEPT_+0x9e>
 80002e2:	f89e 100f 	ldrb.w	r1, [lr, #15]
 80002e6:	6022      	str	r2, [r4, #0]
 80002e8:	f884 8004 	strb.w	r8, [r4, #4]
 80002ec:	7163      	strb	r3, [r4, #5]
 80002ee:	71a1      	strb	r1, [r4, #6]
 80002f0:	e7c9      	b.n	8000286 <_ZN2ke5cacheIFvPvPSt9type_infoPFvS1_EEEENS_14instructions_tEPT_+0x9e>
 80002f2:	bf00      	nop
 80002f4:	20000080 	.word	0x20000080
 80002f8:	20000070 	.word	0x20000070
 80002fc:	080089e0 	.word	0x080089e0
 8000300:	08008bb0 	.word	0x08008bb0
 8000304:	080077c8 	.word	0x080077c8

08000308 <_GLOBAL__sub_I__ZN2ke13control_blockE>:
 8000308:	b508      	push	{r3, lr}
 800030a:	4907      	ldr	r1, [pc, #28]	@ (8000328 <_GLOBAL__sub_I__ZN2ke13control_blockE+0x20>)
 800030c:	4807      	ldr	r0, [pc, #28]	@ (800032c <_GLOBAL__sub_I__ZN2ke13control_blockE+0x24>)
 800030e:	f7ff ff6b 	bl	80001e8 <_ZN2ke5cacheIFvPvPSt9type_infoPFvS1_EEEENS_14instructions_tEPT_>
 8000312:	4907      	ldr	r1, [pc, #28]	@ (8000330 <_GLOBAL__sub_I__ZN2ke13control_blockE+0x28>)
 8000314:	4807      	ldr	r0, [pc, #28]	@ (8000334 <_GLOBAL__sub_I__ZN2ke13control_blockE+0x2c>)
 8000316:	f7ff ff67 	bl	80001e8 <_ZN2ke5cacheIFvPvPSt9type_infoPFvS1_EEEENS_14instructions_tEPT_>
 800031a:	e8bd 4008 	ldmia.w	sp!, {r3, lr}
 800031e:	4a06      	ldr	r2, [pc, #24]	@ (8000338 <_GLOBAL__sub_I__ZN2ke13control_blockE+0x30>)
 8000320:	4906      	ldr	r1, [pc, #24]	@ (800033c <_GLOBAL__sub_I__ZN2ke13control_blockE+0x34>)
 8000322:	4807      	ldr	r0, [pc, #28]	@ (8000340 <_GLOBAL__sub_I__ZN2ke13control_blockE+0x38>)
 8000324:	f002 becc 	b.w	80030c0 <__aeabi_atexit>
 8000328:	08002d3d 	.word	0x08002d3d
 800032c:	200001a0 	.word	0x200001a0
 8000330:	08002cd1 	.word	0x08002cd1
 8000334:	200001a8 	.word	0x200001a8
 8000338:	20000000 	.word	0x20000000
 800033c:	08001ec5 	.word	0x08001ec5
 8000340:	20000020 	.word	0x20000020

08000344 <main>:
 8000344:	4b82      	ldr	r3, [pc, #520]	@ (8000550 <main+0x20c>)
 8000346:	e92d 4ff0 	stmdb	sp!, {r4, r5, r6, r7, r8, r9, sl, fp, lr}
 800034a:	685a      	ldr	r2, [r3, #4]
 800034c:	b099      	sub	sp, #100	@ 0x64
 800034e:	f022 0203 	bic.w	r2, r2, #3
 8000352:	605a      	str	r2, [r3, #4]
 8000354:	6a1a      	ldr	r2, [r3, #32]
 8000356:	f442 3280 	orr.w	r2, r2, #65536	@ 0x10000
 800035a:	621a      	str	r2, [r3, #32]
 800035c:	6a1a      	ldr	r2, [r3, #32]
 800035e:	f422 3280 	bic.w	r2, r2, #65536	@ 0x10000
 8000362:	621a      	str	r2, [r3, #32]
 8000364:	681a      	ldr	r2, [r3, #0]
 8000366:	f022 7280 	bic.w	r2, r2, #16777216	@ 0x1000000
 800036a:	f422 3280 	bic.w	r2, r2, #65536	@ 0x10000
 800036e:	601a      	str	r2, [r3, #0]
 8000370:	685a      	ldr	r2, [r3, #4]
 8000372:	f422 3240 	bic.w	r2, r2, #196608	@ 0x30000
 8000376:	605a      	str	r2, [r3, #4]
 8000378:	685a      	ldr	r2, [r3, #4]
 800037a:	f422 1270 	bic.w	r2, r2, #3932160	@ 0x3c0000
 800037e:	f442 1260 	orr.w	r2, r2, #3670016	@ 0x380000
 8000382:	605a      	str	r2, [r3, #4]
 8000384:	681a      	ldr	r2, [r3, #0]
 8000386:	f042 7280 	orr.w	r2, r2, #16777216	@ 0x1000000
 800038a:	601a      	str	r2, [r3, #0]
 800038c:	681a      	ldr	r2, [r3, #0]
 800038e:	0194      	lsls	r4, r2, #6
 8000390:	601a      	str	r2, [r3, #0]
 8000392:	d5fb      	bpl.n	800038c <main+0x48>
 8000394:	496f      	ldr	r1, [pc, #444]	@ (8000554 <main+0x210>)
 8000396:	4870      	ldr	r0, [pc, #448]	@ (8000558 <main+0x214>)
 8000398:	4a70      	ldr	r2, [pc, #448]	@ (800055c <main+0x218>)
 800039a:	6008      	str	r0, [r1, #0]
 800039c:	6859      	ldr	r1, [r3, #4]
 800039e:	4870      	ldr	r0, [pc, #448]	@ (8000560 <main+0x21c>)
 80003a0:	400a      	ands	r2, r1
 80003a2:	f442 4204 	orr.w	r2, r2, #33792	@ 0x8400
 80003a6:	605a      	str	r2, [r3, #4]
 80003a8:	6801      	ldr	r1, [r0, #0]
 80003aa:	4a69      	ldr	r2, [pc, #420]	@ (8000550 <main+0x20c>)
 80003ac:	f021 0107 	bic.w	r1, r1, #7
 80003b0:	f041 0102 	orr.w	r1, r1, #2
 80003b4:	6001      	str	r1, [r0, #0]
 80003b6:	6859      	ldr	r1, [r3, #4]
 80003b8:	f021 0103 	bic.w	r1, r1, #3
 80003bc:	f041 0102 	orr.w	r1, r1, #2
 80003c0:	6059      	str	r1, [r3, #4]
 80003c2:	6853      	ldr	r3, [r2, #4]
 80003c4:	f003 010c 	and.w	r1, r3, #12
 80003c8:	2908      	cmp	r1, #8
 80003ca:	6053      	str	r3, [r2, #4]
 80003cc:	d1f9      	bne.n	80003c2 <main+0x7e>
 80003ce:	6a11      	ldr	r1, [r2, #32]
 80003d0:	4864      	ldr	r0, [pc, #400]	@ (8000564 <main+0x220>)
 80003d2:	f421 4103 	bic.w	r1, r1, #33536	@ 0x8300
 80003d6:	6211      	str	r1, [r2, #32]
 80003d8:	4963      	ldr	r1, [pc, #396]	@ (8000568 <main+0x224>)
 80003da:	4b5f      	ldr	r3, [pc, #380]	@ (8000558 <main+0x214>)
 80003dc:	6008      	str	r0, [r1, #0]
 80003de:	4863      	ldr	r0, [pc, #396]	@ (800056c <main+0x228>)
 80003e0:	4963      	ldr	r1, [pc, #396]	@ (8000570 <main+0x22c>)
 80003e2:	6003      	str	r3, [r0, #0]
 80003e4:	4863      	ldr	r0, [pc, #396]	@ (8000574 <main+0x230>)
 80003e6:	4e64      	ldr	r6, [pc, #400]	@ (8000578 <main+0x234>)
 80003e8:	6008      	str	r0, [r1, #0]
 80003ea:	4964      	ldr	r1, [pc, #400]	@ (800057c <main+0x238>)
 80003ec:	6033      	str	r3, [r6, #0]
 80003ee:	600b      	str	r3, [r1, #0]
 80003f0:	4963      	ldr	r1, [pc, #396]	@ (8000580 <main+0x23c>)
 80003f2:	4c64      	ldr	r4, [pc, #400]	@ (8000584 <main+0x240>)
 80003f4:	600b      	str	r3, [r1, #0]
 80003f6:	4b64      	ldr	r3, [pc, #400]	@ (8000588 <main+0x244>)
 80003f8:	4964      	ldr	r1, [pc, #400]	@ (800058c <main+0x248>)
 80003fa:	6019      	str	r1, [r3, #0]
 80003fc:	4b64      	ldr	r3, [pc, #400]	@ (8000590 <main+0x24c>)
 80003fe:	4965      	ldr	r1, [pc, #404]	@ (8000594 <main+0x250>)
 8000400:	6019      	str	r1, [r3, #0]
 8000402:	6823      	ldr	r3, [r4, #0]
 8000404:	07d8      	lsls	r0, r3, #31
 8000406:	f140 8098 	bpl.w	800053a <main+0x1f6>
 800040a:	4d63      	ldr	r5, [pc, #396]	@ (8000598 <main+0x254>)
 800040c:	682b      	ldr	r3, [r5, #0]
 800040e:	f013 0301 	ands.w	r3, r3, #1
 8000412:	f000 8159 	beq.w	80006c8 <main+0x384>
 8000416:	4f61      	ldr	r7, [pc, #388]	@ (800059c <main+0x258>)
 8000418:	ac08      	add	r4, sp, #32
 800041a:	4d61      	ldr	r5, [pc, #388]	@ (80005a0 <main+0x25c>)
 800041c:	2101      	movs	r1, #1
 800041e:	485f      	ldr	r0, [pc, #380]	@ (800059c <main+0x258>)
 8000420:	602f      	str	r7, [r5, #0]
 8000422:	f001 fd77 	bl	8001f14 <_ZN3hal7stm32f112gpio_manager6output12driver_levelEb>
 8000426:	6828      	ldr	r0, [r5, #0]
 8000428:	2100      	movs	r1, #0
 800042a:	6803      	ldr	r3, [r0, #0]
 800042c:	68db      	ldr	r3, [r3, #12]
 800042e:	4798      	blx	r3
 8000430:	6828      	ldr	r0, [r5, #0]
 8000432:	2101      	movs	r1, #1
 8000434:	6803      	ldr	r3, [r0, #0]
 8000436:	68db      	ldr	r3, [r3, #12]
 8000438:	4798      	blx	r3
 800043a:	6828      	ldr	r0, [r5, #0]
 800043c:	2100      	movs	r1, #0
 800043e:	6803      	ldr	r3, [r0, #0]
 8000440:	68db      	ldr	r3, [r3, #12]
 8000442:	4798      	blx	r3
 8000444:	6828      	ldr	r0, [r5, #0]
 8000446:	2101      	movs	r1, #1
 8000448:	6803      	ldr	r3, [r0, #0]
 800044a:	68db      	ldr	r3, [r3, #12]
 800044c:	4798      	blx	r3
 800044e:	6828      	ldr	r0, [r5, #0]
 8000450:	2100      	movs	r1, #0
 8000452:	6803      	ldr	r3, [r0, #0]
 8000454:	68db      	ldr	r3, [r3, #12]
 8000456:	4798      	blx	r3
 8000458:	6828      	ldr	r0, [r5, #0]
 800045a:	2101      	movs	r1, #1
 800045c:	6803      	ldr	r3, [r0, #0]
 800045e:	68db      	ldr	r3, [r3, #12]
 8000460:	4798      	blx	r3
 8000462:	6828      	ldr	r0, [r5, #0]
 8000464:	2100      	movs	r1, #0
 8000466:	6803      	ldr	r3, [r0, #0]
 8000468:	68db      	ldr	r3, [r3, #12]
 800046a:	4798      	blx	r3
 800046c:	6828      	ldr	r0, [r5, #0]
 800046e:	2101      	movs	r1, #1
 8000470:	6803      	ldr	r3, [r0, #0]
 8000472:	68db      	ldr	r3, [r3, #12]
 8000474:	4798      	blx	r3
 8000476:	6828      	ldr	r0, [r5, #0]
 8000478:	2100      	movs	r1, #0
 800047a:	6803      	ldr	r3, [r0, #0]
 800047c:	68db      	ldr	r3, [r3, #12]
 800047e:	4798      	blx	r3
 8000480:	6828      	ldr	r0, [r5, #0]
 8000482:	2101      	movs	r1, #1
 8000484:	6803      	ldr	r3, [r0, #0]
 8000486:	4d47      	ldr	r5, [pc, #284]	@ (80005a4 <main+0x260>)
 8000488:	68db      	ldr	r3, [r3, #12]
 800048a:	4798      	blx	r3
 800048c:	4946      	ldr	r1, [pc, #280]	@ (80005a8 <main+0x264>)
 800048e:	680b      	ldr	r3, [r1, #0]
 8000490:	f013 0301 	ands.w	r3, r3, #1
 8000494:	f000 80fc 	beq.w	8000690 <main+0x34c>
 8000498:	4944      	ldr	r1, [pc, #272]	@ (80005ac <main+0x268>)
 800049a:	4e45      	ldr	r6, [pc, #276]	@ (80005b0 <main+0x26c>)
 800049c:	2300      	movs	r3, #0
 800049e:	4a45      	ldr	r2, [pc, #276]	@ (80005b4 <main+0x270>)
 80004a0:	4840      	ldr	r0, [pc, #256]	@ (80005a4 <main+0x260>)
 80004a2:	600d      	str	r5, [r1, #0]
 80004a4:	f000 fad0 	bl	8000a48 <_ZN3hal5delayERNS_12steady_clockENSt6chrono8durationIxSt5ratioILx1ELx1000000000EEEE.constprop.0>
 80004a8:	6833      	ldr	r3, [r6, #0]
 80004aa:	f013 0301 	ands.w	r3, r3, #1
 80004ae:	f000 8091 	beq.w	80005d4 <main+0x290>
 80004b2:	4d41      	ldr	r5, [pc, #260]	@ (80005b8 <main+0x274>)
 80004b4:	2613      	movs	r6, #19
 80004b6:	4b41      	ldr	r3, [pc, #260]	@ (80005bc <main+0x278>)
 80004b8:	2240      	movs	r2, #64	@ 0x40
 80004ba:	2100      	movs	r1, #0
 80004bc:	4620      	mov	r0, r4
 80004be:	601d      	str	r5, [r3, #0]
 80004c0:	f004 fe1a 	bl	80050f8 <memset>
 80004c4:	483e      	ldr	r0, [pc, #248]	@ (80005c0 <main+0x27c>)
 80004c6:	2313      	movs	r3, #19
 80004c8:	9000      	str	r0, [sp, #0]
 80004ca:	2140      	movs	r1, #64	@ 0x40
 80004cc:	4620      	mov	r0, r4
 80004ce:	4a3d      	ldr	r2, [pc, #244]	@ (80005c4 <main+0x280>)
 80004d0:	f006 fcc8 	bl	8006e64 <snprintf>
 80004d4:	682b      	ldr	r3, [r5, #0]
 80004d6:	f8df 90f0 	ldr.w	r9, [pc, #240]	@ 80005c8 <main+0x284>
 80004da:	f8d3 800c 	ldr.w	r8, [r3, #12]
 80004de:	af04      	add	r7, sp, #16
 80004e0:	45c8      	cmp	r8, r9
 80004e2:	d11d      	bne.n	8000520 <main+0x1dc>
 80004e4:	686a      	ldr	r2, [r5, #4]
 80004e6:	19a1      	adds	r1, r4, r6
 80004e8:	6813      	ldr	r3, [r2, #0]
 80004ea:	061b      	lsls	r3, r3, #24
 80004ec:	d5fc      	bpl.n	80004e8 <main+0x1a4>
 80004ee:	f814 3b01 	ldrb.w	r3, [r4], #1
 80004f2:	42a1      	cmp	r1, r4
 80004f4:	6053      	str	r3, [r2, #4]
 80004f6:	d1f7      	bne.n	80004e8 <main+0x1a4>
 80004f8:	2201      	movs	r2, #1
 80004fa:	4b34      	ldr	r3, [pc, #208]	@ (80005cc <main+0x288>)
 80004fc:	601a      	str	r2, [r3, #0]
 80004fe:	f001 fcc9 	bl	8001e94 <_Z8depth_70v.isra.0>
 8000502:	f000 faed 	bl	8000ae0 <_Z5pausev>
 8000506:	f001 fae5 	bl	8001ad4 <_Z8depth_50v.isra.0>
 800050a:	f000 fae9 	bl	8000ae0 <_Z5pausev>
 800050e:	f001 f901 	bl	8001714 <_Z8depth_30v.isra.0>
 8000512:	f000 fae5 	bl	8000ae0 <_Z5pausev>
 8000516:	f000 ff1d 	bl	8001354 <_Z8depth_10v.isra.0>
 800051a:	f000 fae1 	bl	8000ae0 <_Z5pausev>
 800051e:	e7fe      	b.n	800051e <main+0x1da>
 8000520:	e9cd 4604 	strd	r4, r6, [sp, #16]
 8000524:	4924      	ldr	r1, [pc, #144]	@ (80005b8 <main+0x274>)
 8000526:	e897 000c 	ldmia.w	r7, {r2, r3}
 800052a:	a806      	add	r0, sp, #24
 800052c:	f000 fa08 	bl	8000940 <_ZN3hal7stm32f14uart12driver_writeESt4spanIKhLj4294967295EE>
 8000530:	9b07      	ldr	r3, [sp, #28]
 8000532:	1af6      	subs	r6, r6, r3
 8000534:	441c      	add	r4, r3
 8000536:	d1d3      	bne.n	80004e0 <main+0x19c>
 8000538:	e7de      	b.n	80004f8 <main+0x1b4>
 800053a:	2042      	movs	r0, #66	@ 0x42
 800053c:	4b24      	ldr	r3, [pc, #144]	@ (80005d0 <main+0x28c>)
 800053e:	7018      	strb	r0, [r3, #0]
 8000540:	6993      	ldr	r3, [r2, #24]
 8000542:	0759      	lsls	r1, r3, #29
 8000544:	f140 80e5 	bpl.w	8000712 <main+0x3ce>
 8000548:	2301      	movs	r3, #1
 800054a:	6023      	str	r3, [r4, #0]
 800054c:	e75d      	b.n	800040a <main+0xc6>
 800054e:	bf00      	nop
 8000550:	40021000 	.word	0x40021000
 8000554:	200000c8 	.word	0x200000c8
 8000558:	4c742400 	.word	0x4c742400
 800055c:	ffbf000f 	.word	0xffbf000f
 8000560:	40022000 	.word	0x40022000
 8000564:	4bf42400 	.word	0x4bf42400
 8000568:	2000000c 	.word	0x2000000c
 800056c:	20000008 	.word	0x20000008
 8000570:	200000c4 	.word	0x200000c4
 8000574:	4c22c2ab 	.word	0x4c22c2ab
 8000578:	2000001c 	.word	0x2000001c
 800057c:	20000018 	.word	0x20000018
 8000580:	20000014 	.word	0x20000014
 8000584:	20000194 	.word	0x20000194
 8000588:	20000010 	.word	0x20000010
 800058c:	4b22c2ab 	.word	0x4b22c2ab
 8000590:	20000004 	.word	0x20000004
 8000594:	0800093d 	.word	0x0800093d
 8000598:	2000018c 	.word	0x2000018c
 800059c:	20000184 	.word	0x20000184
 80005a0:	20000168 	.word	0x20000168
 80005a4:	20000154 	.word	0x20000154
 80005a8:	20000164 	.word	0x20000164
 80005ac:	20000150 	.word	0x20000150
 80005b0:	2000014c 	.word	0x2000014c
 80005b4:	000f4240 	.word	0x000f4240
 80005b8:	2000016c 	.word	0x2000016c
 80005bc:	20000198 	.word	0x20000198
 80005c0:	08007910 	.word	0x08007910
 80005c4:	08007908 	.word	0x08007908
 80005c8:	08000941 	.word	0x08000941
 80005cc:	2000019c 	.word	0x2000019c
 80005d0:	20000190 	.word	0x20000190
 80005d4:	2280      	movs	r2, #128	@ 0x80
 80005d6:	4d6b      	ldr	r5, [pc, #428]	@ (8000784 <main+0x440>)
 80005d8:	f8ad 3024 	strh.w	r3, [sp, #36]	@ 0x24
 80005dc:	4b6a      	ldr	r3, [pc, #424]	@ (8000788 <main+0x444>)
 80005de:	496b      	ldr	r1, [pc, #428]	@ (800078c <main+0x448>)
 80005e0:	602b      	str	r3, [r5, #0]
 80005e2:	4b6b      	ldr	r3, [pc, #428]	@ (8000790 <main+0x44c>)
 80005e4:	4f6b      	ldr	r7, [pc, #428]	@ (8000794 <main+0x450>)
 80005e6:	e9c5 2303 	strd	r2, r3, [r5, #12]
 80005ea:	4b6b      	ldr	r3, [pc, #428]	@ (8000798 <main+0x454>)
 80005ec:	204e      	movs	r0, #78	@ 0x4e
 80005ee:	616b      	str	r3, [r5, #20]
 80005f0:	4b6a      	ldr	r3, [pc, #424]	@ (800079c <main+0x458>)
 80005f2:	9108      	str	r1, [sp, #32]
 80005f4:	606b      	str	r3, [r5, #4]
 80005f6:	60af      	str	r7, [r5, #8]
 80005f8:	f000 fd9c 	bl	8001134 <_ZN3hal7stm32f18power_onENS0_10peripheralE>
 80005fc:	4b68      	ldr	r3, [pc, #416]	@ (80007a0 <main+0x45c>)
 80005fe:	6958      	ldr	r0, [r3, #20]
 8000600:	f010 0001 	ands.w	r0, r0, #1
 8000604:	f000 8088 	beq.w	8000718 <main+0x3d4>
 8000608:	f04f 0e14 	mov.w	lr, #20
 800060c:	f04f 0b80 	mov.w	fp, #128	@ 0x80
 8000610:	f242 09a1 	movw	r9, #8353	@ 0x20a1
 8000614:	7cab      	ldrb	r3, [r5, #18]
 8000616:	f8d5 c004 	ldr.w	ip, [r5, #4]
 800061a:	1e5a      	subs	r2, r3, #1
 800061c:	fb0e f202 	mul.w	r2, lr, r2
 8000620:	fb0e f303 	mul.w	r3, lr, r3
 8000624:	f102 4280 	add.w	r2, r2, #1073741824	@ 0x40000000
 8000628:	f103 4380 	add.w	r3, r3, #1073741824	@ 0x40000000
 800062c:	f502 3200 	add.w	r2, r2, #131072	@ 0x20000
 8000630:	f10c 0a04 	add.w	sl, ip, #4
 8000634:	f503 3300 	add.w	r3, r3, #131072	@ 0x20000
 8000638:	f843 bc08 	str.w	fp, [r3, #-8]
 800063c:	f242 080c 	movw	r8, #8204	@ 0x200c
 8000640:	f8c2 a010 	str.w	sl, [r2, #16]
 8000644:	6157      	str	r7, [r2, #20]
 8000646:	f843 9c0c 	str.w	r9, [r3, #-12]
 800064a:	2340      	movs	r3, #64	@ 0x40
 800064c:	f8cc 800c 	str.w	r8, [ip, #12]
 8000650:	4621      	mov	r1, r4
 8000652:	f8cc 3014 	str.w	r3, [ip, #20]
 8000656:	484b      	ldr	r0, [pc, #300]	@ (8000784 <main+0x440>)
 8000658:	f001 fe56 	bl	8002308 <_ZN3hal7stm32f14uart16driver_configureERKNS_6serial8settingsE>
 800065c:	4b51      	ldr	r3, [pc, #324]	@ (80007a4 <main+0x460>)
 800065e:	6819      	ldr	r1, [r3, #0]
 8000660:	f8b5 3013 	ldrh.w	r3, [r5, #19]
 8000664:	f8ad 300c 	strh.w	r3, [sp, #12]
 8000668:	9803      	ldr	r0, [sp, #12]
 800066a:	f001 fc87 	bl	8001f7c <_ZN3hal7stm32f113configure_pinENS0_10pin_selectENS0_12pin_config_tE>
 800066e:	4b4e      	ldr	r3, [pc, #312]	@ (80007a8 <main+0x464>)
 8000670:	6819      	ldr	r1, [r3, #0]
 8000672:	f8b5 3015 	ldrh.w	r3, [r5, #21]
 8000676:	f8ad 3008 	strh.w	r3, [sp, #8]
 800067a:	9802      	ldr	r0, [sp, #8]
 800067c:	f001 fc7e 	bl	8001f7c <_ZN3hal7stm32f113configure_pinENS0_10pin_selectENS0_12pin_config_tE>
 8000680:	2301      	movs	r3, #1
 8000682:	4a4a      	ldr	r2, [pc, #296]	@ (80007ac <main+0x468>)
 8000684:	494a      	ldr	r1, [pc, #296]	@ (80007b0 <main+0x46c>)
 8000686:	483f      	ldr	r0, [pc, #252]	@ (8000784 <main+0x440>)
 8000688:	6033      	str	r3, [r6, #0]
 800068a:	f002 fd19 	bl	80030c0 <__aeabi_atexit>
 800068e:	e711      	b.n	80004b4 <main+0x170>
 8000690:	2701      	movs	r7, #1
 8000692:	e9c5 3301 	strd	r3, r3, [r5, #4]
 8000696:	6832      	ldr	r2, [r6, #0]
 8000698:	4e46      	ldr	r6, [pc, #280]	@ (80007b4 <main+0x470>)
 800069a:	60ea      	str	r2, [r5, #12]
 800069c:	f8d6 00fc 	ldr.w	r0, [r6, #252]	@ 0xfc
 80006a0:	4a45      	ldr	r2, [pc, #276]	@ (80007b8 <main+0x474>)
 80006a2:	f8df c118 	ldr.w	ip, [pc, #280]	@ 80007bc <main+0x478>
 80006a6:	f040 7080 	orr.w	r0, r0, #16777216	@ 0x1000000
 80006aa:	f8c5 c000 	str.w	ip, [r5]
 80006ae:	f8c6 00fc 	str.w	r0, [r6, #252]	@ 0xfc
 80006b2:	6053      	str	r3, [r2, #4]
 80006b4:	6813      	ldr	r3, [r2, #0]
 80006b6:	4628      	mov	r0, r5
 80006b8:	433b      	orrs	r3, r7
 80006ba:	6013      	str	r3, [r2, #0]
 80006bc:	600f      	str	r7, [r1, #0]
 80006be:	4a3b      	ldr	r2, [pc, #236]	@ (80007ac <main+0x468>)
 80006c0:	493f      	ldr	r1, [pc, #252]	@ (80007c0 <main+0x47c>)
 80006c2:	f002 fcfd 	bl	80030c0 <__aeabi_atexit>
 80006c6:	e6e7      	b.n	8000498 <main+0x154>
 80006c8:	4a3e      	ldr	r2, [pc, #248]	@ (80007c4 <main+0x480>)
 80006ca:	4f3f      	ldr	r7, [pc, #252]	@ (80007c8 <main+0x484>)
 80006cc:	7812      	ldrb	r2, [r2, #0]
 80006ce:	9308      	str	r3, [sp, #32]
 80006d0:	3a01      	subs	r2, #1
 80006d2:	b2d2      	uxtb	r2, r2
 80006d4:	f88d 3024 	strb.w	r3, [sp, #36]	@ 0x24
 80006d8:	717b      	strb	r3, [r7, #5]
 80006da:	f1a2 0141 	sub.w	r1, r2, #65	@ 0x41
 80006de:	4b3b      	ldr	r3, [pc, #236]	@ (80007cc <main+0x488>)
 80006e0:	2907      	cmp	r1, #7
 80006e2:	713a      	strb	r2, [r7, #4]
 80006e4:	603b      	str	r3, [r7, #0]
 80006e6:	d83d      	bhi.n	8000764 <main+0x420>
 80006e8:	4b39      	ldr	r3, [pc, #228]	@ (80007d0 <main+0x48c>)
 80006ea:	f853 3021 	ldr.w	r3, [r3, r1, lsl #2]
 80006ee:	681b      	ldr	r3, [r3, #0]
 80006f0:	f003 030f 	and.w	r3, r3, #15
 80006f4:	2b04      	cmp	r3, #4
 80006f6:	d11b      	bne.n	8000730 <main+0x3ec>
 80006f8:	ac08      	add	r4, sp, #32
 80006fa:	4621      	mov	r1, r4
 80006fc:	4638      	mov	r0, r7
 80006fe:	f001 fd21 	bl	8002144 <_ZN3hal7stm32f112gpio_manager6output16driver_configureERKNS_10output_pin8settingsE>
 8000702:	2301      	movs	r3, #1
 8000704:	4638      	mov	r0, r7
 8000706:	4a29      	ldr	r2, [pc, #164]	@ (80007ac <main+0x468>)
 8000708:	4932      	ldr	r1, [pc, #200]	@ (80007d4 <main+0x490>)
 800070a:	602b      	str	r3, [r5, #0]
 800070c:	f002 fcd8 	bl	80030c0 <__aeabi_atexit>
 8000710:	e683      	b.n	800041a <main+0xd6>
 8000712:	f000 fd0f 	bl	8001134 <_ZN3hal7stm32f18power_onENS0_10peripheralE>
 8000716:	e717      	b.n	8000548 <main+0x204>
 8000718:	f000 fd0c 	bl	8001134 <_ZN3hal7stm32f18power_onENS0_10peripheralE>
 800071c:	e774      	b.n	8000608 <main+0x2c4>
 800071e:	2901      	cmp	r1, #1
 8000720:	d10c      	bne.n	800073c <main+0x3f8>
 8000722:	f002 fc6f 	bl	8003004 <__wrap___cxa_begin_catch>
 8000726:	f7ff fc8b 	bl	8000040 <_Z3endv>
 800072a:	f002 fc21 	bl	8002f70 <__wrap___cxa_end_catch>
 800072e:	e6f4      	b.n	800051a <main+0x1d6>
 8000730:	f7ff fc8e 	bl	8000050 <_ZN3hal7stm32f127throw_if_pin_is_unavailableENS0_10pin_selectE.part.0>
 8000734:	4604      	mov	r4, r0
 8000736:	f002 fc1b 	bl	8002f70 <__wrap___cxa_end_catch>
 800073a:	4620      	mov	r0, r4
 800073c:	f002 fca4 	bl	8003088 <__wrap__Unwind_Resume>
 8000740:	2901      	cmp	r1, #1
 8000742:	d1fb      	bne.n	800073c <main+0x3f8>
 8000744:	f002 fc5e 	bl	8003004 <__wrap___cxa_begin_catch>
 8000748:	f7ff fc7a 	bl	8000040 <_Z3endv>
 800074c:	f002 fc10 	bl	8002f70 <__wrap___cxa_end_catch>
 8000750:	e6df      	b.n	8000512 <main+0x1ce>
 8000752:	2901      	cmp	r1, #1
 8000754:	d1f2      	bne.n	800073c <main+0x3f8>
 8000756:	f002 fc55 	bl	8003004 <__wrap___cxa_begin_catch>
 800075a:	f7ff fc71 	bl	8000040 <_Z3endv>
 800075e:	f002 fc07 	bl	8002f70 <__wrap___cxa_end_catch>
 8000762:	e6ce      	b.n	8000502 <main+0x1be>
 8000764:	2208      	movs	r2, #8
 8000766:	481c      	ldr	r0, [pc, #112]	@ (80007d8 <main+0x494>)
 8000768:	f7ff fce4 	bl	8000134 <_ZSt24__throw_out_of_range_fmtPKcz>
 800076c:	2901      	cmp	r1, #1
 800076e:	d1e5      	bne.n	800073c <main+0x3f8>
 8000770:	f002 fc48 	bl	8003004 <__wrap___cxa_begin_catch>
 8000774:	f7ff fc64 	bl	8000040 <_Z3endv>
 8000778:	f002 fbfa 	bl	8002f70 <__wrap___cxa_end_catch>
 800077c:	e6c5      	b.n	800050a <main+0x1c6>
 800077e:	e7d9      	b.n	8000734 <main+0x3f0>
 8000780:	e7d8      	b.n	8000734 <main+0x3f0>
 8000782:	e7d7      	b.n	8000734 <main+0x3f0>
 8000784:	2000016c 	.word	0x2000016c
 8000788:	08007388 	.word	0x08007388
 800078c:	47e10000 	.word	0x47e10000
 8000790:	41050000 	.word	0x41050000
 8000794:	200000cc 	.word	0x200000cc
 8000798:	4e0a4109 	.word	0x4e0a4109
 800079c:	40013800 	.word	0x40013800
 80007a0:	40021000 	.word	0x40021000
 80007a4:	0800737c 	.word	0x0800737c
 80007a8:	08007378 	.word	0x08007378
 80007ac:	20000000 	.word	0x20000000
 80007b0:	080021c9 	.word	0x080021c9
 80007b4:	e000ed00 	.word	0xe000ed00
 80007b8:	e0001000 	.word	0xe0001000
 80007bc:	08007368 	.word	0x08007368
 80007c0:	0800097d 	.word	0x0800097d
 80007c4:	20000190 	.word	0x20000190
 80007c8:	20000184 	.word	0x20000184
 80007cc:	0800734c 	.word	0x0800734c
 80007d0:	08007324 	.word	0x08007324
 80007d4:	08000979 	.word	0x08000979
 80007d8:	080078d4 	.word	0x080078d4

080007dc <_GLOBAL__sub_I__ZNSt3pmr15memory_resourceD2Ev>:
 80007dc:	b508      	push	{r3, lr}
 80007de:	4908      	ldr	r1, [pc, #32]	@ (8000800 <_GLOBAL__sub_I__ZNSt3pmr15memory_resourceD2Ev+0x24>)
 80007e0:	4a08      	ldr	r2, [pc, #32]	@ (8000804 <_GLOBAL__sub_I__ZNSt3pmr15memory_resourceD2Ev+0x28>)
 80007e2:	4809      	ldr	r0, [pc, #36]	@ (8000808 <_GLOBAL__sub_I__ZNSt3pmr15memory_resourceD2Ev+0x2c>)
 80007e4:	f002 fc6c 	bl	80030c0 <__aeabi_atexit>
 80007e8:	4a06      	ldr	r2, [pc, #24]	@ (8000804 <_GLOBAL__sub_I__ZNSt3pmr15memory_resourceD2Ev+0x28>)
 80007ea:	4908      	ldr	r1, [pc, #32]	@ (800080c <_GLOBAL__sub_I__ZNSt3pmr15memory_resourceD2Ev+0x30>)
 80007ec:	4808      	ldr	r0, [pc, #32]	@ (8000810 <_GLOBAL__sub_I__ZNSt3pmr15memory_resourceD2Ev+0x34>)
 80007ee:	f002 fc67 	bl	80030c0 <__aeabi_atexit>
 80007f2:	e8bd 4008 	ldmia.w	sp!, {r3, lr}
 80007f6:	4a03      	ldr	r2, [pc, #12]	@ (8000804 <_GLOBAL__sub_I__ZNSt3pmr15memory_resourceD2Ev+0x28>)
 80007f8:	4906      	ldr	r1, [pc, #24]	@ (8000814 <_GLOBAL__sub_I__ZNSt3pmr15memory_resourceD2Ev+0x38>)
 80007fa:	4807      	ldr	r0, [pc, #28]	@ (8000818 <_GLOBAL__sub_I__ZNSt3pmr15memory_resourceD2Ev+0x3c>)
 80007fc:	f002 bc60 	b.w	80030c0 <__aeabi_atexit>
 8000800:	08003a61 	.word	0x08003a61
 8000804:	20000000 	.word	0x20000000
 8000808:	20000098 	.word	0x20000098
 800080c:	08003a65 	.word	0x08003a65
 8000810:	20000094 	.word	0x20000094
 8000814:	08003a69 	.word	0x08003a69
 8000818:	20000090 	.word	0x20000090

0800081c <_GLOBAL__sub_I__ZSt20__throw_system_errori>:
 800081c:	b508      	push	{r3, lr}
 800081e:	4906      	ldr	r1, [pc, #24]	@ (8000838 <_GLOBAL__sub_I__ZSt20__throw_system_errori+0x1c>)
 8000820:	4a06      	ldr	r2, [pc, #24]	@ (800083c <_GLOBAL__sub_I__ZSt20__throw_system_errori+0x20>)
 8000822:	4807      	ldr	r0, [pc, #28]	@ (8000840 <_GLOBAL__sub_I__ZSt20__throw_system_errori+0x24>)
 8000824:	f002 fc4c 	bl	80030c0 <__aeabi_atexit>
 8000828:	e8bd 4008 	ldmia.w	sp!, {r3, lr}
 800082c:	4a03      	ldr	r2, [pc, #12]	@ (800083c <_GLOBAL__sub_I__ZSt20__throw_system_errori+0x20>)
 800082e:	4905      	ldr	r1, [pc, #20]	@ (8000844 <_GLOBAL__sub_I__ZSt20__throw_system_errori+0x28>)
 8000830:	4805      	ldr	r0, [pc, #20]	@ (8000848 <_GLOBAL__sub_I__ZSt20__throw_system_errori+0x2c>)
 8000832:	f002 bc45 	b.w	80030c0 <__aeabi_atexit>
 8000836:	bf00      	nop
 8000838:	08003f99 	.word	0x08003f99
 800083c:	20000000 	.word	0x20000000
 8000840:	200000a0 	.word	0x200000a0
 8000844:	08003f9d 	.word	0x08003f9d
 8000848:	2000009c 	.word	0x2000009c

0800084c <_start>:
 800084c:	b508      	push	{r3, lr}
 800084e:	4a08      	ldr	r2, [pc, #32]	@ (8000870 <_start+0x24>)
 8000850:	4908      	ldr	r1, [pc, #32]	@ (8000874 <_start+0x28>)
 8000852:	4809      	ldr	r0, [pc, #36]	@ (8000878 <_start+0x2c>)
 8000854:	f004 fc42 	bl	80050dc <memcpy>
 8000858:	2100      	movs	r1, #0
 800085a:	4a08      	ldr	r2, [pc, #32]	@ (800087c <_start+0x30>)
 800085c:	4808      	ldr	r0, [pc, #32]	@ (8000880 <_start+0x34>)
 800085e:	f004 fc4b 	bl	80050f8 <memset>
 8000862:	f004 fd79 	bl	8005358 <__libc_init_array>
 8000866:	2100      	movs	r1, #0
 8000868:	4608      	mov	r0, r1
 800086a:	f7ff fd6b 	bl	8000344 <main>
 800086e:	e7fe      	b.n	800086e <_start+0x22>
 8000870:	000000a8 	.word	0x000000a8
 8000874:	08008bb0 	.word	0x08008bb0
 8000878:	20000000 	.word	0x20000000
 800087c:	00000330 	.word	0x00000330
 8000880:	200000a8 	.word	0x200000a8

08000884 <deregister_tm_clones>:
 8000884:	4803      	ldr	r0, [pc, #12]	@ (8000894 <deregister_tm_clones+0x10>)
 8000886:	4b04      	ldr	r3, [pc, #16]	@ (8000898 <deregister_tm_clones+0x14>)
 8000888:	4283      	cmp	r3, r0
 800088a:	d002      	beq.n	8000892 <deregister_tm_clones+0xe>
 800088c:	4b03      	ldr	r3, [pc, #12]	@ (800089c <deregister_tm_clones+0x18>)
 800088e:	b103      	cbz	r3, 8000892 <deregister_tm_clones+0xe>
 8000890:	4718      	bx	r3
 8000892:	4770      	bx	lr
 8000894:	200000a8 	.word	0x200000a8
 8000898:	200000a8 	.word	0x200000a8
 800089c:	00000000 	.word	0x00000000

080008a0 <register_tm_clones>:
 80008a0:	4805      	ldr	r0, [pc, #20]	@ (80008b8 <register_tm_clones+0x18>)
 80008a2:	4b06      	ldr	r3, [pc, #24]	@ (80008bc <register_tm_clones+0x1c>)
 80008a4:	1a1b      	subs	r3, r3, r0
 80008a6:	0fd9      	lsrs	r1, r3, #31
 80008a8:	eb01 01a3 	add.w	r1, r1, r3, asr #2
 80008ac:	1049      	asrs	r1, r1, #1
 80008ae:	d002      	beq.n	80008b6 <register_tm_clones+0x16>
 80008b0:	4b03      	ldr	r3, [pc, #12]	@ (80008c0 <register_tm_clones+0x20>)
 80008b2:	b103      	cbz	r3, 80008b6 <register_tm_clones+0x16>
 80008b4:	4718      	bx	r3
 80008b6:	4770      	bx	lr
 80008b8:	200000a8 	.word	0x200000a8
 80008bc:	200000a8 	.word	0x200000a8
 80008c0:	00000000 	.word	0x00000000

080008c4 <__do_global_dtors_aux>:
 80008c4:	b510      	push	{r4, lr}
 80008c6:	4c06      	ldr	r4, [pc, #24]	@ (80008e0 <__do_global_dtors_aux+0x1c>)
 80008c8:	7823      	ldrb	r3, [r4, #0]
 80008ca:	b943      	cbnz	r3, 80008de <__do_global_dtors_aux+0x1a>
 80008cc:	f7ff ffda 	bl	8000884 <deregister_tm_clones>
 80008d0:	4b04      	ldr	r3, [pc, #16]	@ (80008e4 <__do_global_dtors_aux+0x20>)
 80008d2:	b113      	cbz	r3, 80008da <__do_global_dtors_aux+0x16>
 80008d4:	4804      	ldr	r0, [pc, #16]	@ (80008e8 <__do_global_dtors_aux+0x24>)
 80008d6:	f3af 8000 	nop.w
 80008da:	2301      	movs	r3, #1
 80008dc:	7023      	strb	r3, [r4, #0]
 80008de:	bd10      	pop	{r4, pc}
 80008e0:	200000a8 	.word	0x200000a8
 80008e4:	00000000 	.word	0x00000000
 80008e8:	080089dc 	.word	0x080089dc

080008ec <frame_dummy>:
 80008ec:	b508      	push	{r3, lr}
 80008ee:	4b05      	ldr	r3, [pc, #20]	@ (8000904 <frame_dummy+0x18>)
 80008f0:	b11b      	cbz	r3, 80008fa <frame_dummy+0xe>
 80008f2:	4905      	ldr	r1, [pc, #20]	@ (8000908 <frame_dummy+0x1c>)
 80008f4:	4805      	ldr	r0, [pc, #20]	@ (800090c <frame_dummy+0x20>)
 80008f6:	f3af 8000 	nop.w
 80008fa:	e8bd 4008 	ldmia.w	sp!, {r3, lr}
 80008fe:	f7ff bfcf 	b.w	80008a0 <register_tm_clones>
 8000902:	bf00      	nop
 8000904:	00000000 	.word	0x00000000
 8000908:	200000ac 	.word	0x200000ac
 800090c:	080089dc 	.word	0x080089dc

08000910 <_ZN3hal26single_exception_allocator11do_allocateEjj>:
 8000910:	4603      	mov	r3, r0
 8000912:	f890 0048 	ldrb.w	r0, [r0, #72]	@ 0x48
 8000916:	b938      	cbnz	r0, 8000928 <_ZN3hal26single_exception_allocator11do_allocateEjj+0x18>
 8000918:	2940      	cmp	r1, #64	@ 0x40
 800091a:	d806      	bhi.n	800092a <_ZN3hal26single_exception_allocator11do_allocateEjj+0x1a>
 800091c:	2201      	movs	r2, #1
 800091e:	f103 0008 	add.w	r0, r3, #8
 8000922:	f883 2048 	strb.w	r2, [r3, #72]	@ 0x48
 8000926:	4770      	bx	lr
 8000928:	2000      	movs	r0, #0
 800092a:	4770      	bx	lr

0800092c <_ZN10__cxxabiv119__terminate_handlerMUlvE_4_FUNEv>:
 800092c:	e7fe      	b.n	800092c <_ZN10__cxxabiv119__terminate_handlerMUlvE_4_FUNEv>
 800092e:	bf00      	nop

08000930 <_ZNK3hal26single_exception_allocator11do_is_equalERKNSt3pmr15memory_resourceE>:
 8000930:	1a08      	subs	r0, r1, r0
 8000932:	fab0 f080 	clz	r0, r0
 8000936:	0940      	lsrs	r0, r0, #5
 8000938:	4770      	bx	lr
 800093a:	bf00      	nop

0800093c <_ZZ19initialize_platformvENUlvE_4_FUNEv>:
 800093c:	e7fe      	b.n	800093c <_ZZ19initialize_platformvENUlvE_4_FUNEv>
 800093e:	bf00      	nop

08000940 <_ZN3hal7stm32f14uart12driver_writeESt4spanIKhLj4294967295EE>:
 8000940:	b510      	push	{r4, lr}
 8000942:	b082      	sub	sp, #8
 8000944:	e9cd 2300 	strd	r2, r3, [sp]
 8000948:	4613      	mov	r3, r2
 800094a:	9a01      	ldr	r2, [sp, #4]
 800094c:	466c      	mov	r4, sp
 800094e:	eb03 0c02 	add.w	ip, r3, r2
 8000952:	459c      	cmp	ip, r3
 8000954:	4686      	mov	lr, r0
 8000956:	6849      	ldr	r1, [r1, #4]
 8000958:	d007      	beq.n	800096a <_ZN3hal7stm32f14uart12driver_writeESt4spanIKhLj4294967295EE+0x2a>
 800095a:	680a      	ldr	r2, [r1, #0]
 800095c:	0612      	lsls	r2, r2, #24
 800095e:	d5fc      	bpl.n	800095a <_ZN3hal7stm32f14uart12driver_writeESt4spanIKhLj4294967295EE+0x1a>
 8000960:	f813 2b01 	ldrb.w	r2, [r3], #1
 8000964:	459c      	cmp	ip, r3
 8000966:	604a      	str	r2, [r1, #4]
 8000968:	d1f7      	bne.n	800095a <_ZN3hal7stm32f14uart12driver_writeESt4spanIKhLj4294967295EE+0x1a>
 800096a:	e894 0003 	ldmia.w	r4, {r0, r1}
 800096e:	e88e 0003 	stmia.w	lr, {r0, r1}
 8000972:	4670      	mov	r0, lr
 8000974:	b002      	add	sp, #8
 8000976:	bd10      	pop	{r4, pc}

08000978 <_ZN3hal7stm32f112gpio_manager6outputD1Ev>:
 8000978:	4770      	bx	lr
 800097a:	bf00      	nop

0800097c <_ZN3hal8cortex_m11dwt_counterD1Ev>:
 800097c:	4770      	bx	lr
 800097e:	bf00      	nop

08000980 <_ZN3hal8cortex_m11dwt_counter13driver_uptimeEv>:
 8000980:	4603      	mov	r3, r0
 8000982:	4a05      	ldr	r2, [pc, #20]	@ (8000998 <_ZN3hal8cortex_m11dwt_counter13driver_uptimeEv+0x18>)
 8000984:	6850      	ldr	r0, [r2, #4]
 8000986:	e9d3 2101 	ldrd	r2, r1, [r3, #4]
 800098a:	4290      	cmp	r0, r2
 800098c:	bf3c      	itt	cc
 800098e:	3101      	addcc	r1, #1
 8000990:	6099      	strcc	r1, [r3, #8]
 8000992:	6058      	str	r0, [r3, #4]
 8000994:	4770      	bx	lr
 8000996:	bf00      	nop
 8000998:	e0001000 	.word	0xe0001000

0800099c <_ZN3hal8cortex_m11dwt_counter16driver_frequencyEv>:
 800099c:	68c0      	ldr	r0, [r0, #12]
 800099e:	4770      	bx	lr

080009a0 <_ZN3hal7stm32f14uart11driver_readESt4spanIhLj4294967295EE>:
 80009a0:	e92d 43f0 	stmdb	sp!, {r4, r5, r6, r7, r8, r9, lr}
 80009a4:	461d      	mov	r5, r3
 80009a6:	b083      	sub	sp, #12
 80009a8:	4415      	add	r5, r2
 80009aa:	ac02      	add	r4, sp, #8
 80009ac:	42aa      	cmp	r2, r5
 80009ae:	4617      	mov	r7, r2
 80009b0:	e904 000c 	stmdb	r4, {r2, r3}
 80009b4:	f8d1 800c 	ldr.w	r8, [r1, #12]
 80009b8:	d02f      	beq.n	8000a1a <_ZN3hal7stm32f14uart11driver_readESt4spanIhLj4294967295EE+0x7a>
 80009ba:	4694      	mov	ip, r2
 80009bc:	2400      	movs	r4, #0
 80009be:	8a0b      	ldrh	r3, [r1, #16]
 80009c0:	4e17      	ldr	r6, [pc, #92]	@ (8000a20 <_ZN3hal7stm32f14uart11driver_readESt4spanIhLj4294967295EE+0x80>)
 80009c2:	e011      	b.n	80009e8 <_ZN3hal7stm32f14uart11driver_readESt4spanIhLj4294967295EE+0x48>
 80009c4:	688a      	ldr	r2, [r1, #8]
 80009c6:	f8a1 e010 	strh.w	lr, [r1, #16]
 80009ca:	5cd3      	ldrb	r3, [r2, r3]
 80009cc:	3401      	adds	r4, #1
 80009ce:	f80c 3b01 	strb.w	r3, [ip], #1
 80009d2:	8a0b      	ldrh	r3, [r1, #16]
 80009d4:	f8d1 800c 	ldr.w	r8, [r1, #12]
 80009d8:	4565      	cmp	r5, ip
 80009da:	fbb3 f2f8 	udiv	r2, r3, r8
 80009de:	fb08 3312 	mls	r3, r8, r2, r3
 80009e2:	b29b      	uxth	r3, r3
 80009e4:	820b      	strh	r3, [r1, #16]
 80009e6:	d010      	beq.n	8000a0a <_ZN3hal7stm32f14uart11driver_readESt4spanIhLj4294967295EE+0x6a>
 80009e8:	7c8a      	ldrb	r2, [r1, #18]
 80009ea:	f103 0e01 	add.w	lr, r3, #1
 80009ee:	eb02 0282 	add.w	r2, r2, r2, lsl #2
 80009f2:	eb06 0282 	add.w	r2, r6, r2, lsl #2
 80009f6:	f852 2c08 	ldr.w	r2, [r2, #-8]
 80009fa:	eba8 0202 	sub.w	r2, r8, r2
 80009fe:	fbb2 f9f8 	udiv	r9, r2, r8
 8000a02:	fb08 2219 	mls	r2, r8, r9, r2
 8000a06:	4293      	cmp	r3, r2
 8000a08:	d1dc      	bne.n	80009c4 <_ZN3hal7stm32f14uart11driver_readESt4spanIhLj4294967295EE+0x24>
 8000a0a:	2301      	movs	r3, #1
 8000a0c:	e9c0 7400 	strd	r7, r4, [r0]
 8000a10:	e9c0 3802 	strd	r3, r8, [r0, #8]
 8000a14:	b003      	add	sp, #12
 8000a16:	e8bd 83f0 	ldmia.w	sp!, {r4, r5, r6, r7, r8, r9, pc}
 8000a1a:	2400      	movs	r4, #0
 8000a1c:	e7f5      	b.n	8000a0a <_ZN3hal7stm32f14uart11driver_readESt4spanIhLj4294967295EE+0x6a>
 8000a1e:	bf00      	nop
 8000a20:	40020000 	.word	0x40020000

08000a24 <_ZN3hal7stm32f14uart12driver_flushEv>:
 8000a24:	7c83      	ldrb	r3, [r0, #18]
 8000a26:	68c2      	ldr	r2, [r0, #12]
 8000a28:	3b01      	subs	r3, #1
 8000a2a:	eb03 0383 	add.w	r3, r3, r3, lsl #2
 8000a2e:	009b      	lsls	r3, r3, #2
 8000a30:	f103 4380 	add.w	r3, r3, #1073741824	@ 0x40000000
 8000a34:	f503 3300 	add.w	r3, r3, #131072	@ 0x20000
 8000a38:	68db      	ldr	r3, [r3, #12]
 8000a3a:	1ad3      	subs	r3, r2, r3
 8000a3c:	fbb3 f1f2 	udiv	r1, r3, r2
 8000a40:	fb02 3311 	mls	r3, r2, r1, r3
 8000a44:	8203      	strh	r3, [r0, #16]
 8000a46:	4770      	bx	lr

08000a48 <_ZN3hal5delayERNS_12steady_clockENSt6chrono8durationIxSt5ratioILx1ELx1000000000EEEE.constprop.0>:
 8000a48:	6803      	ldr	r3, [r0, #0]
 8000a4a:	e92d 41f0 	stmdb	sp!, {r4, r5, r6, r7, r8, lr}
 8000a4e:	689b      	ldr	r3, [r3, #8]
 8000a50:	4605      	mov	r5, r0
 8000a52:	4798      	blx	r3
 8000a54:	4601      	mov	r1, r0
 8000a56:	f04f 507e 	mov.w	r0, #1065353216	@ 0x3f800000
 8000a5a:	f004 f951 	bl	8004d00 <__aeabi_fdiv>
 8000a5e:	491d      	ldr	r1, [pc, #116]	@ (8000ad4 <_ZN3hal5delayERNS_12steady_clockENSt6chrono8durationIxSt5ratioILx1ELx1000000000EEEE.constprop.0+0x8c>)
 8000a60:	f004 f89a 	bl	8004b98 <__aeabi_fmul>
 8000a64:	f020 4600 	bic.w	r6, r0, #2147483648	@ 0x80000000
 8000a68:	4604      	mov	r4, r0
 8000a6a:	491b      	ldr	r1, [pc, #108]	@ (8000ad8 <_ZN3hal5delayERNS_12steady_clockENSt6chrono8durationIxSt5ratioILx1ELx1000000000EEEE.constprop.0+0x90>)
 8000a6c:	4630      	mov	r0, r6
 8000a6e:	f004 fa59 	bl	8004f24 <__aeabi_fcmpun>
 8000a72:	bb40      	cbnz	r0, 8000ac6 <_ZN3hal5delayERNS_12steady_clockENSt6chrono8durationIxSt5ratioILx1ELx1000000000EEEE.constprop.0+0x7e>
 8000a74:	4630      	mov	r0, r6
 8000a76:	4918      	ldr	r1, [pc, #96]	@ (8000ad8 <_ZN3hal5delayERNS_12steady_clockENSt6chrono8durationIxSt5ratioILx1ELx1000000000EEEE.constprop.0+0x90>)
 8000a78:	f004 fa36 	bl	8004ee8 <__aeabi_fcmple>
 8000a7c:	bb18      	cbnz	r0, 8000ac6 <_ZN3hal5delayERNS_12steady_clockENSt6chrono8durationIxSt5ratioILx1ELx1000000000EEEE.constprop.0+0x7e>
 8000a7e:	f04f 38ff 	mov.w	r8, #4294967295	@ 0xffffffff
 8000a82:	f06f 4700 	mvn.w	r7, #2147483648	@ 0x80000000
 8000a86:	682b      	ldr	r3, [r5, #0]
 8000a88:	4628      	mov	r0, r5
 8000a8a:	68db      	ldr	r3, [r3, #12]
 8000a8c:	4798      	blx	r3
 8000a8e:	4642      	mov	r2, r8
 8000a90:	463b      	mov	r3, r7
 8000a92:	4604      	mov	r4, r0
 8000a94:	460e      	mov	r6, r1
 8000a96:	4811      	ldr	r0, [pc, #68]	@ (8000adc <_ZN3hal5delayERNS_12steady_clockENSt6chrono8durationIxSt5ratioILx1ELx1000000000EEEE.constprop.0+0x94>)
 8000a98:	2100      	movs	r1, #0
 8000a9a:	f004 fa59 	bl	8004f50 <__aeabi_ldivmod>
 8000a9e:	460a      	mov	r2, r1
 8000aa0:	2801      	cmp	r0, #1
 8000aa2:	f172 0100 	sbcs.w	r1, r2, #0
 8000aa6:	4603      	mov	r3, r0
 8000aa8:	bfbc      	itt	lt
 8000aaa:	2301      	movlt	r3, #1
 8000aac:	2200      	movlt	r2, #0
 8000aae:	191c      	adds	r4, r3, r4
 8000ab0:	eb46 0602 	adc.w	r6, r6, r2
 8000ab4:	682b      	ldr	r3, [r5, #0]
 8000ab6:	4628      	mov	r0, r5
 8000ab8:	68db      	ldr	r3, [r3, #12]
 8000aba:	4798      	blx	r3
 8000abc:	42a0      	cmp	r0, r4
 8000abe:	41b1      	sbcs	r1, r6
 8000ac0:	d3f8      	bcc.n	8000ab4 <_ZN3hal5delayERNS_12steady_clockENSt6chrono8durationIxSt5ratioILx1ELx1000000000EEEE.constprop.0+0x6c>
 8000ac2:	e8bd 81f0 	ldmia.w	sp!, {r4, r5, r6, r7, r8, pc}
 8000ac6:	4620      	mov	r0, r4
 8000ac8:	f004 fa92 	bl	8004ff0 <__aeabi_f2lz>
 8000acc:	4680      	mov	r8, r0
 8000ace:	460f      	mov	r7, r1
 8000ad0:	e7d9      	b.n	8000a86 <_ZN3hal5delayERNS_12steady_clockENSt6chrono8durationIxSt5ratioILx1ELx1000000000EEEE.constprop.0+0x3e>
 8000ad2:	bf00      	nop
 8000ad4:	4e6e6b28 	.word	0x4e6e6b28
 8000ad8:	7f7fffff 	.word	0x7f7fffff
 8000adc:	000f4240 	.word	0x000f4240

08000ae0 <_Z5pausev>:
 8000ae0:	4902      	ldr	r1, [pc, #8]	@ (8000aec <_Z5pausev+0xc>)
 8000ae2:	2300      	movs	r3, #0
 8000ae4:	4a02      	ldr	r2, [pc, #8]	@ (8000af0 <_Z5pausev+0x10>)
 8000ae6:	6808      	ldr	r0, [r1, #0]
 8000ae8:	f7ff bfae 	b.w	8000a48 <_ZN3hal5delayERNS_12steady_clockENSt6chrono8durationIxSt5ratioILx1ELx1000000000EEEE.constprop.0>
 8000aec:	20000150 	.word	0x20000150
 8000af0:	000f4240 	.word	0x000f4240

08000af4 <_ZN2ke12unwind_frameERKNS_14instructions_tERNS_12cortex_m_cpuE>:
 8000af4:	b5f8      	push	{r3, r4, r5, r6, r7, lr}
 8000af6:	2501      	movs	r5, #1
 8000af8:	4eb4      	ldr	r6, [pc, #720]	@ (8000dcc <_ZN2ke12unwind_frameERKNS_14instructions_tERNS_12cortex_m_cpuE+0x2d8>)
 8000afa:	6b4c      	ldr	r4, [r1, #52]	@ 0x34
 8000afc:	4602      	mov	r2, r0
 8000afe:	f812 cb01 	ldrb.w	ip, [r2], #1
 8000b02:	f856 302c 	ldr.w	r3, [r6, ip, lsl #2]
 8000b06:	f043 0301 	orr.w	r3, r3, #1
 8000b0a:	4718      	bx	r3
 8000b0c:	634c      	str	r4, [r1, #52]	@ 0x34
 8000b0e:	b10d      	cbz	r5, 8000b14 <_ZN2ke12unwind_frameERKNS_14instructions_tERNS_12cortex_m_cpuE+0x20>
 8000b10:	6b8b      	ldr	r3, [r1, #56]	@ 0x38
 8000b12:	63cb      	str	r3, [r1, #60]	@ 0x3c
 8000b14:	bdf8      	pop	{r3, r4, r5, r6, r7, pc}
 8000b16:	7843      	ldrb	r3, [r0, #1]
 8000b18:	2b00      	cmp	r3, #0
 8000b1a:	f000 82d9 	beq.w	80010d0 <_ZN2ke12unwind_frameERKNS_14instructions_tERNS_12cortex_m_cpuE+0x5dc>
 8000b1e:	7842      	ldrb	r2, [r0, #1]
 8000b20:	f00c 030f 	and.w	r3, ip, #15
 8000b24:	ea42 2303 	orr.w	r3, r2, r3, lsl #8
 8000b28:	0712      	lsls	r2, r2, #28
 8000b2a:	f140 82ca 	bpl.w	80010c2 <_ZN2ke12unwind_frameERKNS_14instructions_tERNS_12cortex_m_cpuE+0x5ce>
 8000b2e:	2500      	movs	r5, #0
 8000b30:	f04f 0e01 	mov.w	lr, #1
 8000b34:	fa93 f2a3 	rbit	r2, r3
 8000b38:	fab2 f282 	clz	r2, r2
 8000b3c:	f854 7b04 	ldr.w	r7, [r4], #4
 8000b40:	f102 0c04 	add.w	ip, r2, #4
 8000b44:	fa0e f202 	lsl.w	r2, lr, r2
 8000b48:	4393      	bics	r3, r2
 8000b4a:	f841 702c 	str.w	r7, [r1, ip, lsl #2]
 8000b4e:	d1f1      	bne.n	8000b34 <_ZN2ke12unwind_frameERKNS_14instructions_tERNS_12cortex_m_cpuE+0x40>
 8000b50:	3002      	adds	r0, #2
 8000b52:	e7d3      	b.n	8000afc <_ZN2ke12unwind_frameERKNS_14instructions_tERNS_12cortex_m_cpuE+0x8>
 8000b54:	f00c 0c0f 	and.w	ip, ip, #15
 8000b58:	4610      	mov	r0, r2
 8000b5a:	f851 402c 	ldr.w	r4, [r1, ip, lsl #2]
 8000b5e:	e7cd      	b.n	8000afc <_ZN2ke12unwind_frameERKNS_14instructions_tERNS_12cortex_m_cpuE+0x8>
 8000b60:	4610      	mov	r0, r2
 8000b62:	34f8      	adds	r4, #248	@ 0xf8
 8000b64:	e7ca      	b.n	8000afc <_ZN2ke12unwind_frameERKNS_14instructions_tERNS_12cortex_m_cpuE+0x8>
 8000b66:	4610      	mov	r0, r2
 8000b68:	34f4      	adds	r4, #244	@ 0xf4
 8000b6a:	e7c7      	b.n	8000afc <_ZN2ke12unwind_frameERKNS_14instructions_tERNS_12cortex_m_cpuE+0x8>
 8000b6c:	4610      	mov	r0, r2
 8000b6e:	34f0      	adds	r4, #240	@ 0xf0
 8000b70:	e7c4      	b.n	8000afc <_ZN2ke12unwind_frameERKNS_14instructions_tERNS_12cortex_m_cpuE+0x8>
 8000b72:	4610      	mov	r0, r2
 8000b74:	34ec      	adds	r4, #236	@ 0xec
 8000b76:	e7c1      	b.n	8000afc <_ZN2ke12unwind_frameERKNS_14instructions_tERNS_12cortex_m_cpuE+0x8>
 8000b78:	4610      	mov	r0, r2
 8000b7a:	34e8      	adds	r4, #232	@ 0xe8
 8000b7c:	e7be      	b.n	8000afc <_ZN2ke12unwind_frameERKNS_14instructions_tERNS_12cortex_m_cpuE+0x8>
 8000b7e:	4610      	mov	r0, r2
 8000b80:	34e4      	adds	r4, #228	@ 0xe4
 8000b82:	e7bb      	b.n	8000afc <_ZN2ke12unwind_frameERKNS_14instructions_tERNS_12cortex_m_cpuE+0x8>
 8000b84:	4610      	mov	r0, r2
 8000b86:	34e0      	adds	r4, #224	@ 0xe0
 8000b88:	e7b8      	b.n	8000afc <_ZN2ke12unwind_frameERKNS_14instructions_tERNS_12cortex_m_cpuE+0x8>
 8000b8a:	4610      	mov	r0, r2
 8000b8c:	34dc      	adds	r4, #220	@ 0xdc
 8000b8e:	e7b5      	b.n	8000afc <_ZN2ke12unwind_frameERKNS_14instructions_tERNS_12cortex_m_cpuE+0x8>
 8000b90:	4610      	mov	r0, r2
 8000b92:	34d8      	adds	r4, #216	@ 0xd8
 8000b94:	e7b2      	b.n	8000afc <_ZN2ke12unwind_frameERKNS_14instructions_tERNS_12cortex_m_cpuE+0x8>
 8000b96:	4610      	mov	r0, r2
 8000b98:	34d4      	adds	r4, #212	@ 0xd4
 8000b9a:	e7af      	b.n	8000afc <_ZN2ke12unwind_frameERKNS_14instructions_tERNS_12cortex_m_cpuE+0x8>
 8000b9c:	4610      	mov	r0, r2
 8000b9e:	34d0      	adds	r4, #208	@ 0xd0
 8000ba0:	e7ac      	b.n	8000afc <_ZN2ke12unwind_frameERKNS_14instructions_tERNS_12cortex_m_cpuE+0x8>
 8000ba2:	4610      	mov	r0, r2
 8000ba4:	34cc      	adds	r4, #204	@ 0xcc
 8000ba6:	e7a9      	b.n	8000afc <_ZN2ke12unwind_frameERKNS_14instructions_tERNS_12cortex_m_cpuE+0x8>
 8000ba8:	4610      	mov	r0, r2
 8000baa:	34c8      	adds	r4, #200	@ 0xc8
 8000bac:	e7a6      	b.n	8000afc <_ZN2ke12unwind_frameERKNS_14instructions_tERNS_12cortex_m_cpuE+0x8>
 8000bae:	4610      	mov	r0, r2
 8000bb0:	34c4      	adds	r4, #196	@ 0xc4
 8000bb2:	e7a3      	b.n	8000afc <_ZN2ke12unwind_frameERKNS_14instructions_tERNS_12cortex_m_cpuE+0x8>
 8000bb4:	4610      	mov	r0, r2
 8000bb6:	34c0      	adds	r4, #192	@ 0xc0
 8000bb8:	e7a0      	b.n	8000afc <_ZN2ke12unwind_frameERKNS_14instructions_tERNS_12cortex_m_cpuE+0x8>
 8000bba:	4610      	mov	r0, r2
 8000bbc:	34bc      	adds	r4, #188	@ 0xbc
 8000bbe:	e79d      	b.n	8000afc <_ZN2ke12unwind_frameERKNS_14instructions_tERNS_12cortex_m_cpuE+0x8>
 8000bc0:	4610      	mov	r0, r2
 8000bc2:	34b8      	adds	r4, #184	@ 0xb8
 8000bc4:	e79a      	b.n	8000afc <_ZN2ke12unwind_frameERKNS_14instructions_tERNS_12cortex_m_cpuE+0x8>
 8000bc6:	4610      	mov	r0, r2
 8000bc8:	34b4      	adds	r4, #180	@ 0xb4
 8000bca:	e797      	b.n	8000afc <_ZN2ke12unwind_frameERKNS_14instructions_tERNS_12cortex_m_cpuE+0x8>
 8000bcc:	4610      	mov	r0, r2
 8000bce:	34b0      	adds	r4, #176	@ 0xb0
 8000bd0:	e794      	b.n	8000afc <_ZN2ke12unwind_frameERKNS_14instructions_tERNS_12cortex_m_cpuE+0x8>
 8000bd2:	4610      	mov	r0, r2
 8000bd4:	34ac      	adds	r4, #172	@ 0xac
 8000bd6:	e791      	b.n	8000afc <_ZN2ke12unwind_frameERKNS_14instructions_tERNS_12cortex_m_cpuE+0x8>
 8000bd8:	4610      	mov	r0, r2
 8000bda:	f504 7480 	add.w	r4, r4, #256	@ 0x100
 8000bde:	e78d      	b.n	8000afc <_ZN2ke12unwind_frameERKNS_14instructions_tERNS_12cortex_m_cpuE+0x8>
 8000be0:	4610      	mov	r0, r2
 8000be2:	34fc      	adds	r4, #252	@ 0xfc
 8000be4:	e78a      	b.n	8000afc <_ZN2ke12unwind_frameERKNS_14instructions_tERNS_12cortex_m_cpuE+0x8>
 8000be6:	6823      	ldr	r3, [r4, #0]
 8000be8:	4610      	mov	r0, r2
 8000bea:	610b      	str	r3, [r1, #16]
 8000bec:	6863      	ldr	r3, [r4, #4]
 8000bee:	3420      	adds	r4, #32
 8000bf0:	614b      	str	r3, [r1, #20]
 8000bf2:	f854 3c18 	ldr.w	r3, [r4, #-24]
 8000bf6:	618b      	str	r3, [r1, #24]
 8000bf8:	f854 3c14 	ldr.w	r3, [r4, #-20]
 8000bfc:	61cb      	str	r3, [r1, #28]
 8000bfe:	f854 3c10 	ldr.w	r3, [r4, #-16]
 8000c02:	620b      	str	r3, [r1, #32]
 8000c04:	f854 3c0c 	ldr.w	r3, [r4, #-12]
 8000c08:	624b      	str	r3, [r1, #36]	@ 0x24
 8000c0a:	f854 3c08 	ldr.w	r3, [r4, #-8]
 8000c0e:	628b      	str	r3, [r1, #40]	@ 0x28
 8000c10:	f854 3c04 	ldr.w	r3, [r4, #-4]
 8000c14:	638b      	str	r3, [r1, #56]	@ 0x38
 8000c16:	e771      	b.n	8000afc <_ZN2ke12unwind_frameERKNS_14instructions_tERNS_12cortex_m_cpuE+0x8>
 8000c18:	6823      	ldr	r3, [r4, #0]
 8000c1a:	4610      	mov	r0, r2
 8000c1c:	610b      	str	r3, [r1, #16]
 8000c1e:	6863      	ldr	r3, [r4, #4]
 8000c20:	3424      	adds	r4, #36	@ 0x24
 8000c22:	614b      	str	r3, [r1, #20]
 8000c24:	f854 3c1c 	ldr.w	r3, [r4, #-28]
 8000c28:	618b      	str	r3, [r1, #24]
 8000c2a:	f854 3c18 	ldr.w	r3, [r4, #-24]
 8000c2e:	61cb      	str	r3, [r1, #28]
 8000c30:	f854 3c14 	ldr.w	r3, [r4, #-20]
 8000c34:	620b      	str	r3, [r1, #32]
 8000c36:	f854 3c10 	ldr.w	r3, [r4, #-16]
 8000c3a:	624b      	str	r3, [r1, #36]	@ 0x24
 8000c3c:	f854 3c0c 	ldr.w	r3, [r4, #-12]
 8000c40:	628b      	str	r3, [r1, #40]	@ 0x28
 8000c42:	f854 3c08 	ldr.w	r3, [r4, #-8]
 8000c46:	62cb      	str	r3, [r1, #44]	@ 0x2c
 8000c48:	f854 3c04 	ldr.w	r3, [r4, #-4]
 8000c4c:	638b      	str	r3, [r1, #56]	@ 0x38
 8000c4e:	e755      	b.n	8000afc <_ZN2ke12unwind_frameERKNS_14instructions_tERNS_12cortex_m_cpuE+0x8>
 8000c50:	7842      	ldrb	r2, [r0, #1]
 8000c52:	1e53      	subs	r3, r2, #1
 8000c54:	2b0e      	cmp	r3, #14
 8000c56:	f200 823b 	bhi.w	80010d0 <_ZN2ke12unwind_frameERKNS_14instructions_tERNS_12cortex_m_cpuE+0x5dc>
 8000c5a:	f04f 0c01 	mov.w	ip, #1
 8000c5e:	fa92 f3a2 	rbit	r3, r2
 8000c62:	fab3 f383 	clz	r3, r3
 8000c66:	f854 7b04 	ldr.w	r7, [r4], #4
 8000c6a:	f841 7023 	str.w	r7, [r1, r3, lsl #2]
 8000c6e:	fa0c f303 	lsl.w	r3, ip, r3
 8000c72:	439a      	bics	r2, r3
 8000c74:	d1f3      	bne.n	8000c5e <_ZN2ke12unwind_frameERKNS_14instructions_tERNS_12cortex_m_cpuE+0x16a>
 8000c76:	3002      	adds	r0, #2
 8000c78:	e740      	b.n	8000afc <_ZN2ke12unwind_frameERKNS_14instructions_tERNS_12cortex_m_cpuE+0x8>
 8000c7a:	7847      	ldrb	r7, [r0, #1]
 8000c7c:	3002      	adds	r0, #2
 8000c7e:	2f80      	cmp	r7, #128	@ 0x80
 8000c80:	f040 8223 	bne.w	80010ca <_ZN2ke12unwind_frameERKNS_14instructions_tERNS_12cortex_m_cpuE+0x5d6>
 8000c84:	2700      	movs	r7, #0
 8000c86:	463b      	mov	r3, r7
 8000c88:	f810 cb01 	ldrb.w	ip, [r0], #1
 8000c8c:	3307      	adds	r3, #7
 8000c8e:	b2db      	uxtb	r3, r3
 8000c90:	f00c 027f 	and.w	r2, ip, #127	@ 0x7f
 8000c94:	409a      	lsls	r2, r3
 8000c96:	f1bc 0f80 	cmp.w	ip, #128	@ 0x80
 8000c9a:	ea47 0702 	orr.w	r7, r7, r2
 8000c9e:	d0f3      	beq.n	8000c88 <_ZN2ke12unwind_frameERKNS_14instructions_tERNS_12cortex_m_cpuE+0x194>
 8000ca0:	3781      	adds	r7, #129	@ 0x81
 8000ca2:	eb04 0487 	add.w	r4, r4, r7, lsl #2
 8000ca6:	e729      	b.n	8000afc <_ZN2ke12unwind_frameERKNS_14instructions_tERNS_12cortex_m_cpuE+0x8>
 8000ca8:	6823      	ldr	r3, [r4, #0]
 8000caa:	4610      	mov	r0, r2
 8000cac:	610b      	str	r3, [r1, #16]
 8000cae:	6863      	ldr	r3, [r4, #4]
 8000cb0:	341c      	adds	r4, #28
 8000cb2:	614b      	str	r3, [r1, #20]
 8000cb4:	f854 3c14 	ldr.w	r3, [r4, #-20]
 8000cb8:	618b      	str	r3, [r1, #24]
 8000cba:	f854 3c10 	ldr.w	r3, [r4, #-16]
 8000cbe:	61cb      	str	r3, [r1, #28]
 8000cc0:	f854 3c0c 	ldr.w	r3, [r4, #-12]
 8000cc4:	620b      	str	r3, [r1, #32]
 8000cc6:	f854 3c08 	ldr.w	r3, [r4, #-8]
 8000cca:	624b      	str	r3, [r1, #36]	@ 0x24
 8000ccc:	f854 3c04 	ldr.w	r3, [r4, #-4]
 8000cd0:	628b      	str	r3, [r1, #40]	@ 0x28
 8000cd2:	e713      	b.n	8000afc <_ZN2ke12unwind_frameERKNS_14instructions_tERNS_12cortex_m_cpuE+0x8>
 8000cd4:	6823      	ldr	r3, [r4, #0]
 8000cd6:	4610      	mov	r0, r2
 8000cd8:	610b      	str	r3, [r1, #16]
 8000cda:	6863      	ldr	r3, [r4, #4]
 8000cdc:	3420      	adds	r4, #32
 8000cde:	614b      	str	r3, [r1, #20]
 8000ce0:	f854 3c18 	ldr.w	r3, [r4, #-24]
 8000ce4:	618b      	str	r3, [r1, #24]
 8000ce6:	f854 3c14 	ldr.w	r3, [r4, #-20]
 8000cea:	61cb      	str	r3, [r1, #28]
 8000cec:	f854 3c10 	ldr.w	r3, [r4, #-16]
 8000cf0:	620b      	str	r3, [r1, #32]
 8000cf2:	f854 3c0c 	ldr.w	r3, [r4, #-12]
 8000cf6:	624b      	str	r3, [r1, #36]	@ 0x24
 8000cf8:	f854 3c08 	ldr.w	r3, [r4, #-8]
 8000cfc:	628b      	str	r3, [r1, #40]	@ 0x28
 8000cfe:	f854 3c04 	ldr.w	r3, [r4, #-4]
 8000d02:	62cb      	str	r3, [r1, #44]	@ 0x2c
 8000d04:	e6fa      	b.n	8000afc <_ZN2ke12unwind_frameERKNS_14instructions_tERNS_12cortex_m_cpuE+0x8>
 8000d06:	6823      	ldr	r3, [r4, #0]
 8000d08:	4610      	mov	r0, r2
 8000d0a:	610b      	str	r3, [r1, #16]
 8000d0c:	6863      	ldr	r3, [r4, #4]
 8000d0e:	3410      	adds	r4, #16
 8000d10:	614b      	str	r3, [r1, #20]
 8000d12:	f854 3c08 	ldr.w	r3, [r4, #-8]
 8000d16:	618b      	str	r3, [r1, #24]
 8000d18:	f854 3c04 	ldr.w	r3, [r4, #-4]
 8000d1c:	638b      	str	r3, [r1, #56]	@ 0x38
 8000d1e:	e6ed      	b.n	8000afc <_ZN2ke12unwind_frameERKNS_14instructions_tERNS_12cortex_m_cpuE+0x8>
 8000d20:	6823      	ldr	r3, [r4, #0]
 8000d22:	4610      	mov	r0, r2
 8000d24:	610b      	str	r3, [r1, #16]
 8000d26:	6863      	ldr	r3, [r4, #4]
 8000d28:	3414      	adds	r4, #20
 8000d2a:	614b      	str	r3, [r1, #20]
 8000d2c:	f854 3c0c 	ldr.w	r3, [r4, #-12]
 8000d30:	618b      	str	r3, [r1, #24]
 8000d32:	f854 3c08 	ldr.w	r3, [r4, #-8]
 8000d36:	61cb      	str	r3, [r1, #28]
 8000d38:	f854 3c04 	ldr.w	r3, [r4, #-4]
 8000d3c:	638b      	str	r3, [r1, #56]	@ 0x38
 8000d3e:	e6dd      	b.n	8000afc <_ZN2ke12unwind_frameERKNS_14instructions_tERNS_12cortex_m_cpuE+0x8>
 8000d40:	6823      	ldr	r3, [r4, #0]
 8000d42:	4610      	mov	r0, r2
 8000d44:	610b      	str	r3, [r1, #16]
 8000d46:	6863      	ldr	r3, [r4, #4]
 8000d48:	3418      	adds	r4, #24
 8000d4a:	614b      	str	r3, [r1, #20]
 8000d4c:	f854 3c10 	ldr.w	r3, [r4, #-16]
 8000d50:	618b      	str	r3, [r1, #24]
 8000d52:	f854 3c0c 	ldr.w	r3, [r4, #-12]
 8000d56:	61cb      	str	r3, [r1, #28]
 8000d58:	f854 3c08 	ldr.w	r3, [r4, #-8]
 8000d5c:	620b      	str	r3, [r1, #32]
 8000d5e:	f854 3c04 	ldr.w	r3, [r4, #-4]
 8000d62:	638b      	str	r3, [r1, #56]	@ 0x38
 8000d64:	e6ca      	b.n	8000afc <_ZN2ke12unwind_frameERKNS_14instructions_tERNS_12cortex_m_cpuE+0x8>
 8000d66:	6823      	ldr	r3, [r4, #0]
 8000d68:	4610      	mov	r0, r2
 8000d6a:	610b      	str	r3, [r1, #16]
 8000d6c:	6863      	ldr	r3, [r4, #4]
 8000d6e:	341c      	adds	r4, #28
 8000d70:	614b      	str	r3, [r1, #20]
 8000d72:	f854 3c14 	ldr.w	r3, [r4, #-20]
 8000d76:	618b      	str	r3, [r1, #24]
 8000d78:	f854 3c10 	ldr.w	r3, [r4, #-16]
 8000d7c:	61cb      	str	r3, [r1, #28]
 8000d7e:	f854 3c0c 	ldr.w	r3, [r4, #-12]
 8000d82:	620b      	str	r3, [r1, #32]
 8000d84:	f854 3c08 	ldr.w	r3, [r4, #-8]
 8000d88:	624b      	str	r3, [r1, #36]	@ 0x24
 8000d8a:	f854 3c04 	ldr.w	r3, [r4, #-4]
 8000d8e:	638b      	str	r3, [r1, #56]	@ 0x38
 8000d90:	e6b4      	b.n	8000afc <_ZN2ke12unwind_frameERKNS_14instructions_tERNS_12cortex_m_cpuE+0x8>
 8000d92:	6823      	ldr	r3, [r4, #0]
 8000d94:	4610      	mov	r0, r2
 8000d96:	610b      	str	r3, [r1, #16]
 8000d98:	6863      	ldr	r3, [r4, #4]
 8000d9a:	3408      	adds	r4, #8
 8000d9c:	638b      	str	r3, [r1, #56]	@ 0x38
 8000d9e:	e6ad      	b.n	8000afc <_ZN2ke12unwind_frameERKNS_14instructions_tERNS_12cortex_m_cpuE+0x8>
 8000da0:	6823      	ldr	r3, [r4, #0]
 8000da2:	4610      	mov	r0, r2
 8000da4:	610b      	str	r3, [r1, #16]
 8000da6:	6863      	ldr	r3, [r4, #4]
 8000da8:	340c      	adds	r4, #12
 8000daa:	614b      	str	r3, [r1, #20]
 8000dac:	f854 3c04 	ldr.w	r3, [r4, #-4]
 8000db0:	638b      	str	r3, [r1, #56]	@ 0x38
 8000db2:	e6a3      	b.n	8000afc <_ZN2ke12unwind_frameERKNS_14instructions_tERNS_12cortex_m_cpuE+0x8>
 8000db4:	4610      	mov	r0, r2
 8000db6:	3428      	adds	r4, #40	@ 0x28
 8000db8:	e6a0      	b.n	8000afc <_ZN2ke12unwind_frameERKNS_14instructions_tERNS_12cortex_m_cpuE+0x8>
 8000dba:	4610      	mov	r0, r2
 8000dbc:	3424      	adds	r4, #36	@ 0x24
 8000dbe:	e69d      	b.n	8000afc <_ZN2ke12unwind_frameERKNS_14instructions_tERNS_12cortex_m_cpuE+0x8>
 8000dc0:	4610      	mov	r0, r2
 8000dc2:	3420      	adds	r4, #32
 8000dc4:	e69a      	b.n	8000afc <_ZN2ke12unwind_frameERKNS_14instructions_tERNS_12cortex_m_cpuE+0x8>
 8000dc6:	4610      	mov	r0, r2
 8000dc8:	341c      	adds	r4, #28
 8000dca:	e697      	b.n	8000afc <_ZN2ke12unwind_frameERKNS_14instructions_tERNS_12cortex_m_cpuE+0x8>
 8000dcc:	080073c8 	.word	0x080073c8
 8000dd0:	4610      	mov	r0, r2
 8000dd2:	3418      	adds	r4, #24
 8000dd4:	e692      	b.n	8000afc <_ZN2ke12unwind_frameERKNS_14instructions_tERNS_12cortex_m_cpuE+0x8>
 8000dd6:	4610      	mov	r0, r2
 8000dd8:	3414      	adds	r4, #20
 8000dda:	e68f      	b.n	8000afc <_ZN2ke12unwind_frameERKNS_14instructions_tERNS_12cortex_m_cpuE+0x8>
 8000ddc:	4610      	mov	r0, r2
 8000dde:	3410      	adds	r4, #16
 8000de0:	e68c      	b.n	8000afc <_ZN2ke12unwind_frameERKNS_14instructions_tERNS_12cortex_m_cpuE+0x8>
 8000de2:	4610      	mov	r0, r2
 8000de4:	340c      	adds	r4, #12
 8000de6:	e689      	b.n	8000afc <_ZN2ke12unwind_frameERKNS_14instructions_tERNS_12cortex_m_cpuE+0x8>
 8000de8:	4610      	mov	r0, r2
 8000dea:	3408      	adds	r4, #8
 8000dec:	e686      	b.n	8000afc <_ZN2ke12unwind_frameERKNS_14instructions_tERNS_12cortex_m_cpuE+0x8>
 8000dee:	4610      	mov	r0, r2
 8000df0:	3404      	adds	r4, #4
 8000df2:	e683      	b.n	8000afc <_ZN2ke12unwind_frameERKNS_14instructions_tERNS_12cortex_m_cpuE+0x8>
 8000df4:	f854 3b04 	ldr.w	r3, [r4], #4
 8000df8:	4610      	mov	r0, r2
 8000dfa:	610b      	str	r3, [r1, #16]
 8000dfc:	e67e      	b.n	8000afc <_ZN2ke12unwind_frameERKNS_14instructions_tERNS_12cortex_m_cpuE+0x8>
 8000dfe:	6823      	ldr	r3, [r4, #0]
 8000e00:	4610      	mov	r0, r2
 8000e02:	610b      	str	r3, [r1, #16]
 8000e04:	6863      	ldr	r3, [r4, #4]
 8000e06:	3408      	adds	r4, #8
 8000e08:	614b      	str	r3, [r1, #20]
 8000e0a:	e677      	b.n	8000afc <_ZN2ke12unwind_frameERKNS_14instructions_tERNS_12cortex_m_cpuE+0x8>
 8000e0c:	6823      	ldr	r3, [r4, #0]
 8000e0e:	4610      	mov	r0, r2
 8000e10:	610b      	str	r3, [r1, #16]
 8000e12:	6863      	ldr	r3, [r4, #4]
 8000e14:	340c      	adds	r4, #12
 8000e16:	614b      	str	r3, [r1, #20]
 8000e18:	f854 3c04 	ldr.w	r3, [r4, #-4]
 8000e1c:	618b      	str	r3, [r1, #24]
 8000e1e:	e66d      	b.n	8000afc <_ZN2ke12unwind_frameERKNS_14instructions_tERNS_12cortex_m_cpuE+0x8>
 8000e20:	6823      	ldr	r3, [r4, #0]
 8000e22:	4610      	mov	r0, r2
 8000e24:	610b      	str	r3, [r1, #16]
 8000e26:	6863      	ldr	r3, [r4, #4]
 8000e28:	3410      	adds	r4, #16
 8000e2a:	614b      	str	r3, [r1, #20]
 8000e2c:	f854 3c08 	ldr.w	r3, [r4, #-8]
 8000e30:	618b      	str	r3, [r1, #24]
 8000e32:	f854 3c04 	ldr.w	r3, [r4, #-4]
 8000e36:	61cb      	str	r3, [r1, #28]
 8000e38:	e660      	b.n	8000afc <_ZN2ke12unwind_frameERKNS_14instructions_tERNS_12cortex_m_cpuE+0x8>
 8000e3a:	6823      	ldr	r3, [r4, #0]
 8000e3c:	4610      	mov	r0, r2
 8000e3e:	610b      	str	r3, [r1, #16]
 8000e40:	6863      	ldr	r3, [r4, #4]
 8000e42:	3414      	adds	r4, #20
 8000e44:	614b      	str	r3, [r1, #20]
 8000e46:	f854 3c0c 	ldr.w	r3, [r4, #-12]
 8000e4a:	618b      	str	r3, [r1, #24]
 8000e4c:	f854 3c08 	ldr.w	r3, [r4, #-8]
 8000e50:	61cb      	str	r3, [r1, #28]
 8000e52:	f854 3c04 	ldr.w	r3, [r4, #-4]
 8000e56:	620b      	str	r3, [r1, #32]
 8000e58:	e650      	b.n	8000afc <_ZN2ke12unwind_frameERKNS_14instructions_tERNS_12cortex_m_cpuE+0x8>
 8000e5a:	6823      	ldr	r3, [r4, #0]
 8000e5c:	4610      	mov	r0, r2
 8000e5e:	610b      	str	r3, [r1, #16]
 8000e60:	6863      	ldr	r3, [r4, #4]
 8000e62:	3418      	adds	r4, #24
 8000e64:	614b      	str	r3, [r1, #20]
 8000e66:	f854 3c10 	ldr.w	r3, [r4, #-16]
 8000e6a:	618b      	str	r3, [r1, #24]
 8000e6c:	f854 3c0c 	ldr.w	r3, [r4, #-12]
 8000e70:	61cb      	str	r3, [r1, #28]
 8000e72:	f854 3c08 	ldr.w	r3, [r4, #-8]
 8000e76:	620b      	str	r3, [r1, #32]
 8000e78:	f854 3c04 	ldr.w	r3, [r4, #-4]
 8000e7c:	624b      	str	r3, [r1, #36]	@ 0x24
 8000e7e:	e63d      	b.n	8000afc <_ZN2ke12unwind_frameERKNS_14instructions_tERNS_12cortex_m_cpuE+0x8>
 8000e80:	4610      	mov	r0, r2
 8000e82:	34a8      	adds	r4, #168	@ 0xa8
 8000e84:	e63a      	b.n	8000afc <_ZN2ke12unwind_frameERKNS_14instructions_tERNS_12cortex_m_cpuE+0x8>
 8000e86:	4610      	mov	r0, r2
 8000e88:	34a4      	adds	r4, #164	@ 0xa4
 8000e8a:	e637      	b.n	8000afc <_ZN2ke12unwind_frameERKNS_14instructions_tERNS_12cortex_m_cpuE+0x8>
 8000e8c:	4610      	mov	r0, r2
 8000e8e:	34a0      	adds	r4, #160	@ 0xa0
 8000e90:	e634      	b.n	8000afc <_ZN2ke12unwind_frameERKNS_14instructions_tERNS_12cortex_m_cpuE+0x8>
 8000e92:	4610      	mov	r0, r2
 8000e94:	349c      	adds	r4, #156	@ 0x9c
 8000e96:	e631      	b.n	8000afc <_ZN2ke12unwind_frameERKNS_14instructions_tERNS_12cortex_m_cpuE+0x8>
 8000e98:	4610      	mov	r0, r2
 8000e9a:	3498      	adds	r4, #152	@ 0x98
 8000e9c:	e62e      	b.n	8000afc <_ZN2ke12unwind_frameERKNS_14instructions_tERNS_12cortex_m_cpuE+0x8>
 8000e9e:	4610      	mov	r0, r2
 8000ea0:	3494      	adds	r4, #148	@ 0x94
 8000ea2:	e62b      	b.n	8000afc <_ZN2ke12unwind_frameERKNS_14instructions_tERNS_12cortex_m_cpuE+0x8>
 8000ea4:	4610      	mov	r0, r2
 8000ea6:	3490      	adds	r4, #144	@ 0x90
 8000ea8:	e628      	b.n	8000afc <_ZN2ke12unwind_frameERKNS_14instructions_tERNS_12cortex_m_cpuE+0x8>
 8000eaa:	4610      	mov	r0, r2
 8000eac:	348c      	adds	r4, #140	@ 0x8c
 8000eae:	e625      	b.n	8000afc <_ZN2ke12unwind_frameERKNS_14instructions_tERNS_12cortex_m_cpuE+0x8>
 8000eb0:	4610      	mov	r0, r2
 8000eb2:	3488      	adds	r4, #136	@ 0x88
 8000eb4:	e622      	b.n	8000afc <_ZN2ke12unwind_frameERKNS_14instructions_tERNS_12cortex_m_cpuE+0x8>
 8000eb6:	4610      	mov	r0, r2
 8000eb8:	3484      	adds	r4, #132	@ 0x84
 8000eba:	e61f      	b.n	8000afc <_ZN2ke12unwind_frameERKNS_14instructions_tERNS_12cortex_m_cpuE+0x8>
 8000ebc:	4610      	mov	r0, r2
 8000ebe:	3480      	adds	r4, #128	@ 0x80
 8000ec0:	e61c      	b.n	8000afc <_ZN2ke12unwind_frameERKNS_14instructions_tERNS_12cortex_m_cpuE+0x8>
 8000ec2:	4610      	mov	r0, r2
 8000ec4:	347c      	adds	r4, #124	@ 0x7c
 8000ec6:	e619      	b.n	8000afc <_ZN2ke12unwind_frameERKNS_14instructions_tERNS_12cortex_m_cpuE+0x8>
 8000ec8:	4610      	mov	r0, r2
 8000eca:	3478      	adds	r4, #120	@ 0x78
 8000ecc:	e616      	b.n	8000afc <_ZN2ke12unwind_frameERKNS_14instructions_tERNS_12cortex_m_cpuE+0x8>
 8000ece:	4610      	mov	r0, r2
 8000ed0:	3474      	adds	r4, #116	@ 0x74
 8000ed2:	e613      	b.n	8000afc <_ZN2ke12unwind_frameERKNS_14instructions_tERNS_12cortex_m_cpuE+0x8>
 8000ed4:	4610      	mov	r0, r2
 8000ed6:	3470      	adds	r4, #112	@ 0x70
 8000ed8:	e610      	b.n	8000afc <_ZN2ke12unwind_frameERKNS_14instructions_tERNS_12cortex_m_cpuE+0x8>
 8000eda:	4610      	mov	r0, r2
 8000edc:	346c      	adds	r4, #108	@ 0x6c
 8000ede:	e60d      	b.n	8000afc <_ZN2ke12unwind_frameERKNS_14instructions_tERNS_12cortex_m_cpuE+0x8>
 8000ee0:	4610      	mov	r0, r2
 8000ee2:	3468      	adds	r4, #104	@ 0x68
 8000ee4:	e60a      	b.n	8000afc <_ZN2ke12unwind_frameERKNS_14instructions_tERNS_12cortex_m_cpuE+0x8>
 8000ee6:	4610      	mov	r0, r2
 8000ee8:	3464      	adds	r4, #100	@ 0x64
 8000eea:	e607      	b.n	8000afc <_ZN2ke12unwind_frameERKNS_14instructions_tERNS_12cortex_m_cpuE+0x8>
 8000eec:	4610      	mov	r0, r2
 8000eee:	3460      	adds	r4, #96	@ 0x60
 8000ef0:	e604      	b.n	8000afc <_ZN2ke12unwind_frameERKNS_14instructions_tERNS_12cortex_m_cpuE+0x8>
 8000ef2:	4610      	mov	r0, r2
 8000ef4:	345c      	adds	r4, #92	@ 0x5c
 8000ef6:	e601      	b.n	8000afc <_ZN2ke12unwind_frameERKNS_14instructions_tERNS_12cortex_m_cpuE+0x8>
 8000ef8:	4610      	mov	r0, r2
 8000efa:	3458      	adds	r4, #88	@ 0x58
 8000efc:	e5fe      	b.n	8000afc <_ZN2ke12unwind_frameERKNS_14instructions_tERNS_12cortex_m_cpuE+0x8>
 8000efe:	4610      	mov	r0, r2
 8000f00:	3454      	adds	r4, #84	@ 0x54
 8000f02:	e5fb      	b.n	8000afc <_ZN2ke12unwind_frameERKNS_14instructions_tERNS_12cortex_m_cpuE+0x8>
 8000f04:	4610      	mov	r0, r2
 8000f06:	3450      	adds	r4, #80	@ 0x50
 8000f08:	e5f8      	b.n	8000afc <_ZN2ke12unwind_frameERKNS_14instructions_tERNS_12cortex_m_cpuE+0x8>
 8000f0a:	4610      	mov	r0, r2
 8000f0c:	344c      	adds	r4, #76	@ 0x4c
 8000f0e:	e5f5      	b.n	8000afc <_ZN2ke12unwind_frameERKNS_14instructions_tERNS_12cortex_m_cpuE+0x8>
 8000f10:	4610      	mov	r0, r2
 8000f12:	3448      	adds	r4, #72	@ 0x48
 8000f14:	e5f2      	b.n	8000afc <_ZN2ke12unwind_frameERKNS_14instructions_tERNS_12cortex_m_cpuE+0x8>
 8000f16:	4610      	mov	r0, r2
 8000f18:	3444      	adds	r4, #68	@ 0x44
 8000f1a:	e5ef      	b.n	8000afc <_ZN2ke12unwind_frameERKNS_14instructions_tERNS_12cortex_m_cpuE+0x8>
 8000f1c:	4610      	mov	r0, r2
 8000f1e:	3440      	adds	r4, #64	@ 0x40
 8000f20:	e5ec      	b.n	8000afc <_ZN2ke12unwind_frameERKNS_14instructions_tERNS_12cortex_m_cpuE+0x8>
 8000f22:	4610      	mov	r0, r2
 8000f24:	343c      	adds	r4, #60	@ 0x3c
 8000f26:	e5e9      	b.n	8000afc <_ZN2ke12unwind_frameERKNS_14instructions_tERNS_12cortex_m_cpuE+0x8>
 8000f28:	4610      	mov	r0, r2
 8000f2a:	3438      	adds	r4, #56	@ 0x38
 8000f2c:	e5e6      	b.n	8000afc <_ZN2ke12unwind_frameERKNS_14instructions_tERNS_12cortex_m_cpuE+0x8>
 8000f2e:	4610      	mov	r0, r2
 8000f30:	3434      	adds	r4, #52	@ 0x34
 8000f32:	e5e3      	b.n	8000afc <_ZN2ke12unwind_frameERKNS_14instructions_tERNS_12cortex_m_cpuE+0x8>
 8000f34:	4610      	mov	r0, r2
 8000f36:	3430      	adds	r4, #48	@ 0x30
 8000f38:	e5e0      	b.n	8000afc <_ZN2ke12unwind_frameERKNS_14instructions_tERNS_12cortex_m_cpuE+0x8>
 8000f3a:	4610      	mov	r0, r2
 8000f3c:	342c      	adds	r4, #44	@ 0x2c
 8000f3e:	e5dd      	b.n	8000afc <_ZN2ke12unwind_frameERKNS_14instructions_tERNS_12cortex_m_cpuE+0x8>
 8000f40:	4610      	mov	r0, r2
 8000f42:	34a8      	adds	r4, #168	@ 0xa8
 8000f44:	e5da      	b.n	8000afc <_ZN2ke12unwind_frameERKNS_14instructions_tERNS_12cortex_m_cpuE+0x8>
 8000f46:	4610      	mov	r0, r2
 8000f48:	34a4      	adds	r4, #164	@ 0xa4
 8000f4a:	e5d7      	b.n	8000afc <_ZN2ke12unwind_frameERKNS_14instructions_tERNS_12cortex_m_cpuE+0x8>
 8000f4c:	4610      	mov	r0, r2
 8000f4e:	34a0      	adds	r4, #160	@ 0xa0
 8000f50:	e5d4      	b.n	8000afc <_ZN2ke12unwind_frameERKNS_14instructions_tERNS_12cortex_m_cpuE+0x8>
 8000f52:	4610      	mov	r0, r2
 8000f54:	349c      	adds	r4, #156	@ 0x9c
 8000f56:	e5d1      	b.n	8000afc <_ZN2ke12unwind_frameERKNS_14instructions_tERNS_12cortex_m_cpuE+0x8>
 8000f58:	4610      	mov	r0, r2
 8000f5a:	3498      	adds	r4, #152	@ 0x98
 8000f5c:	e5ce      	b.n	8000afc <_ZN2ke12unwind_frameERKNS_14instructions_tERNS_12cortex_m_cpuE+0x8>
 8000f5e:	4610      	mov	r0, r2
 8000f60:	3494      	adds	r4, #148	@ 0x94
 8000f62:	e5cb      	b.n	8000afc <_ZN2ke12unwind_frameERKNS_14instructions_tERNS_12cortex_m_cpuE+0x8>
 8000f64:	4610      	mov	r0, r2
 8000f66:	3490      	adds	r4, #144	@ 0x90
 8000f68:	e5c8      	b.n	8000afc <_ZN2ke12unwind_frameERKNS_14instructions_tERNS_12cortex_m_cpuE+0x8>
 8000f6a:	4610      	mov	r0, r2
 8000f6c:	348c      	adds	r4, #140	@ 0x8c
 8000f6e:	e5c5      	b.n	8000afc <_ZN2ke12unwind_frameERKNS_14instructions_tERNS_12cortex_m_cpuE+0x8>
 8000f70:	4610      	mov	r0, r2
 8000f72:	3488      	adds	r4, #136	@ 0x88
 8000f74:	e5c2      	b.n	8000afc <_ZN2ke12unwind_frameERKNS_14instructions_tERNS_12cortex_m_cpuE+0x8>
 8000f76:	4610      	mov	r0, r2
 8000f78:	3484      	adds	r4, #132	@ 0x84
 8000f7a:	e5bf      	b.n	8000afc <_ZN2ke12unwind_frameERKNS_14instructions_tERNS_12cortex_m_cpuE+0x8>
 8000f7c:	4610      	mov	r0, r2
 8000f7e:	3480      	adds	r4, #128	@ 0x80
 8000f80:	e5bc      	b.n	8000afc <_ZN2ke12unwind_frameERKNS_14instructions_tERNS_12cortex_m_cpuE+0x8>
 8000f82:	4610      	mov	r0, r2
 8000f84:	347c      	adds	r4, #124	@ 0x7c
 8000f86:	e5b9      	b.n	8000afc <_ZN2ke12unwind_frameERKNS_14instructions_tERNS_12cortex_m_cpuE+0x8>
 8000f88:	4610      	mov	r0, r2
 8000f8a:	3478      	adds	r4, #120	@ 0x78
 8000f8c:	e5b6      	b.n	8000afc <_ZN2ke12unwind_frameERKNS_14instructions_tERNS_12cortex_m_cpuE+0x8>
 8000f8e:	4610      	mov	r0, r2
 8000f90:	3474      	adds	r4, #116	@ 0x74
 8000f92:	e5b3      	b.n	8000afc <_ZN2ke12unwind_frameERKNS_14instructions_tERNS_12cortex_m_cpuE+0x8>
 8000f94:	4610      	mov	r0, r2
 8000f96:	3470      	adds	r4, #112	@ 0x70
 8000f98:	e5b0      	b.n	8000afc <_ZN2ke12unwind_frameERKNS_14instructions_tERNS_12cortex_m_cpuE+0x8>
 8000f9a:	4610      	mov	r0, r2
 8000f9c:	346c      	adds	r4, #108	@ 0x6c
 8000f9e:	e5ad      	b.n	8000afc <_ZN2ke12unwind_frameERKNS_14instructions_tERNS_12cortex_m_cpuE+0x8>
 8000fa0:	4610      	mov	r0, r2
 8000fa2:	3468      	adds	r4, #104	@ 0x68
 8000fa4:	e5aa      	b.n	8000afc <_ZN2ke12unwind_frameERKNS_14instructions_tERNS_12cortex_m_cpuE+0x8>
 8000fa6:	4610      	mov	r0, r2
 8000fa8:	3464      	adds	r4, #100	@ 0x64
 8000faa:	e5a7      	b.n	8000afc <_ZN2ke12unwind_frameERKNS_14instructions_tERNS_12cortex_m_cpuE+0x8>
 8000fac:	4610      	mov	r0, r2
 8000fae:	3460      	adds	r4, #96	@ 0x60
 8000fb0:	e5a4      	b.n	8000afc <_ZN2ke12unwind_frameERKNS_14instructions_tERNS_12cortex_m_cpuE+0x8>
 8000fb2:	4610      	mov	r0, r2
 8000fb4:	345c      	adds	r4, #92	@ 0x5c
 8000fb6:	e5a1      	b.n	8000afc <_ZN2ke12unwind_frameERKNS_14instructions_tERNS_12cortex_m_cpuE+0x8>
 8000fb8:	4610      	mov	r0, r2
 8000fba:	3458      	adds	r4, #88	@ 0x58
 8000fbc:	e59e      	b.n	8000afc <_ZN2ke12unwind_frameERKNS_14instructions_tERNS_12cortex_m_cpuE+0x8>
 8000fbe:	4610      	mov	r0, r2
 8000fc0:	3454      	adds	r4, #84	@ 0x54
 8000fc2:	e59b      	b.n	8000afc <_ZN2ke12unwind_frameERKNS_14instructions_tERNS_12cortex_m_cpuE+0x8>
 8000fc4:	4610      	mov	r0, r2
 8000fc6:	3450      	adds	r4, #80	@ 0x50
 8000fc8:	e598      	b.n	8000afc <_ZN2ke12unwind_frameERKNS_14instructions_tERNS_12cortex_m_cpuE+0x8>
 8000fca:	4610      	mov	r0, r2
 8000fcc:	344c      	adds	r4, #76	@ 0x4c
 8000fce:	e595      	b.n	8000afc <_ZN2ke12unwind_frameERKNS_14instructions_tERNS_12cortex_m_cpuE+0x8>
 8000fd0:	4610      	mov	r0, r2
 8000fd2:	3448      	adds	r4, #72	@ 0x48
 8000fd4:	e592      	b.n	8000afc <_ZN2ke12unwind_frameERKNS_14instructions_tERNS_12cortex_m_cpuE+0x8>
 8000fd6:	4610      	mov	r0, r2
 8000fd8:	3444      	adds	r4, #68	@ 0x44
 8000fda:	e58f      	b.n	8000afc <_ZN2ke12unwind_frameERKNS_14instructions_tERNS_12cortex_m_cpuE+0x8>
 8000fdc:	4610      	mov	r0, r2
 8000fde:	3440      	adds	r4, #64	@ 0x40
 8000fe0:	e58c      	b.n	8000afc <_ZN2ke12unwind_frameERKNS_14instructions_tERNS_12cortex_m_cpuE+0x8>
 8000fe2:	4610      	mov	r0, r2
 8000fe4:	343c      	adds	r4, #60	@ 0x3c
 8000fe6:	e589      	b.n	8000afc <_ZN2ke12unwind_frameERKNS_14instructions_tERNS_12cortex_m_cpuE+0x8>
 8000fe8:	4610      	mov	r0, r2
 8000fea:	3438      	adds	r4, #56	@ 0x38
 8000fec:	e586      	b.n	8000afc <_ZN2ke12unwind_frameERKNS_14instructions_tERNS_12cortex_m_cpuE+0x8>
 8000fee:	4610      	mov	r0, r2
 8000ff0:	3434      	adds	r4, #52	@ 0x34
 8000ff2:	e583      	b.n	8000afc <_ZN2ke12unwind_frameERKNS_14instructions_tERNS_12cortex_m_cpuE+0x8>
 8000ff4:	4610      	mov	r0, r2
 8000ff6:	3430      	adds	r4, #48	@ 0x30
 8000ff8:	e580      	b.n	8000afc <_ZN2ke12unwind_frameERKNS_14instructions_tERNS_12cortex_m_cpuE+0x8>
 8000ffa:	4610      	mov	r0, r2
 8000ffc:	342c      	adds	r4, #44	@ 0x2c
 8000ffe:	e57d      	b.n	8000afc <_ZN2ke12unwind_frameERKNS_14instructions_tERNS_12cortex_m_cpuE+0x8>
 8001000:	4610      	mov	r0, r2
 8001002:	3428      	adds	r4, #40	@ 0x28
 8001004:	e57a      	b.n	8000afc <_ZN2ke12unwind_frameERKNS_14instructions_tERNS_12cortex_m_cpuE+0x8>
 8001006:	4610      	mov	r0, r2
 8001008:	3424      	adds	r4, #36	@ 0x24
 800100a:	e577      	b.n	8000afc <_ZN2ke12unwind_frameERKNS_14instructions_tERNS_12cortex_m_cpuE+0x8>
 800100c:	4610      	mov	r0, r2
 800100e:	3420      	adds	r4, #32
 8001010:	e574      	b.n	8000afc <_ZN2ke12unwind_frameERKNS_14instructions_tERNS_12cortex_m_cpuE+0x8>
 8001012:	4610      	mov	r0, r2
 8001014:	341c      	adds	r4, #28
 8001016:	e571      	b.n	8000afc <_ZN2ke12unwind_frameERKNS_14instructions_tERNS_12cortex_m_cpuE+0x8>
 8001018:	4610      	mov	r0, r2
 800101a:	3418      	adds	r4, #24
 800101c:	e56e      	b.n	8000afc <_ZN2ke12unwind_frameERKNS_14instructions_tERNS_12cortex_m_cpuE+0x8>
 800101e:	4610      	mov	r0, r2
 8001020:	3414      	adds	r4, #20
 8001022:	e56b      	b.n	8000afc <_ZN2ke12unwind_frameERKNS_14instructions_tERNS_12cortex_m_cpuE+0x8>
 8001024:	4610      	mov	r0, r2
 8001026:	3410      	adds	r4, #16
 8001028:	e568      	b.n	8000afc <_ZN2ke12unwind_frameERKNS_14instructions_tERNS_12cortex_m_cpuE+0x8>
 800102a:	4610      	mov	r0, r2
 800102c:	340c      	adds	r4, #12
 800102e:	e565      	b.n	8000afc <_ZN2ke12unwind_frameERKNS_14instructions_tERNS_12cortex_m_cpuE+0x8>
 8001030:	4610      	mov	r0, r2
 8001032:	3408      	adds	r4, #8
 8001034:	e562      	b.n	8000afc <_ZN2ke12unwind_frameERKNS_14instructions_tERNS_12cortex_m_cpuE+0x8>
 8001036:	4610      	mov	r0, r2
 8001038:	3404      	adds	r4, #4
 800103a:	e55f      	b.n	8000afc <_ZN2ke12unwind_frameERKNS_14instructions_tERNS_12cortex_m_cpuE+0x8>
 800103c:	4610      	mov	r0, r2
 800103e:	f504 7480 	add.w	r4, r4, #256	@ 0x100
 8001042:	e55b      	b.n	8000afc <_ZN2ke12unwind_frameERKNS_14instructions_tERNS_12cortex_m_cpuE+0x8>
 8001044:	4610      	mov	r0, r2
 8001046:	34fc      	adds	r4, #252	@ 0xfc
 8001048:	e558      	b.n	8000afc <_ZN2ke12unwind_frameERKNS_14instructions_tERNS_12cortex_m_cpuE+0x8>
 800104a:	4610      	mov	r0, r2
 800104c:	34f8      	adds	r4, #248	@ 0xf8
 800104e:	e555      	b.n	8000afc <_ZN2ke12unwind_frameERKNS_14instructions_tERNS_12cortex_m_cpuE+0x8>
 8001050:	4610      	mov	r0, r2
 8001052:	34f4      	adds	r4, #244	@ 0xf4
 8001054:	e552      	b.n	8000afc <_ZN2ke12unwind_frameERKNS_14instructions_tERNS_12cortex_m_cpuE+0x8>
 8001056:	4610      	mov	r0, r2
 8001058:	34f0      	adds	r4, #240	@ 0xf0
 800105a:	e54f      	b.n	8000afc <_ZN2ke12unwind_frameERKNS_14instructions_tERNS_12cortex_m_cpuE+0x8>
 800105c:	4610      	mov	r0, r2
 800105e:	34ec      	adds	r4, #236	@ 0xec
 8001060:	e54c      	b.n	8000afc <_ZN2ke12unwind_frameERKNS_14instructions_tERNS_12cortex_m_cpuE+0x8>
 8001062:	4610      	mov	r0, r2
 8001064:	34e8      	adds	r4, #232	@ 0xe8
 8001066:	e549      	b.n	8000afc <_ZN2ke12unwind_frameERKNS_14instructions_tERNS_12cortex_m_cpuE+0x8>
 8001068:	4610      	mov	r0, r2
 800106a:	34e4      	adds	r4, #228	@ 0xe4
 800106c:	e546      	b.n	8000afc <_ZN2ke12unwind_frameERKNS_14instructions_tERNS_12cortex_m_cpuE+0x8>
 800106e:	4610      	mov	r0, r2
 8001070:	34e0      	adds	r4, #224	@ 0xe0
 8001072:	e543      	b.n	8000afc <_ZN2ke12unwind_frameERKNS_14instructions_tERNS_12cortex_m_cpuE+0x8>
 8001074:	4610      	mov	r0, r2
 8001076:	34dc      	adds	r4, #220	@ 0xdc
 8001078:	e540      	b.n	8000afc <_ZN2ke12unwind_frameERKNS_14instructions_tERNS_12cortex_m_cpuE+0x8>
 800107a:	4610      	mov	r0, r2
 800107c:	34d8      	adds	r4, #216	@ 0xd8
 800107e:	e53d      	b.n	8000afc <_ZN2ke12unwind_frameERKNS_14instructions_tERNS_12cortex_m_cpuE+0x8>
 8001080:	4610      	mov	r0, r2
 8001082:	34d4      	adds	r4, #212	@ 0xd4
 8001084:	e53a      	b.n	8000afc <_ZN2ke12unwind_frameERKNS_14instructions_tERNS_12cortex_m_cpuE+0x8>
 8001086:	4610      	mov	r0, r2
 8001088:	34d0      	adds	r4, #208	@ 0xd0
 800108a:	e537      	b.n	8000afc <_ZN2ke12unwind_frameERKNS_14instructions_tERNS_12cortex_m_cpuE+0x8>
 800108c:	4610      	mov	r0, r2
 800108e:	34cc      	adds	r4, #204	@ 0xcc
 8001090:	e534      	b.n	8000afc <_ZN2ke12unwind_frameERKNS_14instructions_tERNS_12cortex_m_cpuE+0x8>
 8001092:	4610      	mov	r0, r2
 8001094:	34c8      	adds	r4, #200	@ 0xc8
 8001096:	e531      	b.n	8000afc <_ZN2ke12unwind_frameERKNS_14instructions_tERNS_12cortex_m_cpuE+0x8>
 8001098:	4610      	mov	r0, r2
 800109a:	34c4      	adds	r4, #196	@ 0xc4
 800109c:	e52e      	b.n	8000afc <_ZN2ke12unwind_frameERKNS_14instructions_tERNS_12cortex_m_cpuE+0x8>
 800109e:	4610      	mov	r0, r2
 80010a0:	34c0      	adds	r4, #192	@ 0xc0
 80010a2:	e52b      	b.n	8000afc <_ZN2ke12unwind_frameERKNS_14instructions_tERNS_12cortex_m_cpuE+0x8>
 80010a4:	4610      	mov	r0, r2
 80010a6:	34bc      	adds	r4, #188	@ 0xbc
 80010a8:	e528      	b.n	8000afc <_ZN2ke12unwind_frameERKNS_14instructions_tERNS_12cortex_m_cpuE+0x8>
 80010aa:	4610      	mov	r0, r2
 80010ac:	34b8      	adds	r4, #184	@ 0xb8
 80010ae:	e525      	b.n	8000afc <_ZN2ke12unwind_frameERKNS_14instructions_tERNS_12cortex_m_cpuE+0x8>
 80010b0:	4610      	mov	r0, r2
 80010b2:	34b4      	adds	r4, #180	@ 0xb4
 80010b4:	e522      	b.n	8000afc <_ZN2ke12unwind_frameERKNS_14instructions_tERNS_12cortex_m_cpuE+0x8>
 80010b6:	4610      	mov	r0, r2
 80010b8:	34b0      	adds	r4, #176	@ 0xb0
 80010ba:	e51f      	b.n	8000afc <_ZN2ke12unwind_frameERKNS_14instructions_tERNS_12cortex_m_cpuE+0x8>
 80010bc:	4610      	mov	r0, r2
 80010be:	34ac      	adds	r4, #172	@ 0xac
 80010c0:	e51c      	b.n	8000afc <_ZN2ke12unwind_frameERKNS_14instructions_tERNS_12cortex_m_cpuE+0x8>
 80010c2:	2b00      	cmp	r3, #0
 80010c4:	f47f ad34 	bne.w	8000b30 <_ZN2ke12unwind_frameERKNS_14instructions_tERNS_12cortex_m_cpuE+0x3c>
 80010c8:	e542      	b.n	8000b50 <_ZN2ke12unwind_frameERKNS_14instructions_tERNS_12cortex_m_cpuE+0x5c>
 80010ca:	f007 077f 	and.w	r7, r7, #127	@ 0x7f
 80010ce:	e5e7      	b.n	8000ca0 <_ZN2ke12unwind_frameERKNS_14instructions_tERNS_12cortex_m_cpuE+0x1ac>
 80010d0:	f7fe ffe6 	bl	80000a0 <_ZSt9terminatev>

080010d4 <_ZN3hal26single_exception_allocator13do_deallocateEPvjj>:
 80010d4:	b508      	push	{r3, lr}
 80010d6:	f100 0308 	add.w	r3, r0, #8
 80010da:	428b      	cmp	r3, r1
 80010dc:	d103      	bne.n	80010e6 <_ZN3hal26single_exception_allocator13do_deallocateEPvjj+0x12>
 80010de:	2300      	movs	r3, #0
 80010e0:	f880 3048 	strb.w	r3, [r0, #72]	@ 0x48
 80010e4:	bd08      	pop	{r3, pc}
 80010e6:	f7fe ffdb 	bl	80000a0 <_ZSt9terminatev>
 80010ea:	bf00      	nop

080010ec <__tls_init.part.0>:
 80010ec:	b508      	push	{r3, lr}
 80010ee:	480f      	ldr	r0, [pc, #60]	@ (800112c <__tls_init.part.0+0x40>)
 80010f0:	f003 ffe0 	bl	80050b4 <__emutls_get_address>
 80010f4:	2201      	movs	r2, #1
 80010f6:	4603      	mov	r3, r0
 80010f8:	480d      	ldr	r0, [pc, #52]	@ (8001130 <__tls_init.part.0+0x44>)
 80010fa:	701a      	strb	r2, [r3, #0]
 80010fc:	f003 ffda 	bl	80050b4 <__emutls_get_address>
 8001100:	2100      	movs	r1, #0
 8001102:	2244      	movs	r2, #68	@ 0x44
 8001104:	e9c0 1100 	strd	r1, r1, [r0]
 8001108:	e9c0 1102 	strd	r1, r1, [r0, #8]
 800110c:	e9c0 1104 	strd	r1, r1, [r0, #16]
 8001110:	e9c0 1106 	strd	r1, r1, [r0, #24]
 8001114:	e9c0 1108 	strd	r1, r1, [r0, #32]
 8001118:	e9c0 110a 	strd	r1, r1, [r0, #40]	@ 0x28
 800111c:	e9c0 110c 	strd	r1, r1, [r0, #48]	@ 0x30
 8001120:	e9c0 110e 	strd	r1, r1, [r0, #56]	@ 0x38
 8001124:	3040      	adds	r0, #64	@ 0x40
 8001126:	f003 ffe7 	bl	80050f8 <memset>
 800112a:	bd08      	pop	{r3, pc}
 800112c:	20000080 	.word	0x20000080
 8001130:	20000070 	.word	0x20000070

08001134 <_ZN3hal7stm32f18power_onENS0_10peripheralE>:
 8001134:	b508      	push	{r3, lr}
 8001136:	0943      	lsrs	r3, r0, #5
 8001138:	2b01      	cmp	r3, #1
 800113a:	f000 001f 	and.w	r0, r0, #31
 800113e:	d00f      	beq.n	8001160 <_ZN3hal7stm32f18power_onENS0_10peripheralE+0x2c>
 8001140:	2b02      	cmp	r3, #2
 8001142:	d10a      	bne.n	800115a <_ZN3hal7stm32f18power_onENS0_10peripheralE+0x26>
 8001144:	4a09      	ldr	r2, [pc, #36]	@ (800116c <_ZN3hal7stm32f18power_onENS0_10peripheralE+0x38>)
 8001146:	6813      	ldr	r3, [r2, #0]
 8001148:	40c3      	lsrs	r3, r0
 800114a:	07db      	lsls	r3, r3, #31
 800114c:	d40a      	bmi.n	8001164 <_ZN3hal7stm32f18power_onENS0_10peripheralE+0x30>
 800114e:	2301      	movs	r3, #1
 8001150:	6811      	ldr	r1, [r2, #0]
 8001152:	4083      	lsls	r3, r0
 8001154:	430b      	orrs	r3, r1
 8001156:	6013      	str	r3, [r2, #0]
 8001158:	bd08      	pop	{r3, pc}
 800115a:	b92b      	cbnz	r3, 8001168 <_ZN3hal7stm32f18power_onENS0_10peripheralE+0x34>
 800115c:	4a04      	ldr	r2, [pc, #16]	@ (8001170 <_ZN3hal7stm32f18power_onENS0_10peripheralE+0x3c>)
 800115e:	e7f2      	b.n	8001146 <_ZN3hal7stm32f18power_onENS0_10peripheralE+0x12>
 8001160:	4a04      	ldr	r2, [pc, #16]	@ (8001174 <_ZN3hal7stm32f18power_onENS0_10peripheralE+0x40>)
 8001162:	e7f0      	b.n	8001146 <_ZN3hal7stm32f18power_onENS0_10peripheralE+0x12>
 8001164:	f7fe ff74 	bl	8000050 <_ZN3hal7stm32f127throw_if_pin_is_unavailableENS0_10pin_selectE.part.0>
 8001168:	f7fe ff84 	bl	8000074 <_ZN3hal7stm32f112_GLOBAL__N_124get_enable_register_infoENS0_10peripheralE.part.0>
 800116c:	40021018 	.word	0x40021018
 8001170:	40021014 	.word	0x40021014
 8001174:	4002101c 	.word	0x4002101c

08001178 <_Z8depth_01v.isra.0>:
 8001178:	4b12      	ldr	r3, [pc, #72]	@ (80011c4 <_Z8depth_01v.isra.0+0x4c>)
 800117a:	b500      	push	{lr}
 800117c:	6819      	ldr	r1, [r3, #0]
 800117e:	681a      	ldr	r2, [r3, #0]
 8001180:	b083      	sub	sp, #12
 8001182:	3201      	adds	r2, #1
 8001184:	601a      	str	r2, [r3, #0]
 8001186:	681a      	ldr	r2, [r3, #0]
 8001188:	eb02 2221 	add.w	r2, r2, r1, asr #8
 800118c:	601a      	str	r2, [r3, #0]
 800118e:	681a      	ldr	r2, [r3, #0]
 8001190:	9201      	str	r2, [sp, #4]
 8001192:	9a01      	ldr	r2, [sp, #4]
 8001194:	2a00      	cmp	r2, #0
 8001196:	db03      	blt.n	80011a0 <_Z8depth_01v.isra.0+0x28>
 8001198:	681a      	ldr	r2, [r3, #0]
 800119a:	2a00      	cmp	r2, #0
 800119c:	dc03      	bgt.n	80011a6 <_Z8depth_01v.isra.0+0x2e>
 800119e:	681b      	ldr	r3, [r3, #0]
 80011a0:	b003      	add	sp, #12
 80011a2:	f85d fb04 	ldr.w	pc, [sp], #4
 80011a6:	4b08      	ldr	r3, [pc, #32]	@ (80011c8 <_Z8depth_01v.isra.0+0x50>)
 80011a8:	2100      	movs	r1, #0
 80011aa:	6818      	ldr	r0, [r3, #0]
 80011ac:	6803      	ldr	r3, [r0, #0]
 80011ae:	68db      	ldr	r3, [r3, #12]
 80011b0:	4798      	blx	r3
 80011b2:	2004      	movs	r0, #4
 80011b4:	f001 fe6c 	bl	8002e90 <__wrap___cxa_allocate_exception>
 80011b8:	4b04      	ldr	r3, [pc, #16]	@ (80011cc <_Z8depth_01v.isra.0+0x54>)
 80011ba:	2200      	movs	r2, #0
 80011bc:	4904      	ldr	r1, [pc, #16]	@ (80011d0 <_Z8depth_01v.isra.0+0x58>)
 80011be:	6003      	str	r3, [r0, #0]
 80011c0:	f001 fdbc 	bl	8002d3c <__wrap___cxa_throw>
 80011c4:	2000019c 	.word	0x2000019c
 80011c8:	20000168 	.word	0x20000168
 80011cc:	efbeadde 	.word	0xefbeadde
 80011d0:	080073a0 	.word	0x080073a0

080011d4 <_Z8depth_02v.isra.0>:
 80011d4:	b510      	push	{r4, lr}
 80011d6:	4c0a      	ldr	r4, [pc, #40]	@ (8001200 <_Z8depth_02v.isra.0+0x2c>)
 80011d8:	b082      	sub	sp, #8
 80011da:	6822      	ldr	r2, [r4, #0]
 80011dc:	6823      	ldr	r3, [r4, #0]
 80011de:	3301      	adds	r3, #1
 80011e0:	6023      	str	r3, [r4, #0]
 80011e2:	6823      	ldr	r3, [r4, #0]
 80011e4:	eb03 2322 	add.w	r3, r3, r2, asr #8
 80011e8:	6023      	str	r3, [r4, #0]
 80011ea:	6823      	ldr	r3, [r4, #0]
 80011ec:	9301      	str	r3, [sp, #4]
 80011ee:	f7ff ffc3 	bl	8001178 <_Z8depth_01v.isra.0>
 80011f2:	9b01      	ldr	r3, [sp, #4]
 80011f4:	2b00      	cmp	r3, #0
 80011f6:	bfa8      	it	ge
 80011f8:	6823      	ldrge	r3, [r4, #0]
 80011fa:	b002      	add	sp, #8
 80011fc:	bd10      	pop	{r4, pc}
 80011fe:	bf00      	nop
 8001200:	2000019c 	.word	0x2000019c

08001204 <_Z8depth_03v.isra.0>:
 8001204:	b510      	push	{r4, lr}
 8001206:	4c0a      	ldr	r4, [pc, #40]	@ (8001230 <_Z8depth_03v.isra.0+0x2c>)
 8001208:	b082      	sub	sp, #8
 800120a:	6822      	ldr	r2, [r4, #0]
 800120c:	6823      	ldr	r3, [r4, #0]
 800120e:	3301      	adds	r3, #1
 8001210:	6023      	str	r3, [r4, #0]
 8001212:	6823      	ldr	r3, [r4, #0]
 8001214:	eb03 2322 	add.w	r3, r3, r2, asr #8
 8001218:	6023      	str	r3, [r4, #0]
 800121a:	6823      	ldr	r3, [r4, #0]
 800121c:	9301      	str	r3, [sp, #4]
 800121e:	f7ff ffd9 	bl	80011d4 <_Z8depth_02v.isra.0>
 8001222:	9b01      	ldr	r3, [sp, #4]
 8001224:	2b00      	cmp	r3, #0
 8001226:	bfa8      	it	ge
 8001228:	6823      	ldrge	r3, [r4, #0]
 800122a:	b002      	add	sp, #8
 800122c:	bd10      	pop	{r4, pc}
 800122e:	bf00      	nop
 8001230:	2000019c 	.word	0x2000019c

08001234 <_Z8depth_04v.isra.0>:
 8001234:	b510      	push	{r4, lr}
 8001236:	4c0a      	ldr	r4, [pc, #40]	@ (8001260 <_Z8depth_04v.isra.0+0x2c>)
 8001238:	b082      	sub	sp, #8
 800123a:	6822      	ldr	r2, [r4, #0]
 800123c:	6823      	ldr	r3, [r4, #0]
 800123e:	3301      	adds	r3, #1
 8001240:	6023      	str	r3, [r4, #0]
 8001242:	6823      	ldr	r3, [r4, #0]
 8001244:	eb03 2322 	add.w	r3, r3, r2, asr #8
 8001248:	6023      	str	r3, [r4, #0]
 800124a:	6823      	ldr	r3, [r4, #0]
 800124c:	9301      	str	r3, [sp, #4]
 800124e:	f7ff ffd9 	bl	8001204 <_Z8depth_03v.isra.0>
 8001252:	9b01      	ldr	r3, [sp, #4]
 8001254:	2b00      	cmp	r3, #0
 8001256:	bfa8      	it	ge
 8001258:	6823      	ldrge	r3, [r4, #0]
 800125a:	b002      	add	sp, #8
 800125c:	bd10      	pop	{r4, pc}
 800125e:	bf00      	nop
 8001260:	2000019c 	.word	0x2000019c

08001264 <_Z8depth_05v.isra.0>:
 8001264:	b510      	push	{r4, lr}
 8001266:	4c0a      	ldr	r4, [pc, #40]	@ (8001290 <_Z8depth_05v.isra.0+0x2c>)
 8001268:	b082      	sub	sp, #8
 800126a:	6822      	ldr	r2, [r4, #0]
 800126c:	6823      	ldr	r3, [r4, #0]
 800126e:	3301      	adds	r3, #1
 8001270:	6023      	str	r3, [r4, #0]
 8001272:	6823      	ldr	r3, [r4, #0]
 8001274:	eb03 2322 	add.w	r3, r3, r2, asr #8
 8001278:	6023      	str	r3, [r4, #0]
 800127a:	6823      	ldr	r3, [r4, #0]
 800127c:	9301      	str	r3, [sp, #4]
 800127e:	f7ff ffd9 	bl	8001234 <_Z8depth_04v.isra.0>
 8001282:	9b01      	ldr	r3, [sp, #4]
 8001284:	2b00      	cmp	r3, #0
 8001286:	bfa8      	it	ge
 8001288:	6823      	ldrge	r3, [r4, #0]
 800128a:	b002      	add	sp, #8
 800128c:	bd10      	pop	{r4, pc}
 800128e:	bf00      	nop
 8001290:	2000019c 	.word	0x2000019c

08001294 <_Z8depth_06v.isra.0>:
 8001294:	b510      	push	{r4, lr}
 8001296:	4c0a      	ldr	r4, [pc, #40]	@ (80012c0 <_Z8depth_06v.isra.0+0x2c>)
 8001298:	b082      	sub	sp, #8
 800129a:	6822      	ldr	r2, [r4, #0]
 800129c:	6823      	ldr	r3, [r4, #0]
 800129e:	3301      	adds	r3, #1
 80012a0:	6023      	str	r3, [r4, #0]
 80012a2:	6823      	ldr	r3, [r4, #0]
 80012a4:	eb03 2322 	add.w	r3, r3, r2, asr #8
 80012a8:	6023      	str	r3, [r4, #0]
 80012aa:	6823      	ldr	r3, [r4, #0]
 80012ac:	9301      	str	r3, [sp, #4]
 80012ae:	f7ff ffd9 	bl	8001264 <_Z8depth_05v.isra.0>
 80012b2:	9b01      	ldr	r3, [sp, #4]
 80012b4:	2b00      	cmp	r3, #0
 80012b6:	bfa8      	it	ge
 80012b8:	6823      	ldrge	r3, [r4, #0]
 80012ba:	b002      	add	sp, #8
 80012bc:	bd10      	pop	{r4, pc}
 80012be:	bf00      	nop
 80012c0:	2000019c 	.word	0x2000019c

080012c4 <_Z8depth_07v.isra.0>:
 80012c4:	b510      	push	{r4, lr}
 80012c6:	4c0a      	ldr	r4, [pc, #40]	@ (80012f0 <_Z8depth_07v.isra.0+0x2c>)
 80012c8:	b082      	sub	sp, #8
 80012ca:	6822      	ldr	r2, [r4, #0]
 80012cc:	6823      	ldr	r3, [r4, #0]
 80012ce:	3301      	adds	r3, #1
 80012d0:	6023      	str	r3, [r4, #0]
 80012d2:	6823      	ldr	r3, [r4, #0]
 80012d4:	eb03 2322 	add.w	r3, r3, r2, asr #8
 80012d8:	6023      	str	r3, [r4, #0]
 80012da:	6823      	ldr	r3, [r4, #0]
 80012dc:	9301      	str	r3, [sp, #4]
 80012de:	f7ff ffd9 	bl	8001294 <_Z8depth_06v.isra.0>
 80012e2:	9b01      	ldr	r3, [sp, #4]
 80012e4:	2b00      	cmp	r3, #0
 80012e6:	bfa8      	it	ge
 80012e8:	6823      	ldrge	r3, [r4, #0]
 80012ea:	b002      	add	sp, #8
 80012ec:	bd10      	pop	{r4, pc}
 80012ee:	bf00      	nop
 80012f0:	2000019c 	.word	0x2000019c

080012f4 <_Z8depth_08v.isra.0>:
 80012f4:	b510      	push	{r4, lr}
 80012f6:	4c0a      	ldr	r4, [pc, #40]	@ (8001320 <_Z8depth_08v.isra.0+0x2c>)
 80012f8:	b082      	sub	sp, #8
 80012fa:	6822      	ldr	r2, [r4, #0]
 80012fc:	6823      	ldr	r3, [r4, #0]
 80012fe:	3301      	adds	r3, #1
 8001300:	6023      	str	r3, [r4, #0]
 8001302:	6823      	ldr	r3, [r4, #0]
 8001304:	eb03 2322 	add.w	r3, r3, r2, asr #8
 8001308:	6023      	str	r3, [r4, #0]
 800130a:	6823      	ldr	r3, [r4, #0]
 800130c:	9301      	str	r3, [sp, #4]
 800130e:	f7ff ffd9 	bl	80012c4 <_Z8depth_07v.isra.0>
 8001312:	9b01      	ldr	r3, [sp, #4]
 8001314:	2b00      	cmp	r3, #0
 8001316:	bfa8      	it	ge
 8001318:	6823      	ldrge	r3, [r4, #0]
 800131a:	b002      	add	sp, #8
 800131c:	bd10      	pop	{r4, pc}
 800131e:	bf00      	nop
 8001320:	2000019c 	.word	0x2000019c

08001324 <_Z8depth_09v.isra.0>:
 8001324:	b510      	push	{r4, lr}
 8001326:	4c0a      	ldr	r4, [pc, #40]	@ (8001350 <_Z8depth_09v.isra.0+0x2c>)
 8001328:	b082      	sub	sp, #8
 800132a:	6822      	ldr	r2, [r4, #0]
 800132c:	6823      	ldr	r3, [r4, #0]
 800132e:	3301      	adds	r3, #1
 8001330:	6023      	str	r3, [r4, #0]
 8001332:	6823      	ldr	r3, [r4, #0]
 8001334:	eb03 2322 	add.w	r3, r3, r2, asr #8
 8001338:	6023      	str	r3, [r4, #0]
 800133a:	6823      	ldr	r3, [r4, #0]
 800133c:	9301      	str	r3, [sp, #4]
 800133e:	f7ff ffd9 	bl	80012f4 <_Z8depth_08v.isra.0>
 8001342:	9b01      	ldr	r3, [sp, #4]
 8001344:	2b00      	cmp	r3, #0
 8001346:	bfa8      	it	ge
 8001348:	6823      	ldrge	r3, [r4, #0]
 800134a:	b002      	add	sp, #8
 800134c:	bd10      	pop	{r4, pc}
 800134e:	bf00      	nop
 8001350:	2000019c 	.word	0x2000019c

08001354 <_Z8depth_10v.isra.0>:
 8001354:	b510      	push	{r4, lr}
 8001356:	4c0a      	ldr	r4, [pc, #40]	@ (8001380 <_Z8depth_10v.isra.0+0x2c>)
 8001358:	b082      	sub	sp, #8
 800135a:	6822      	ldr	r2, [r4, #0]
 800135c:	6823      	ldr	r3, [r4, #0]
 800135e:	3301      	adds	r3, #1
 8001360:	6023      	str	r3, [r4, #0]
 8001362:	6823      	ldr	r3, [r4, #0]
 8001364:	eb03 2322 	add.w	r3, r3, r2, asr #8
 8001368:	6023      	str	r3, [r4, #0]
 800136a:	6823      	ldr	r3, [r4, #0]
 800136c:	9301      	str	r3, [sp, #4]
 800136e:	f7ff ffd9 	bl	8001324 <_Z8depth_09v.isra.0>
 8001372:	9b01      	ldr	r3, [sp, #4]
 8001374:	2b00      	cmp	r3, #0
 8001376:	bfa8      	it	ge
 8001378:	6823      	ldrge	r3, [r4, #0]
 800137a:	b002      	add	sp, #8
 800137c:	bd10      	pop	{r4, pc}
 800137e:	bf00      	nop
 8001380:	2000019c 	.word	0x2000019c

08001384 <_Z8depth_11v.isra.0>:
 8001384:	b510      	push	{r4, lr}
 8001386:	4c0a      	ldr	r4, [pc, #40]	@ (80013b0 <_Z8depth_11v.isra.0+0x2c>)
 8001388:	b082      	sub	sp, #8
 800138a:	6822      	ldr	r2, [r4, #0]
 800138c:	6823      	ldr	r3, [r4, #0]
 800138e:	3301      	adds	r3, #1
 8001390:	6023      	str	r3, [r4, #0]
 8001392:	6823      	ldr	r3, [r4, #0]
 8001394:	eb03 2322 	add.w	r3, r3, r2, asr #8
 8001398:	6023      	str	r3, [r4, #0]
 800139a:	6823      	ldr	r3, [r4, #0]
 800139c:	9301      	str	r3, [sp, #4]
 800139e:	f7ff ffd9 	bl	8001354 <_Z8depth_10v.isra.0>
 80013a2:	9b01      	ldr	r3, [sp, #4]
 80013a4:	2b00      	cmp	r3, #0
 80013a6:	bfa8      	it	ge
 80013a8:	6823      	ldrge	r3, [r4, #0]
 80013aa:	b002      	add	sp, #8
 80013ac:	bd10      	pop	{r4, pc}
 80013ae:	bf00      	nop
 80013b0:	2000019c 	.word	0x2000019c

080013b4 <_Z8depth_12v.isra.0>:
 80013b4:	b510      	push	{r4, lr}
 80013b6:	4c0a      	ldr	r4, [pc, #40]	@ (80013e0 <_Z8depth_12v.isra.0+0x2c>)
 80013b8:	b082      	sub	sp, #8
 80013ba:	6822      	ldr	r2, [r4, #0]
 80013bc:	6823      	ldr	r3, [r4, #0]
 80013be:	3301      	adds	r3, #1
 80013c0:	6023      	str	r3, [r4, #0]
 80013c2:	6823      	ldr	r3, [r4, #0]
 80013c4:	eb03 2322 	add.w	r3, r3, r2, asr #8
 80013c8:	6023      	str	r3, [r4, #0]
 80013ca:	6823      	ldr	r3, [r4, #0]
 80013cc:	9301      	str	r3, [sp, #4]
 80013ce:	f7ff ffd9 	bl	8001384 <_Z8depth_11v.isra.0>
 80013d2:	9b01      	ldr	r3, [sp, #4]
 80013d4:	2b00      	cmp	r3, #0
 80013d6:	bfa8      	it	ge
 80013d8:	6823      	ldrge	r3, [r4, #0]
 80013da:	b002      	add	sp, #8
 80013dc:	bd10      	pop	{r4, pc}
 80013de:	bf00      	nop
 80013e0:	2000019c 	.word	0x2000019c

080013e4 <_Z8depth_13v.isra.0>:
 80013e4:	b510      	push	{r4, lr}
 80013e6:	4c0a      	ldr	r4, [pc, #40]	@ (8001410 <_Z8depth_13v.isra.0+0x2c>)
 80013e8:	b082      	sub	sp, #8
 80013ea:	6822      	ldr	r2, [r4, #0]
 80013ec:	6823      	ldr	r3, [r4, #0]
 80013ee:	3301      	adds	r3, #1
 80013f0:	6023      	str	r3, [r4, #0]
 80013f2:	6823      	ldr	r3, [r4, #0]
 80013f4:	eb03 2322 	add.w	r3, r3, r2, asr #8
 80013f8:	6023      	str	r3, [r4, #0]
 80013fa:	6823      	ldr	r3, [r4, #0]
 80013fc:	9301      	str	r3, [sp, #4]
 80013fe:	f7ff ffd9 	bl	80013b4 <_Z8depth_12v.isra.0>
 8001402:	9b01      	ldr	r3, [sp, #4]
 8001404:	2b00      	cmp	r3, #0
 8001406:	bfa8      	it	ge
 8001408:	6823      	ldrge	r3, [r4, #0]
 800140a:	b002      	add	sp, #8
 800140c:	bd10      	pop	{r4, pc}
 800140e:	bf00      	nop
 8001410:	2000019c 	.word	0x2000019c

08001414 <_Z8depth_14v.isra.0>:
 8001414:	b510      	push	{r4, lr}
 8001416:	4c0a      	ldr	r4, [pc, #40]	@ (8001440 <_Z8depth_14v.isra.0+0x2c>)
 8001418:	b082      	sub	sp, #8
 800141a:	6822      	ldr	r2, [r4, #0]
 800141c:	6823      	ldr	r3, [r4, #0]
 800141e:	3301      	adds	r3, #1
 8001420:	6023      	str	r3, [r4, #0]
 8001422:	6823      	ldr	r3, [r4, #0]
 8001424:	eb03 2322 	add.w	r3, r3, r2, asr #8
 8001428:	6023      	str	r3, [r4, #0]
 800142a:	6823      	ldr	r3, [r4, #0]
 800142c:	9301      	str	r3, [sp, #4]
 800142e:	f7ff ffd9 	bl	80013e4 <_Z8depth_13v.isra.0>
 8001432:	9b01      	ldr	r3, [sp, #4]
 8001434:	2b00      	cmp	r3, #0
 8001436:	bfa8      	it	ge
 8001438:	6823      	ldrge	r3, [r4, #0]
 800143a:	b002      	add	sp, #8
 800143c:	bd10      	pop	{r4, pc}
 800143e:	bf00      	nop
 8001440:	2000019c 	.word	0x2000019c

08001444 <_Z8depth_15v.isra.0>:
 8001444:	b510      	push	{r4, lr}
 8001446:	4c0a      	ldr	r4, [pc, #40]	@ (8001470 <_Z8depth_15v.isra.0+0x2c>)
 8001448:	b082      	sub	sp, #8
 800144a:	6822      	ldr	r2, [r4, #0]
 800144c:	6823      	ldr	r3, [r4, #0]
 800144e:	3301      	adds	r3, #1
 8001450:	6023      	str	r3, [r4, #0]
 8001452:	6823      	ldr	r3, [r4, #0]
 8001454:	eb03 2322 	add.w	r3, r3, r2, asr #8
 8001458:	6023      	str	r3, [r4, #0]
 800145a:	6823      	ldr	r3, [r4, #0]
 800145c:	9301      	str	r3, [sp, #4]
 800145e:	f7ff ffd9 	bl	8001414 <_Z8depth_14v.isra.0>
 8001462:	9b01      	ldr	r3, [sp, #4]
 8001464:	2b00      	cmp	r3, #0
 8001466:	bfa8      	it	ge
 8001468:	6823      	ldrge	r3, [r4, #0]
 800146a:	b002      	add	sp, #8
 800146c:	bd10      	pop	{r4, pc}
 800146e:	bf00      	nop
 8001470:	2000019c 	.word	0x2000019c

08001474 <_Z8depth_16v.isra.0>:
 8001474:	b510      	push	{r4, lr}
 8001476:	4c0a      	ldr	r4, [pc, #40]	@ (80014a0 <_Z8depth_16v.isra.0+0x2c>)
 8001478:	b082      	sub	sp, #8
 800147a:	6822      	ldr	r2, [r4, #0]
 800147c:	6823      	ldr	r3, [r4, #0]
 800147e:	3301      	adds	r3, #1
 8001480:	6023      	str	r3, [r4, #0]
 8001482:	6823      	ldr	r3, [r4, #0]
 8001484:	eb03 2322 	add.w	r3, r3, r2, asr #8
 8001488:	6023      	str	r3, [r4, #0]
 800148a:	6823      	ldr	r3, [r4, #0]
 800148c:	9301      	str	r3, [sp, #4]
 800148e:	f7ff ffd9 	bl	8001444 <_Z8depth_15v.isra.0>
 8001492:	9b01      	ldr	r3, [sp, #4]
 8001494:	2b00      	cmp	r3, #0
 8001496:	bfa8      	it	ge
 8001498:	6823      	ldrge	r3, [r4, #0]
 800149a:	b002      	add	sp, #8
 800149c:	bd10      	pop	{r4, pc}
 800149e:	bf00      	nop
 80014a0:	2000019c 	.word	0x2000019c

080014a4 <_Z8depth_17v.isra.0>:
 80014a4:	b510      	push	{r4, lr}
 80014a6:	4c0a      	ldr	r4, [pc, #40]	@ (80014d0 <_Z8depth_17v.isra.0+0x2c>)
 80014a8:	b082      	sub	sp, #8
 80014aa:	6822      	ldr	r2, [r4, #0]
 80014ac:	6823      	ldr	r3, [r4, #0]
 80014ae:	3301      	adds	r3, #1
 80014b0:	6023      	str	r3, [r4, #0]
 80014b2:	6823      	ldr	r3, [r4, #0]
 80014b4:	eb03 2322 	add.w	r3, r3, r2, asr #8
 80014b8:	6023      	str	r3, [r4, #0]
 80014ba:	6823      	ldr	r3, [r4, #0]
 80014bc:	9301      	str	r3, [sp, #4]
 80014be:	f7ff ffd9 	bl	8001474 <_Z8depth_16v.isra.0>
 80014c2:	9b01      	ldr	r3, [sp, #4]
 80014c4:	2b00      	cmp	r3, #0
 80014c6:	bfa8      	it	ge
 80014c8:	6823      	ldrge	r3, [r4, #0]
 80014ca:	b002      	add	sp, #8
 80014cc:	bd10      	pop	{r4, pc}
 80014ce:	bf00      	nop
 80014d0:	2000019c 	.word	0x2000019c

080014d4 <_Z8depth_18v.isra.0>:
 80014d4:	b510      	push	{r4, lr}
 80014d6:	4c0a      	ldr	r4, [pc, #40]	@ (8001500 <_Z8depth_18v.isra.0+0x2c>)
 80014d8:	b082      	sub	sp, #8
 80014da:	6822      	ldr	r2, [r4, #0]
 80014dc:	6823      	ldr	r3, [r4, #0]
 80014de:	3301      	adds	r3, #1
 80014e0:	6023      	str	r3, [r4, #0]
 80014e2:	6823      	ldr	r3, [r4, #0]
 80014e4:	eb03 2322 	add.w	r3, r3, r2, asr #8
 80014e8:	6023      	str	r3, [r4, #0]
 80014ea:	6823      	ldr	r3, [r4, #0]
 80014ec:	9301      	str	r3, [sp, #4]
 80014ee:	f7ff ffd9 	bl	80014a4 <_Z8depth_17v.isra.0>
 80014f2:	9b01      	ldr	r3, [sp, #4]
 80014f4:	2b00      	cmp	r3, #0
 80014f6:	bfa8      	it	ge
 80014f8:	6823      	ldrge	r3, [r4, #0]
 80014fa:	b002      	add	sp, #8
 80014fc:	bd10      	pop	{r4, pc}
 80014fe:	bf00      	nop
 8001500:	2000019c 	.word	0x2000019c

08001504 <_Z8depth_19v.isra.0>:
 8001504:	b510      	push	{r4, lr}
 8001506:	4c0a      	ldr	r4, [pc, #40]	@ (8001530 <_Z8depth_19v.isra.0+0x2c>)
 8001508:	b082      	sub	sp, #8
 800150a:	6822      	ldr	r2, [r4, #0]
 800150c:	6823      	ldr	r3, [r4, #0]
 800150e:	3301      	adds	r3, #1
 8001510:	6023      	str	r3, [r4, #0]
 8001512:	6823      	ldr	r3, [r4, #0]
 8001514:	eb03 2322 	add.w	r3, r3, r2, asr #8
 8001518:	6023      	str	r3, [r4, #0]
 800151a:	6823      	ldr	r3, [r4, #0]
 800151c:	9301      	str	r3, [sp, #4]
 800151e:	f7ff ffd9 	bl	80014d4 <_Z8depth_18v.isra.0>
 8001522:	9b01      	ldr	r3, [sp, #4]
 8001524:	2b00      	cmp	r3, #0
 8001526:	bfa8      	it	ge
 8001528:	6823      	ldrge	r3, [r4, #0]
 800152a:	b002      	add	sp, #8
 800152c:	bd10      	pop	{r4, pc}
 800152e:	bf00      	nop
 8001530:	2000019c 	.word	0x2000019c

08001534 <_Z8depth_20v.isra.0>:
 8001534:	b510      	push	{r4, lr}
 8001536:	4c0a      	ldr	r4, [pc, #40]	@ (8001560 <_Z8depth_20v.isra.0+0x2c>)
 8001538:	b082      	sub	sp, #8
 800153a:	6822      	ldr	r2, [r4, #0]
 800153c:	6823      	ldr	r3, [r4, #0]
 800153e:	3301      	adds	r3, #1
 8001540:	6023      	str	r3, [r4, #0]
 8001542:	6823      	ldr	r3, [r4, #0]
 8001544:	eb03 2322 	add.w	r3, r3, r2, asr #8
 8001548:	6023      	str	r3, [r4, #0]
 800154a:	6823      	ldr	r3, [r4, #0]
 800154c:	9301      	str	r3, [sp, #4]
 800154e:	f7ff ffd9 	bl	8001504 <_Z8depth_19v.isra.0>
 8001552:	9b01      	ldr	r3, [sp, #4]
 8001554:	2b00      	cmp	r3, #0
 8001556:	bfa8      	it	ge
 8001558:	6823      	ldrge	r3, [r4, #0]
 800155a:	b002      	add	sp, #8
 800155c:	bd10      	pop	{r4, pc}
 800155e:	bf00      	nop
 8001560:	2000019c 	.word	0x2000019c

08001564 <_Z8depth_21v.isra.0>:
 8001564:	b510      	push	{r4, lr}
 8001566:	4c0a      	ldr	r4, [pc, #40]	@ (8001590 <_Z8depth_21v.isra.0+0x2c>)
 8001568:	b082      	sub	sp, #8
 800156a:	6822      	ldr	r2, [r4, #0]
 800156c:	6823      	ldr	r3, [r4, #0]
 800156e:	3301      	adds	r3, #1
 8001570:	6023      	str	r3, [r4, #0]
 8001572:	6823      	ldr	r3, [r4, #0]
 8001574:	eb03 2322 	add.w	r3, r3, r2, asr #8
 8001578:	6023      	str	r3, [r4, #0]
 800157a:	6823      	ldr	r3, [r4, #0]
 800157c:	9301      	str	r3, [sp, #4]
 800157e:	f7ff ffd9 	bl	8001534 <_Z8depth_20v.isra.0>
 8001582:	9b01      	ldr	r3, [sp, #4]
 8001584:	2b00      	cmp	r3, #0
 8001586:	bfa8      	it	ge
 8001588:	6823      	ldrge	r3, [r4, #0]
 800158a:	b002      	add	sp, #8
 800158c:	bd10      	pop	{r4, pc}
 800158e:	bf00      	nop
 8001590:	2000019c 	.word	0x2000019c

08001594 <_Z8depth_22v.isra.0>:
 8001594:	b510      	push	{r4, lr}
 8001596:	4c0a      	ldr	r4, [pc, #40]	@ (80015c0 <_Z8depth_22v.isra.0+0x2c>)
 8001598:	b082      	sub	sp, #8
 800159a:	6822      	ldr	r2, [r4, #0]
 800159c:	6823      	ldr	r3, [r4, #0]
 800159e:	3301      	adds	r3, #1
 80015a0:	6023      	str	r3, [r4, #0]
 80015a2:	6823      	ldr	r3, [r4, #0]
 80015a4:	eb03 2322 	add.w	r3, r3, r2, asr #8
 80015a8:	6023      	str	r3, [r4, #0]
 80015aa:	6823      	ldr	r3, [r4, #0]
 80015ac:	9301      	str	r3, [sp, #4]
 80015ae:	f7ff ffd9 	bl	8001564 <_Z8depth_21v.isra.0>
 80015b2:	9b01      	ldr	r3, [sp, #4]
 80015b4:	2b00      	cmp	r3, #0
 80015b6:	bfa8      	it	ge
 80015b8:	6823      	ldrge	r3, [r4, #0]
 80015ba:	b002      	add	sp, #8
 80015bc:	bd10      	pop	{r4, pc}
 80015be:	bf00      	nop
 80015c0:	2000019c 	.word	0x2000019c

080015c4 <_Z8depth_23v.isra.0>:
 80015c4:	b510      	push	{r4, lr}
 80015c6:	4c0a      	ldr	r4, [pc, #40]	@ (80015f0 <_Z8depth_23v.isra.0+0x2c>)
 80015c8:	b082      	sub	sp, #8
 80015ca:	6822      	ldr	r2, [r4, #0]
 80015cc:	6823      	ldr	r3, [r4, #0]
 80015ce:	3301      	adds	r3, #1
 80015d0:	6023      	str	r3, [r4, #0]
 80015d2:	6823      	ldr	r3, [r4, #0]
 80015d4:	eb03 2322 	add.w	r3, r3, r2, asr #8
 80015d8:	6023      	str	r3, [r4, #0]
 80015da:	6823      	ldr	r3, [r4, #0]
 80015dc:	9301      	str	r3, [sp, #4]
 80015de:	f7ff ffd9 	bl	8001594 <_Z8depth_22v.isra.0>
 80015e2:	9b01      	ldr	r3, [sp, #4]
 80015e4:	2b00      	cmp	r3, #0
 80015e6:	bfa8      	it	ge
 80015e8:	6823      	ldrge	r3, [r4, #0]
 80015ea:	b002      	add	sp, #8
 80015ec:	bd10      	pop	{r4, pc}
 80015ee:	bf00      	nop
 80015f0:	2000019c 	.word	0x2000019c

080015f4 <_Z8depth_24v.isra.0>:
 80015f4:	b510      	push	{r4, lr}
 80015f6:	4c0a      	ldr	r4, [pc, #40]	@ (8001620 <_Z8depth_24v.isra.0+0x2c>)
 80015f8:	b082      	sub	sp, #8
 80015fa:	6822      	ldr	r2, [r4, #0]
 80015fc:	6823      	ldr	r3, [r4, #0]
 80015fe:	3301      	adds	r3, #1
 8001600:	6023      	str	r3, [r4, #0]
 8001602:	6823      	ldr	r3, [r4, #0]
 8001604:	eb03 2322 	add.w	r3, r3, r2, asr #8
 8001608:	6023      	str	r3, [r4, #0]
 800160a:	6823      	ldr	r3, [r4, #0]
 800160c:	9301      	str	r3, [sp, #4]
 800160e:	f7ff ffd9 	bl	80015c4 <_Z8depth_23v.isra.0>
 8001612:	9b01      	ldr	r3, [sp, #4]
 8001614:	2b00      	cmp	r3, #0
 8001616:	bfa8      	it	ge
 8001618:	6823      	ldrge	r3, [r4, #0]
 800161a:	b002      	add	sp, #8
 800161c:	bd10      	pop	{r4, pc}
 800161e:	bf00      	nop
 8001620:	2000019c 	.word	0x2000019c

08001624 <_Z8depth_25v.isra.0>:
 8001624:	b510      	push	{r4, lr}
 8001626:	4c0a      	ldr	r4, [pc, #40]	@ (8001650 <_Z8depth_25v.isra.0+0x2c>)
 8001628:	b082      	sub	sp, #8
 800162a:	6822      	ldr	r2, [r4, #0]
 800162c:	6823      	ldr	r3, [r4, #0]
 800162e:	3301      	adds	r3, #1
 8001630:	6023      	str	r3, [r4, #0]
 8001632:	6823      	ldr	r3, [r4, #0]
 8001634:	eb03 2322 	add.w	r3, r3, r2, asr #8
 8001638:	6023      	str	r3, [r4, #0]
 800163a:	6823      	ldr	r3, [r4, #0]
 800163c:	9301      	str	r3, [sp, #4]
 800163e:	f7ff ffd9 	bl	80015f4 <_Z8depth_24v.isra.0>
 8001642:	9b01      	ldr	r3, [sp, #4]
 8001644:	2b00      	cmp	r3, #0
 8001646:	bfa8      	it	ge
 8001648:	6823      	ldrge	r3, [r4, #0]
 800164a:	b002      	add	sp, #8
 800164c:	bd10      	pop	{r4, pc}
 800164e:	bf00      	nop
 8001650:	2000019c 	.word	0x2000019c

08001654 <_Z8depth_26v.isra.0>:
 8001654:	b510      	push	{r4, lr}
 8001656:	4c0a      	ldr	r4, [pc, #40]	@ (8001680 <_Z8depth_26v.isra.0+0x2c>)
 8001658:	b082      	sub	sp, #8
 800165a:	6822      	ldr	r2, [r4, #0]
 800165c:	6823      	ldr	r3, [r4, #0]
 800165e:	3301      	adds	r3, #1
 8001660:	6023      	str	r3, [r4, #0]
 8001662:	6823      	ldr	r3, [r4, #0]
 8001664:	eb03 2322 	add.w	r3, r3, r2, asr #8
 8001668:	6023      	str	r3, [r4, #0]
 800166a:	6823      	ldr	r3, [r4, #0]
 800166c:	9301      	str	r3, [sp, #4]
 800166e:	f7ff ffd9 	bl	8001624 <_Z8depth_25v.isra.0>
 8001672:	9b01      	ldr	r3, [sp, #4]
 8001674:	2b00      	cmp	r3, #0
 8001676:	bfa8      	it	ge
 8001678:	6823      	ldrge	r3, [r4, #0]
 800167a:	b002      	add	sp, #8
 800167c:	bd10      	pop	{r4, pc}
 800167e:	bf00      	nop
 8001680:	2000019c 	.word	0x2000019c

08001684 <_Z8depth_27v.isra.0>:
 8001684:	b510      	push	{r4, lr}
 8001686:	4c0a      	ldr	r4, [pc, #40]	@ (80016b0 <_Z8depth_27v.isra.0+0x2c>)
 8001688:	b082      	sub	sp, #8
 800168a:	6822      	ldr	r2, [r4, #0]
 800168c:	6823      	ldr	r3, [r4, #0]
 800168e:	3301      	adds	r3, #1
 8001690:	6023      	str	r3, [r4, #0]
 8001692:	6823      	ldr	r3, [r4, #0]
 8001694:	eb03 2322 	add.w	r3, r3, r2, asr #8
 8001698:	6023      	str	r3, [r4, #0]
 800169a:	6823      	ldr	r3, [r4, #0]
 800169c:	9301      	str	r3, [sp, #4]
 800169e:	f7ff ffd9 	bl	8001654 <_Z8depth_26v.isra.0>
 80016a2:	9b01      	ldr	r3, [sp, #4]
 80016a4:	2b00      	cmp	r3, #0
 80016a6:	bfa8      	it	ge
 80016a8:	6823      	ldrge	r3, [r4, #0]
 80016aa:	b002      	add	sp, #8
 80016ac:	bd10      	pop	{r4, pc}
 80016ae:	bf00      	nop
 80016b0:	2000019c 	.word	0x2000019c

080016b4 <_Z8depth_28v.isra.0>:
 80016b4:	b510      	push	{r4, lr}
 80016b6:	4c0a      	ldr	r4, [pc, #40]	@ (80016e0 <_Z8depth_28v.isra.0+0x2c>)
 80016b8:	b082      	sub	sp, #8
 80016ba:	6822      	ldr	r2, [r4, #0]
 80016bc:	6823      	ldr	r3, [r4, #0]
 80016be:	3301      	adds	r3, #1
 80016c0:	6023      	str	r3, [r4, #0]
 80016c2:	6823      	ldr	r3, [r4, #0]
 80016c4:	eb03 2322 	add.w	r3, r3, r2, asr #8
 80016c8:	6023      	str	r3, [r4, #0]
 80016ca:	6823      	ldr	r3, [r4, #0]
 80016cc:	9301      	str	r3, [sp, #4]
 80016ce:	f7ff ffd9 	bl	8001684 <_Z8depth_27v.isra.0>
 80016d2:	9b01      	ldr	r3, [sp, #4]
 80016d4:	2b00      	cmp	r3, #0
 80016d6:	bfa8      	it	ge
 80016d8:	6823      	ldrge	r3, [r4, #0]
 80016da:	b002      	add	sp, #8
 80016dc:	bd10      	pop	{r4, pc}
 80016de:	bf00      	nop
 80016e0:	2000019c 	.word	0x2000019c

080016e4 <_Z8depth_29v.isra.0>:
 80016e4:	b510      	push	{r4, lr}
 80016e6:	4c0a      	ldr	r4, [pc, #40]	@ (8001710 <_Z8depth_29v.isra.0+0x2c>)
 80016e8:	b082      	sub	sp, #8
 80016ea:	6822      	ldr	r2, [r4, #0]
 80016ec:	6823      	ldr	r3, [r4, #0]
 80016ee:	3301      	adds	r3, #1
 80016f0:	6023      	str	r3, [r4, #0]
 80016f2:	6823      	ldr	r3, [r4, #0]
 80016f4:	eb03 2322 	add.w	r3, r3, r2, asr #8
 80016f8:	6023      	str	r3, [r4, #0]
 80016fa:	6823      	ldr	r3, [r4, #0]
 80016fc:	9301      	str	r3, [sp, #4]
 80016fe:	f7ff ffd9 	bl	80016b4 <_Z8depth_28v.isra.0>
 8001702:	9b01      	ldr	r3, [sp, #4]
 8001704:	2b00      	cmp	r3, #0
 8001706:	bfa8      	it	ge
 8001708:	6823      	ldrge	r3, [r4, #0]
 800170a:	b002      	add	sp, #8
 800170c:	bd10      	pop	{r4, pc}
 800170e:	bf00      	nop
 8001710:	2000019c 	.word	0x2000019c

08001714 <_Z8depth_30v.isra.0>:
 8001714:	b510      	push	{r4, lr}
 8001716:	4c0a      	ldr	r4, [pc, #40]	@ (8001740 <_Z8depth_30v.isra.0+0x2c>)
 8001718:	b082      	sub	sp, #8
 800171a:	6822      	ldr	r2, [r4, #0]
 800171c:	6823      	ldr	r3, [r4, #0]
 800171e:	3301      	adds	r3, #1
 8001720:	6023      	str	r3, [r4, #0]
 8001722:	6823      	ldr	r3, [r4, #0]
 8001724:	eb03 2322 	add.w	r3, r3, r2, asr #8
 8001728:	6023      	str	r3, [r4, #0]
 800172a:	6823      	ldr	r3, [r4, #0]
 800172c:	9301      	str	r3, [sp, #4]
 800172e:	f7ff ffd9 	bl	80016e4 <_Z8depth_29v.isra.0>
 8001732:	9b01      	ldr	r3, [sp, #4]
 8001734:	2b00      	cmp	r3, #0
 8001736:	bfa8      	it	ge
 8001738:	6823      	ldrge	r3, [r4, #0]
 800173a:	b002      	add	sp, #8
 800173c:	bd10      	pop	{r4, pc}
 800173e:	bf00      	nop
 8001740:	2000019c 	.word	0x2000019c

08001744 <_Z8depth_31v.isra.0>:
 8001744:	b510      	push	{r4, lr}
 8001746:	4c0a      	ldr	r4, [pc, #40]	@ (8001770 <_Z8depth_31v.isra.0+0x2c>)
 8001748:	b082      	sub	sp, #8
 800174a:	6822      	ldr	r2, [r4, #0]
 800174c:	6823      	ldr	r3, [r4, #0]
 800174e:	3301      	adds	r3, #1
 8001750:	6023      	str	r3, [r4, #0]
 8001752:	6823      	ldr	r3, [r4, #0]
 8001754:	eb03 2322 	add.w	r3, r3, r2, asr #8
 8001758:	6023      	str	r3, [r4, #0]
 800175a:	6823      	ldr	r3, [r4, #0]
 800175c:	9301      	str	r3, [sp, #4]
 800175e:	f7ff ffd9 	bl	8001714 <_Z8depth_30v.isra.0>
 8001762:	9b01      	ldr	r3, [sp, #4]
 8001764:	2b00      	cmp	r3, #0
 8001766:	bfa8      	it	ge
 8001768:	6823      	ldrge	r3, [r4, #0]
 800176a:	b002      	add	sp, #8
 800176c:	bd10      	pop	{r4, pc}
 800176e:	bf00      	nop
 8001770:	2000019c 	.word	0x2000019c

08001774 <_Z8depth_32v.isra.0>:
 8001774:	b510      	push	{r4, lr}
 8001776:	4c0a      	ldr	r4, [pc, #40]	@ (80017a0 <_Z8depth_32v.isra.0+0x2c>)
 8001778:	b082      	sub	sp, #8
 800177a:	6822      	ldr	r2, [r4, #0]
 800177c:	6823      	ldr	r3, [r4, #0]
 800177e:	3301      	adds	r3, #1
 8001780:	6023      	str	r3, [r4, #0]
 8001782:	6823      	ldr	r3, [r4, #0]
 8001784:	eb03 2322 	add.w	r3, r3, r2, asr #8
 8001788:	6023      	str	r3, [r4, #0]
 800178a:	6823      	ldr	r3, [r4, #0]
 800178c:	9301      	str	r3, [sp, #4]
 800178e:	f7ff ffd9 	bl	8001744 <_Z8depth_31v.isra.0>
 8001792:	9b01      	ldr	r3, [sp, #4]
 8001794:	2b00      	cmp	r3, #0
 8001796:	bfa8      	it	ge
 8001798:	6823      	ldrge	r3, [r4, #0]
 800179a:	b002      	add	sp, #8
 800179c:	bd10      	pop	{r4, pc}
 800179e:	bf00      	nop
 80017a0:	2000019c 	.word	0x2000019c

080017a4 <_Z8depth_33v.isra.0>:
 80017a4:	b510      	push	{r4, lr}
 80017a6:	4c0a      	ldr	r4, [pc, #40]	@ (80017d0 <_Z8depth_33v.isra.0+0x2c>)
 80017a8:	b082      	sub	sp, #8
 80017aa:	6822      	ldr	r2, [r4, #0]
 80017ac:	6823      	ldr	r3, [r4, #0]
 80017ae:	3301      	adds	r3, #1
 80017b0:	6023      	str	r3, [r4, #0]
 80017b2:	6823      	ldr	r3, [r4, #0]
 80017b4:	eb03 2322 	add.w	r3, r3, r2, asr #8
 80017b8:	6023      	str	r3, [r4, #0]
 80017ba:	6823      	ldr	r3, [r4, #0]
 80017bc:	9301      	str	r3, [sp, #4]
 80017be:	f7ff ffd9 	bl	8001774 <_Z8depth_32v.isra.0>
 80017c2:	9b01      	ldr	r3, [sp, #4]
 80017c4:	2b00      	cmp	r3, #0
 80017c6:	bfa8      	it	ge
 80017c8:	6823      	ldrge	r3, [r4, #0]
 80017ca:	b002      	add	sp, #8
 80017cc:	bd10      	pop	{r4, pc}
 80017ce:	bf00      	nop
 80017d0:	2000019c 	.word	0x2000019c

080017d4 <_Z8depth_34v.isra.0>:
 80017d4:	b510      	push	{r4, lr}
 80017d6:	4c0a      	ldr	r4, [pc, #40]	@ (8001800 <_Z8depth_34v.isra.0+0x2c>)
 80017d8:	b082      	sub	sp, #8
 80017da:	6822      	ldr	r2, [r4, #0]
 80017dc:	6823      	ldr	r3, [r4, #0]
 80017de:	3301      	adds	r3, #1
 80017e0:	6023      	str	r3, [r4, #0]
 80017e2:	6823      	ldr	r3, [r4, #0]
 80017e4:	eb03 2322 	add.w	r3, r3, r2, asr #8
 80017e8:	6023      	str	r3, [r4, #0]
 80017ea:	6823      	ldr	r3, [r4, #0]
 80017ec:	9301      	str	r3, [sp, #4]
 80017ee:	f7ff ffd9 	bl	80017a4 <_Z8depth_33v.isra.0>
 80017f2:	9b01      	ldr	r3, [sp, #4]
 80017f4:	2b00      	cmp	r3, #0
 80017f6:	bfa8      	it	ge
 80017f8:	6823      	ldrge	r3, [r4, #0]
 80017fa:	b002      	add	sp, #8
 80017fc:	bd10      	pop	{r4, pc}
 80017fe:	bf00      	nop
 8001800:	2000019c 	.word	0x2000019c

08001804 <_Z8depth_35v.isra.0>:
 8001804:	b510      	push	{r4, lr}
 8001806:	4c0a      	ldr	r4, [pc, #40]	@ (8001830 <_Z8depth_35v.isra.0+0x2c>)
 8001808:	b082      	sub	sp, #8
 800180a:	6822      	ldr	r2, [r4, #0]
 800180c:	6823      	ldr	r3, [r4, #0]
 800180e:	3301      	adds	r3, #1
 8001810:	6023      	str	r3, [r4, #0]
 8001812:	6823      	ldr	r3, [r4, #0]
 8001814:	eb03 2322 	add.w	r3, r3, r2, asr #8
 8001818:	6023      	str	r3, [r4, #0]
 800181a:	6823      	ldr	r3, [r4, #0]
 800181c:	9301      	str	r3, [sp, #4]
 800181e:	f7ff ffd9 	bl	80017d4 <_Z8depth_34v.isra.0>
 8001822:	9b01      	ldr	r3, [sp, #4]
 8001824:	2b00      	cmp	r3, #0
 8001826:	bfa8      	it	ge
 8001828:	6823      	ldrge	r3, [r4, #0]
 800182a:	b002      	add	sp, #8
 800182c:	bd10      	pop	{r4, pc}
 800182e:	bf00      	nop
 8001830:	2000019c 	.word	0x2000019c

08001834 <_Z8depth_36v.isra.0>:
 8001834:	b510      	push	{r4, lr}
 8001836:	4c0a      	ldr	r4, [pc, #40]	@ (8001860 <_Z8depth_36v.isra.0+0x2c>)
 8001838:	b082      	sub	sp, #8
 800183a:	6822      	ldr	r2, [r4, #0]
 800183c:	6823      	ldr	r3, [r4, #0]
 800183e:	3301      	adds	r3, #1
 8001840:	6023      	str	r3, [r4, #0]
 8001842:	6823      	ldr	r3, [r4, #0]
 8001844:	eb03 2322 	add.w	r3, r3, r2, asr #8
 8001848:	6023      	str	r3, [r4, #0]
 800184a:	6823      	ldr	r3, [r4, #0]
 800184c:	9301      	str	r3, [sp, #4]
 800184e:	f7ff ffd9 	bl	8001804 <_Z8depth_35v.isra.0>
 8001852:	9b01      	ldr	r3, [sp, #4]
 8001854:	2b00      	cmp	r3, #0
 8001856:	bfa8      	it	ge
 8001858:	6823      	ldrge	r3, [r4, #0]
 800185a:	b002      	add	sp, #8
 800185c:	bd10      	pop	{r4, pc}
 800185e:	bf00      	nop
 8001860:	2000019c 	.word	0x2000019c

08001864 <_Z8depth_37v.isra.0>:
 8001864:	b510      	push	{r4, lr}
 8001866:	4c0a      	ldr	r4, [pc, #40]	@ (8001890 <_Z8depth_37v.isra.0+0x2c>)
 8001868:	b082      	sub	sp, #8
 800186a:	6822      	ldr	r2, [r4, #0]
 800186c:	6823      	ldr	r3, [r4, #0]
 800186e:	3301      	adds	r3, #1
 8001870:	6023      	str	r3, [r4, #0]
 8001872:	6823      	ldr	r3, [r4, #0]
 8001874:	eb03 2322 	add.w	r3, r3, r2, asr #8
 8001878:	6023      	str	r3, [r4, #0]
 800187a:	6823      	ldr	r3, [r4, #0]
 800187c:	9301      	str	r3, [sp, #4]
 800187e:	f7ff ffd9 	bl	8001834 <_Z8depth_36v.isra.0>
 8001882:	9b01      	ldr	r3, [sp, #4]
 8001884:	2b00      	cmp	r3, #0
 8001886:	bfa8      	it	ge
 8001888:	6823      	ldrge	r3, [r4, #0]
 800188a:	b002      	add	sp, #8
 800188c:	bd10      	pop	{r4, pc}
 800188e:	bf00      	nop
 8001890:	2000019c 	.word	0x2000019c

08001894 <_Z8depth_38v.isra.0>:
 8001894:	b510      	push	{r4, lr}
 8001896:	4c0a      	ldr	r4, [pc, #40]	@ (80018c0 <_Z8depth_38v.isra.0+0x2c>)
 8001898:	b082      	sub	sp, #8
 800189a:	6822      	ldr	r2, [r4, #0]
 800189c:	6823      	ldr	r3, [r4, #0]
 800189e:	3301      	adds	r3, #1
 80018a0:	6023      	str	r3, [r4, #0]
 80018a2:	6823      	ldr	r3, [r4, #0]
 80018a4:	eb03 2322 	add.w	r3, r3, r2, asr #8
 80018a8:	6023      	str	r3, [r4, #0]
 80018aa:	6823      	ldr	r3, [r4, #0]
 80018ac:	9301      	str	r3, [sp, #4]
 80018ae:	f7ff ffd9 	bl	8001864 <_Z8depth_37v.isra.0>
 80018b2:	9b01      	ldr	r3, [sp, #4]
 80018b4:	2b00      	cmp	r3, #0
 80018b6:	bfa8      	it	ge
 80018b8:	6823      	ldrge	r3, [r4, #0]
 80018ba:	b002      	add	sp, #8
 80018bc:	bd10      	pop	{r4, pc}
 80018be:	bf00      	nop
 80018c0:	2000019c 	.word	0x2000019c

080018c4 <_Z8depth_39v.isra.0>:
 80018c4:	b510      	push	{r4, lr}
 80018c6:	4c0a      	ldr	r4, [pc, #40]	@ (80018f0 <_Z8depth_39v.isra.0+0x2c>)
 80018c8:	b082      	sub	sp, #8
 80018ca:	6822      	ldr	r2, [r4, #0]
 80018cc:	6823      	ldr	r3, [r4, #0]
 80018ce:	3301      	adds	r3, #1
 80018d0:	6023      	str	r3, [r4, #0]
 80018d2:	6823      	ldr	r3, [r4, #0]
 80018d4:	eb03 2322 	add.w	r3, r3, r2, asr #8
 80018d8:	6023      	str	r3, [r4, #0]
 80018da:	6823      	ldr	r3, [r4, #0]
 80018dc:	9301      	str	r3, [sp, #4]
 80018de:	f7ff ffd9 	bl	8001894 <_Z8depth_38v.isra.0>
 80018e2:	9b01      	ldr	r3, [sp, #4]
 80018e4:	2b00      	cmp	r3, #0
 80018e6:	bfa8      	it	ge
 80018e8:	6823      	ldrge	r3, [r4, #0]
 80018ea:	b002      	add	sp, #8
 80018ec:	bd10      	pop	{r4, pc}
 80018ee:	bf00      	nop
 80018f0:	2000019c 	.word	0x2000019c

080018f4 <_Z8depth_40v.isra.0>:
 80018f4:	b510      	push	{r4, lr}
 80018f6:	4c0a      	ldr	r4, [pc, #40]	@ (8001920 <_Z8depth_40v.isra.0+0x2c>)
 80018f8:	b082      	sub	sp, #8
 80018fa:	6822      	ldr	r2, [r4, #0]
 80018fc:	6823      	ldr	r3, [r4, #0]
 80018fe:	3301      	adds	r3, #1
 8001900:	6023      	str	r3, [r4, #0]
 8001902:	6823      	ldr	r3, [r4, #0]
 8001904:	eb03 2322 	add.w	r3, r3, r2, asr #8
 8001908:	6023      	str	r3, [r4, #0]
 800190a:	6823      	ldr	r3, [r4, #0]
 800190c:	9301      	str	r3, [sp, #4]
 800190e:	f7ff ffd9 	bl	80018c4 <_Z8depth_39v.isra.0>
 8001912:	9b01      	ldr	r3, [sp, #4]
 8001914:	2b00      	cmp	r3, #0
 8001916:	bfa8      	it	ge
 8001918:	6823      	ldrge	r3, [r4, #0]
 800191a:	b002      	add	sp, #8
 800191c:	bd10      	pop	{r4, pc}
 800191e:	bf00      	nop
 8001920:	2000019c 	.word	0x2000019c

08001924 <_Z8depth_41v.isra.0>:
 8001924:	b510      	push	{r4, lr}
 8001926:	4c0a      	ldr	r4, [pc, #40]	@ (8001950 <_Z8depth_41v.isra.0+0x2c>)
 8001928:	b082      	sub	sp, #8
 800192a:	6822      	ldr	r2, [r4, #0]
 800192c:	6823      	ldr	r3, [r4, #0]
 800192e:	3301      	adds	r3, #1
 8001930:	6023      	str	r3, [r4, #0]
 8001932:	6823      	ldr	r3, [r4, #0]
 8001934:	eb03 2322 	add.w	r3, r3, r2, asr #8
 8001938:	6023      	str	r3, [r4, #0]
 800193a:	6823      	ldr	r3, [r4, #0]
 800193c:	9301      	str	r3, [sp, #4]
 800193e:	f7ff ffd9 	bl	80018f4 <_Z8depth_40v.isra.0>
 8001942:	9b01      	ldr	r3, [sp, #4]
 8001944:	2b00      	cmp	r3, #0
 8001946:	bfa8      	it	ge
 8001948:	6823      	ldrge	r3, [r4, #0]
 800194a:	b002      	add	sp, #8
 800194c:	bd10      	pop	{r4, pc}
 800194e:	bf00      	nop
 8001950:	2000019c 	.word	0x2000019c

08001954 <_Z8depth_42v.isra.0>:
 8001954:	b510      	push	{r4, lr}
 8001956:	4c0a      	ldr	r4, [pc, #40]	@ (8001980 <_Z8depth_42v.isra.0+0x2c>)
 8001958:	b082      	sub	sp, #8
 800195a:	6822      	ldr	r2, [r4, #0]
 800195c:	6823      	ldr	r3, [r4, #0]
 800195e:	3301      	adds	r3, #1
 8001960:	6023      	str	r3, [r4, #0]
 8001962:	6823      	ldr	r3, [r4, #0]
 8001964:	eb03 2322 	add.w	r3, r3, r2, asr #8
 8001968:	6023      	str	r3, [r4, #0]
 800196a:	6823      	ldr	r3, [r4, #0]
 800196c:	9301      	str	r3, [sp, #4]
 800196e:	f7ff ffd9 	bl	8001924 <_Z8depth_41v.isra.0>
 8001972:	9b01      	ldr	r3, [sp, #4]
 8001974:	2b00      	cmp	r3, #0
 8001976:	bfa8      	it	ge
 8001978:	6823      	ldrge	r3, [r4, #0]
 800197a:	b002      	add	sp, #8
 800197c:	bd10      	pop	{r4, pc}
 800197e:	bf00      	nop
 8001980:	2000019c 	.word	0x2000019c

08001984 <_Z8depth_43v.isra.0>:
 8001984:	b510      	push	{r4, lr}
 8001986:	4c0a      	ldr	r4, [pc, #40]	@ (80019b0 <_Z8depth_43v.isra.0+0x2c>)
 8001988:	b082      	sub	sp, #8
 800198a:	6822      	ldr	r2, [r4, #0]
 800198c:	6823      	ldr	r3, [r4, #0]
 800198e:	3301      	adds	r3, #1
 8001990:	6023      	str	r3, [r4, #0]
 8001992:	6823      	ldr	r3, [r4, #0]
 8001994:	eb03 2322 	add.w	r3, r3, r2, asr #8
 8001998:	6023      	str	r3, [r4, #0]
 800199a:	6823      	ldr	r3, [r4, #0]
 800199c:	9301      	str	r3, [sp, #4]
 800199e:	f7ff ffd9 	bl	8001954 <_Z8depth_42v.isra.0>
 80019a2:	9b01      	ldr	r3, [sp, #4]
 80019a4:	2b00      	cmp	r3, #0
 80019a6:	bfa8      	it	ge
 80019a8:	6823      	ldrge	r3, [r4, #0]
 80019aa:	b002      	add	sp, #8
 80019ac:	bd10      	pop	{r4, pc}
 80019ae:	bf00      	nop
 80019b0:	2000019c 	.word	0x2000019c

080019b4 <_Z8depth_44v.isra.0>:
 80019b4:	b510      	push	{r4, lr}
 80019b6:	4c0a      	ldr	r4, [pc, #40]	@ (80019e0 <_Z8depth_44v.isra.0+0x2c>)
 80019b8:	b082      	sub	sp, #8
 80019ba:	6822      	ldr	r2, [r4, #0]
 80019bc:	6823      	ldr	r3, [r4, #0]
 80019be:	3301      	adds	r3, #1
 80019c0:	6023      	str	r3, [r4, #0]
 80019c2:	6823      	ldr	r3, [r4, #0]
 80019c4:	eb03 2322 	add.w	r3, r3, r2, asr #8
 80019c8:	6023      	str	r3, [r4, #0]
 80019ca:	6823      	ldr	r3, [r4, #0]
 80019cc:	9301      	str	r3, [sp, #4]
 80019ce:	f7ff ffd9 	bl	8001984 <_Z8depth_43v.isra.0>
 80019d2:	9b01      	ldr	r3, [sp, #4]
 80019d4:	2b00      	cmp	r3, #0
 80019d6:	bfa8      	it	ge
 80019d8:	6823      	ldrge	r3, [r4, #0]
 80019da:	b002      	add	sp, #8
 80019dc:	bd10      	pop	{r4, pc}
 80019de:	bf00      	nop
 80019e0:	2000019c 	.word	0x2000019c

080019e4 <_Z8depth_45v.isra.0>:
 80019e4:	b510      	push	{r4, lr}
 80019e6:	4c0a      	ldr	r4, [pc, #40]	@ (8001a10 <_Z8depth_45v.isra.0+0x2c>)
 80019e8:	b082      	sub	sp, #8
 80019ea:	6822      	ldr	r2, [r4, #0]
 80019ec:	6823      	ldr	r3, [r4, #0]
 80019ee:	3301      	adds	r3, #1
 80019f0:	6023      	str	r3, [r4, #0]
 80019f2:	6823      	ldr	r3, [r4, #0]
 80019f4:	eb03 2322 	add.w	r3, r3, r2, asr #8
 80019f8:	6023      	str	r3, [r4, #0]
 80019fa:	6823      	ldr	r3, [r4, #0]
 80019fc:	9301      	str	r3, [sp, #4]
 80019fe:	f7ff ffd9 	bl	80019b4 <_Z8depth_44v.isra.0>
 8001a02:	9b01      	ldr	r3, [sp, #4]
 8001a04:	2b00      	cmp	r3, #0
 8001a06:	bfa8      	it	ge
 8001a08:	6823      	ldrge	r3, [r4, #0]
 8001a0a:	b002      	add	sp, #8
 8001a0c:	bd10      	pop	{r4, pc}
 8001a0e:	bf00      	nop
 8001a10:	2000019c 	.word	0x2000019c

08001a14 <_Z8depth_46v.isra.0>:
 8001a14:	b510      	push	{r4, lr}
 8001a16:	4c0a      	ldr	r4, [pc, #40]	@ (8001a40 <_Z8depth_46v.isra.0+0x2c>)
 8001a18:	b082      	sub	sp, #8
 8001a1a:	6822      	ldr	r2, [r4, #0]
 8001a1c:	6823      	ldr	r3, [r4, #0]
 8001a1e:	3301      	adds	r3, #1
 8001a20:	6023      	str	r3, [r4, #0]
 8001a22:	6823      	ldr	r3, [r4, #0]
 8001a24:	eb03 2322 	add.w	r3, r3, r2, asr #8
 8001a28:	6023      	str	r3, [r4, #0]
 8001a2a:	6823      	ldr	r3, [r4, #0]
 8001a2c:	9301      	str	r3, [sp, #4]
 8001a2e:	f7ff ffd9 	bl	80019e4 <_Z8depth_45v.isra.0>
 8001a32:	9b01      	ldr	r3, [sp, #4]
 8001a34:	2b00      	cmp	r3, #0
 8001a36:	bfa8      	it	ge
 8001a38:	6823      	ldrge	r3, [r4, #0]
 8001a3a:	b002      	add	sp, #8
 8001a3c:	bd10      	pop	{r4, pc}
 8001a3e:	bf00      	nop
 8001a40:	2000019c 	.word	0x2000019c

08001a44 <_Z8depth_47v.isra.0>:
 8001a44:	b510      	push	{r4, lr}
 8001a46:	4c0a      	ldr	r4, [pc, #40]	@ (8001a70 <_Z8depth_47v.isra.0+0x2c>)
 8001a48:	b082      	sub	sp, #8
 8001a4a:	6822      	ldr	r2, [r4, #0]
 8001a4c:	6823      	ldr	r3, [r4, #0]
 8001a4e:	3301      	adds	r3, #1
 8001a50:	6023      	str	r3, [r4, #0]
 8001a52:	6823      	ldr	r3, [r4, #0]
 8001a54:	eb03 2322 	add.w	r3, r3, r2, asr #8
 8001a58:	6023      	str	r3, [r4, #0]
 8001a5a:	6823      	ldr	r3, [r4, #0]
 8001a5c:	9301      	str	r3, [sp, #4]
 8001a5e:	f7ff ffd9 	bl	8001a14 <_Z8depth_46v.isra.0>
 8001a62:	9b01      	ldr	r3, [sp, #4]
 8001a64:	2b00      	cmp	r3, #0
 8001a66:	bfa8      	it	ge
 8001a68:	6823      	ldrge	r3, [r4, #0]
 8001a6a:	b002      	add	sp, #8
 8001a6c:	bd10      	pop	{r4, pc}
 8001a6e:	bf00      	nop
 8001a70:	2000019c 	.word	0x2000019c

08001a74 <_Z8depth_48v.isra.0>:
 8001a74:	b510      	push	{r4, lr}
 8001a76:	4c0a      	ldr	r4, [pc, #40]	@ (8001aa0 <_Z8depth_48v.isra.0+0x2c>)
 8001a78:	b082      	sub	sp, #8
 8001a7a:	6822      	ldr	r2, [r4, #0]
 8001a7c:	6823      	ldr	r3, [r4, #0]
 8001a7e:	3301      	adds	r3, #1
 8001a80:	6023      	str	r3, [r4, #0]
 8001a82:	6823      	ldr	r3, [r4, #0]
 8001a84:	eb03 2322 	add.w	r3, r3, r2, asr #8
 8001a88:	6023      	str	r3, [r4, #0]
 8001a8a:	6823      	ldr	r3, [r4, #0]
 8001a8c:	9301      	str	r3, [sp, #4]
 8001a8e:	f7ff ffd9 	bl	8001a44 <_Z8depth_47v.isra.0>
 8001a92:	9b01      	ldr	r3, [sp, #4]
 8001a94:	2b00      	cmp	r3, #0
 8001a96:	bfa8      	it	ge
 8001a98:	6823      	ldrge	r3, [r4, #0]
 8001a9a:	b002      	add	sp, #8
 8001a9c:	bd10      	pop	{r4, pc}
 8001a9e:	bf00      	nop
 8001aa0:	2000019c 	.word	0x2000019c

08001aa4 <_Z8depth_49v.isra.0>:
 8001aa4:	b510      	push	{r4, lr}
 8001aa6:	4c0a      	ldr	r4, [pc, #40]	@ (8001ad0 <_Z8depth_49v.isra.0+0x2c>)
 8001aa8:	b082      	sub	sp, #8
 8001aaa:	6822      	ldr	r2, [r4, #0]
 8001aac:	6823      	ldr	r3, [r4, #0]
 8001aae:	3301      	adds	r3, #1
 8001ab0:	6023      	str	r3, [r4, #0]
 8001ab2:	6823      	ldr	r3, [r4, #0]
 8001ab4:	eb03 2322 	add.w	r3, r3, r2, asr #8
 8001ab8:	6023      	str	r3, [r4, #0]
 8001aba:	6823      	ldr	r3, [r4, #0]
 8001abc:	9301      	str	r3, [sp, #4]
 8001abe:	f7ff ffd9 	bl	8001a74 <_Z8depth_48v.isra.0>
 8001ac2:	9b01      	ldr	r3, [sp, #4]
 8001ac4:	2b00      	cmp	r3, #0
 8001ac6:	bfa8      	it	ge
 8001ac8:	6823      	ldrge	r3, [r4, #0]
 8001aca:	b002      	add	sp, #8
 8001acc:	bd10      	pop	{r4, pc}
 8001ace:	bf00      	nop
 8001ad0:	2000019c 	.word	0x2000019c

08001ad4 <_Z8depth_50v.isra.0>:
 8001ad4:	b510      	push	{r4, lr}
 8001ad6:	4c0a      	ldr	r4, [pc, #40]	@ (8001b00 <_Z8depth_50v.isra.0+0x2c>)
 8001ad8:	b082      	sub	sp, #8
 8001ada:	6822      	ldr	r2, [r4, #0]
 8001adc:	6823      	ldr	r3, [r4, #0]
 8001ade:	3301      	adds	r3, #1
 8001ae0:	6023      	str	r3, [r4, #0]
 8001ae2:	6823      	ldr	r3, [r4, #0]
 8001ae4:	eb03 2322 	add.w	r3, r3, r2, asr #8
 8001ae8:	6023      	str	r3, [r4, #0]
 8001aea:	6823      	ldr	r3, [r4, #0]
 8001aec:	9301      	str	r3, [sp, #4]
 8001aee:	f7ff ffd9 	bl	8001aa4 <_Z8depth_49v.isra.0>
 8001af2:	9b01      	ldr	r3, [sp, #4]
 8001af4:	2b00      	cmp	r3, #0
 8001af6:	bfa8      	it	ge
 8001af8:	6823      	ldrge	r3, [r4, #0]
 8001afa:	b002      	add	sp, #8
 8001afc:	bd10      	pop	{r4, pc}
 8001afe:	bf00      	nop
 8001b00:	2000019c 	.word	0x2000019c

08001b04 <_Z8depth_51v.isra.0>:
 8001b04:	b510      	push	{r4, lr}
 8001b06:	4c0a      	ldr	r4, [pc, #40]	@ (8001b30 <_Z8depth_51v.isra.0+0x2c>)
 8001b08:	b082      	sub	sp, #8
 8001b0a:	6822      	ldr	r2, [r4, #0]
 8001b0c:	6823      	ldr	r3, [r4, #0]
 8001b0e:	3301      	adds	r3, #1
 8001b10:	6023      	str	r3, [r4, #0]
 8001b12:	6823      	ldr	r3, [r4, #0]
 8001b14:	eb03 2322 	add.w	r3, r3, r2, asr #8
 8001b18:	6023      	str	r3, [r4, #0]
 8001b1a:	6823      	ldr	r3, [r4, #0]
 8001b1c:	9301      	str	r3, [sp, #4]
 8001b1e:	f7ff ffd9 	bl	8001ad4 <_Z8depth_50v.isra.0>
 8001b22:	9b01      	ldr	r3, [sp, #4]
 8001b24:	2b00      	cmp	r3, #0
 8001b26:	bfa8      	it	ge
 8001b28:	6823      	ldrge	r3, [r4, #0]
 8001b2a:	b002      	add	sp, #8
 8001b2c:	bd10      	pop	{r4, pc}
 8001b2e:	bf00      	nop
 8001b30:	2000019c 	.word	0x2000019c

08001b34 <_Z8depth_52v.isra.0>:
 8001b34:	b510      	push	{r4, lr}
 8001b36:	4c0a      	ldr	r4, [pc, #40]	@ (8001b60 <_Z8depth_52v.isra.0+0x2c>)
 8001b38:	b082      	sub	sp, #8
 8001b3a:	6822      	ldr	r2, [r4, #0]
 8001b3c:	6823      	ldr	r3, [r4, #0]
 8001b3e:	3301      	adds	r3, #1
 8001b40:	6023      	str	r3, [r4, #0]
 8001b42:	6823      	ldr	r3, [r4, #0]
 8001b44:	eb03 2322 	add.w	r3, r3, r2, asr #8
 8001b48:	6023      	str	r3, [r4, #0]
 8001b4a:	6823      	ldr	r3, [r4, #0]
 8001b4c:	9301      	str	r3, [sp, #4]
 8001b4e:	f7ff ffd9 	bl	8001b04 <_Z8depth_51v.isra.0>
 8001b52:	9b01      	ldr	r3, [sp, #4]
 8001b54:	2b00      	cmp	r3, #0
 8001b56:	bfa8      	it	ge
 8001b58:	6823      	ldrge	r3, [r4, #0]
 8001b5a:	b002      	add	sp, #8
 8001b5c:	bd10      	pop	{r4, pc}
 8001b5e:	bf00      	nop
 8001b60:	2000019c 	.word	0x2000019c

08001b64 <_Z8depth_53v.isra.0>:
 8001b64:	b510      	push	{r4, lr}
 8001b66:	4c0a      	ldr	r4, [pc, #40]	@ (8001b90 <_Z8depth_53v.isra.0+0x2c>)
 8001b68:	b082      	sub	sp, #8
 8001b6a:	6822      	ldr	r2, [r4, #0]
 8001b6c:	6823      	ldr	r3, [r4, #0]
 8001b6e:	3301      	adds	r3, #1
 8001b70:	6023      	str	r3, [r4, #0]
 8001b72:	6823      	ldr	r3, [r4, #0]
 8001b74:	eb03 2322 	add.w	r3, r3, r2, asr #8
 8001b78:	6023      	str	r3, [r4, #0]
 8001b7a:	6823      	ldr	r3, [r4, #0]
 8001b7c:	9301      	str	r3, [sp, #4]
 8001b7e:	f7ff ffd9 	bl	8001b34 <_Z8depth_52v.isra.0>
 8001b82:	9b01      	ldr	r3, [sp, #4]
 8001b84:	2b00      	cmp	r3, #0
 8001b86:	bfa8      	it	ge
 8001b88:	6823      	ldrge	r3, [r4, #0]
 8001b8a:	b002      	add	sp, #8
 8001b8c:	bd10      	pop	{r4, pc}
 8001b8e:	bf00      	nop
 8001b90:	2000019c 	.word	0x2000019c

08001b94 <_Z8depth_54v.isra.0>:
 8001b94:	b510      	push	{r4, lr}
 8001b96:	4c0a      	ldr	r4, [pc, #40]	@ (8001bc0 <_Z8depth_54v.isra.0+0x2c>)
 8001b98:	b082      	sub	sp, #8
 8001b9a:	6822      	ldr	r2, [r4, #0]
 8001b9c:	6823      	ldr	r3, [r4, #0]
 8001b9e:	3301      	adds	r3, #1
 8001ba0:	6023      	str	r3, [r4, #0]
 8001ba2:	6823      	ldr	r3, [r4, #0]
 8001ba4:	eb03 2322 	add.w	r3, r3, r2, asr #8
 8001ba8:	6023      	str	r3, [r4, #0]
 8001baa:	6823      	ldr	r3, [r4, #0]
 8001bac:	9301      	str	r3, [sp, #4]
 8001bae:	f7ff ffd9 	bl	8001b64 <_Z8depth_53v.isra.0>
 8001bb2:	9b01      	ldr	r3, [sp, #4]
 8001bb4:	2b00      	cmp	r3, #0
 8001bb6:	bfa8      	it	ge
 8001bb8:	6823      	ldrge	r3, [r4, #0]
 8001bba:	b002      	add	sp, #8
 8001bbc:	bd10      	pop	{r4, pc}
 8001bbe:	bf00      	nop
 8001bc0:	2000019c 	.word	0x2000019c

08001bc4 <_Z8depth_55v.isra.0>:
 8001bc4:	b510      	push	{r4, lr}
 8001bc6:	4c0a      	ldr	r4, [pc, #40]	@ (8001bf0 <_Z8depth_55v.isra.0+0x2c>)
 8001bc8:	b082      	sub	sp, #8
 8001bca:	6822      	ldr	r2, [r4, #0]
 8001bcc:	6823      	ldr	r3, [r4, #0]
 8001bce:	3301      	adds	r3, #1
 8001bd0:	6023      	str	r3, [r4, #0]
 8001bd2:	6823      	ldr	r3, [r4, #0]
 8001bd4:	eb03 2322 	add.w	r3, r3, r2, asr #8
 8001bd8:	6023      	str	r3, [r4, #0]
 8001bda:	6823      	ldr	r3, [r4, #0]
 8001bdc:	9301      	str	r3, [sp, #4]
 8001bde:	f7ff ffd9 	bl	8001b94 <_Z8depth_54v.isra.0>
 8001be2:	9b01      	ldr	r3, [sp, #4]
 8001be4:	2b00      	cmp	r3, #0
 8001be6:	bfa8      	it	ge
 8001be8:	6823      	ldrge	r3, [r4, #0]
 8001bea:	b002      	add	sp, #8
 8001bec:	bd10      	pop	{r4, pc}
 8001bee:	bf00      	nop
 8001bf0:	2000019c 	.word	0x2000019c

08001bf4 <_Z8depth_56v.isra.0>:
 8001bf4:	b510      	push	{r4, lr}
 8001bf6:	4c0a      	ldr	r4, [pc, #40]	@ (8001c20 <_Z8depth_56v.isra.0+0x2c>)
 8001bf8:	b082      	sub	sp, #8
 8001bfa:	6822      	ldr	r2, [r4, #0]
 8001bfc:	6823      	ldr	r3, [r4, #0]
 8001bfe:	3301      	adds	r3, #1
 8001c00:	6023      	str	r3, [r4, #0]
 8001c02:	6823      	ldr	r3, [r4, #0]
 8001c04:	eb03 2322 	add.w	r3, r3, r2, asr #8
 8001c08:	6023      	str	r3, [r4, #0]
 8001c0a:	6823      	ldr	r3, [r4, #0]
 8001c0c:	9301      	str	r3, [sp, #4]
 8001c0e:	f7ff ffd9 	bl	8001bc4 <_Z8depth_55v.isra.0>
 8001c12:	9b01      	ldr	r3, [sp, #4]
 8001c14:	2b00      	cmp	r3, #0
 8001c16:	bfa8      	it	ge
 8001c18:	6823      	ldrge	r3, [r4, #0]
 8001c1a:	b002      	add	sp, #8
 8001c1c:	bd10      	pop	{r4, pc}
 8001c1e:	bf00      	nop
 8001c20:	2000019c 	.word	0x2000019c

08001c24 <_Z8depth_57v.isra.0>:
 8001c24:	b510      	push	{r4, lr}
 8001c26:	4c0a      	ldr	r4, [pc, #40]	@ (8001c50 <_Z8depth_57v.isra.0+0x2c>)
 8001c28:	b082      	sub	sp, #8
 8001c2a:	6822      	ldr	r2, [r4, #0]
 8001c2c:	6823      	ldr	r3, [r4, #0]
 8001c2e:	3301      	adds	r3, #1
 8001c30:	6023      	str	r3, [r4, #0]
 8001c32:	6823      	ldr	r3, [r4, #0]
 8001c34:	eb03 2322 	add.w	r3, r3, r2, asr #8
 8001c38:	6023      	str	r3, [r4, #0]
 8001c3a:	6823      	ldr	r3, [r4, #0]
 8001c3c:	9301      	str	r3, [sp, #4]
 8001c3e:	f7ff ffd9 	bl	8001bf4 <_Z8depth_56v.isra.0>
 8001c42:	9b01      	ldr	r3, [sp, #4]
 8001c44:	2b00      	cmp	r3, #0
 8001c46:	bfa8      	it	ge
 8001c48:	6823      	ldrge	r3, [r4, #0]
 8001c4a:	b002      	add	sp, #8
 8001c4c:	bd10      	pop	{r4, pc}
 8001c4e:	bf00      	nop
 8001c50:	2000019c 	.word	0x2000019c

08001c54 <_Z8depth_58v.isra.0>:
 8001c54:	b510      	push	{r4, lr}
 8001c56:	4c0a      	ldr	r4, [pc, #40]	@ (8001c80 <_Z8depth_58v.isra.0+0x2c>)
 8001c58:	b082      	sub	sp, #8
 8001c5a:	6822      	ldr	r2, [r4, #0]
 8001c5c:	6823      	ldr	r3, [r4, #0]
 8001c5e:	3301      	adds	r3, #1
 8001c60:	6023      	str	r3, [r4, #0]
 8001c62:	6823      	ldr	r3, [r4, #0]
 8001c64:	eb03 2322 	add.w	r3, r3, r2, asr #8
 8001c68:	6023      	str	r3, [r4, #0]
 8001c6a:	6823      	ldr	r3, [r4, #0]
 8001c6c:	9301      	str	r3, [sp, #4]
 8001c6e:	f7ff ffd9 	bl	8001c24 <_Z8depth_57v.isra.0>
 8001c72:	9b01      	ldr	r3, [sp, #4]
 8001c74:	2b00      	cmp	r3, #0
 8001c76:	bfa8      	it	ge
 8001c78:	6823      	ldrge	r3, [r4, #0]
 8001c7a:	b002      	add	sp, #8
 8001c7c:	bd10      	pop	{r4, pc}
 8001c7e:	bf00      	nop
 8001c80:	2000019c 	.word	0x2000019c

08001c84 <_Z8depth_59v.isra.0>:
 8001c84:	b510      	push	{r4, lr}
 8001c86:	4c0a      	ldr	r4, [pc, #40]	@ (8001cb0 <_Z8depth_59v.isra.0+0x2c>)
 8001c88:	b082      	sub	sp, #8
 8001c8a:	6822      	ldr	r2, [r4, #0]
 8001c8c:	6823      	ldr	r3, [r4, #0]
 8001c8e:	3301      	adds	r3, #1
 8001c90:	6023      	str	r3, [r4, #0]
 8001c92:	6823      	ldr	r3, [r4, #0]
 8001c94:	eb03 2322 	add.w	r3, r3, r2, asr #8
 8001c98:	6023      	str	r3, [r4, #0]
 8001c9a:	6823      	ldr	r3, [r4, #0]
 8001c9c:	9301      	str	r3, [sp, #4]
 8001c9e:	f7ff ffd9 	bl	8001c54 <_Z8depth_58v.isra.0>
 8001ca2:	9b01      	ldr	r3, [sp, #4]
 8001ca4:	2b00      	cmp	r3, #0
 8001ca6:	bfa8      	it	ge
 8001ca8:	6823      	ldrge	r3, [r4, #0]
 8001caa:	b002      	add	sp, #8
 8001cac:	bd10      	pop	{r4, pc}
 8001cae:	bf00      	nop
 8001cb0:	2000019c 	.word	0x2000019c

08001cb4 <_Z8depth_60v.isra.0>:
 8001cb4:	b510      	push	{r4, lr}
 8001cb6:	4c0a      	ldr	r4, [pc, #40]	@ (8001ce0 <_Z8depth_60v.isra.0+0x2c>)
 8001cb8:	b082      	sub	sp, #8
 8001cba:	6822      	ldr	r2, [r4, #0]
 8001cbc:	6823      	ldr	r3, [r4, #0]
 8001cbe:	3301      	adds	r3, #1
 8001cc0:	6023      	str	r3, [r4, #0]
 8001cc2:	6823      	ldr	r3, [r4, #0]
 8001cc4:	eb03 2322 	add.w	r3, r3, r2, asr #8
 8001cc8:	6023      	str	r3, [r4, #0]
 8001cca:	6823      	ldr	r3, [r4, #0]
 8001ccc:	9301      	str	r3, [sp, #4]
 8001cce:	f7ff ffd9 	bl	8001c84 <_Z8depth_59v.isra.0>
 8001cd2:	9b01      	ldr	r3, [sp, #4]
 8001cd4:	2b00      	cmp	r3, #0
 8001cd6:	bfa8      	it	ge
 8001cd8:	6823      	ldrge	r3, [r4, #0]
 8001cda:	b002      	add	sp, #8
 8001cdc:	bd10      	pop	{r4, pc}
 8001cde:	bf00      	nop
 8001ce0:	2000019c 	.word	0x2000019c

08001ce4 <_Z8depth_61v.isra.0>:
 8001ce4:	b510      	push	{r4, lr}
 8001ce6:	4c0a      	ldr	r4, [pc, #40]	@ (8001d10 <_Z8depth_61v.isra.0+0x2c>)
 8001ce8:	b082      	sub	sp, #8
 8001cea:	6822      	ldr	r2, [r4, #0]
 8001cec:	6823      	ldr	r3, [r4, #0]
 8001cee:	3301      	adds	r3, #1
 8001cf0:	6023      	str	r3, [r4, #0]
 8001cf2:	6823      	ldr	r3, [r4, #0]
 8001cf4:	eb03 2322 	add.w	r3, r3, r2, asr #8
 8001cf8:	6023      	str	r3, [r4, #0]
 8001cfa:	6823      	ldr	r3, [r4, #0]
 8001cfc:	9301      	str	r3, [sp, #4]
 8001cfe:	f7ff ffd9 	bl	8001cb4 <_Z8depth_60v.isra.0>
 8001d02:	9b01      	ldr	r3, [sp, #4]
 8001d04:	2b00      	cmp	r3, #0
 8001d06:	bfa8      	it	ge
 8001d08:	6823      	ldrge	r3, [r4, #0]
 8001d0a:	b002      	add	sp, #8
 8001d0c:	bd10      	pop	{r4, pc}
 8001d0e:	bf00      	nop
 8001d10:	2000019c 	.word	0x2000019c

08001d14 <_Z8depth_62v.isra.0>:
 8001d14:	b510      	push	{r4, lr}
 8001d16:	4c0a      	ldr	r4, [pc, #40]	@ (8001d40 <_Z8depth_62v.isra.0+0x2c>)
 8001d18:	b082      	sub	sp, #8
 8001d1a:	6822      	ldr	r2, [r4, #0]
 8001d1c:	6823      	ldr	r3, [r4, #0]
 8001d1e:	3301      	adds	r3, #1
 8001d20:	6023      	str	r3, [r4, #0]
 8001d22:	6823      	ldr	r3, [r4, #0]
 8001d24:	eb03 2322 	add.w	r3, r3, r2, asr #8
 8001d28:	6023      	str	r3, [r4, #0]
 8001d2a:	6823      	ldr	r3, [r4, #0]
 8001d2c:	9301      	str	r3, [sp, #4]
 8001d2e:	f7ff ffd9 	bl	8001ce4 <_Z8depth_61v.isra.0>
 8001d32:	9b01      	ldr	r3, [sp, #4]
 8001d34:	2b00      	cmp	r3, #0
 8001d36:	bfa8      	it	ge
 8001d38:	6823      	ldrge	r3, [r4, #0]
 8001d3a:	b002      	add	sp, #8
 8001d3c:	bd10      	pop	{r4, pc}
 8001d3e:	bf00      	nop
 8001d40:	2000019c 	.word	0x2000019c

08001d44 <_Z8depth_63v.isra.0>:
 8001d44:	b510      	push	{r4, lr}
 8001d46:	4c0a      	ldr	r4, [pc, #40]	@ (8001d70 <_Z8depth_63v.isra.0+0x2c>)
 8001d48:	b082      	sub	sp, #8
 8001d4a:	6822      	ldr	r2, [r4, #0]
 8001d4c:	6823      	ldr	r3, [r4, #0]
 8001d4e:	3301      	adds	r3, #1
 8001d50:	6023      	str	r3, [r4, #0]
 8001d52:	6823      	ldr	r3, [r4, #0]
 8001d54:	eb03 2322 	add.w	r3, r3, r2, asr #8
 8001d58:	6023      	str	r3, [r4, #0]
 8001d5a:	6823      	ldr	r3, [r4, #0]
 8001d5c:	9301      	str	r3, [sp, #4]
 8001d5e:	f7ff ffd9 	bl	8001d14 <_Z8depth_62v.isra.0>
 8001d62:	9b01      	ldr	r3, [sp, #4]
 8001d64:	2b00      	cmp	r3, #0
 8001d66:	bfa8      	it	ge
 8001d68:	6823      	ldrge	r3, [r4, #0]
 8001d6a:	b002      	add	sp, #8
 8001d6c:	bd10      	pop	{r4, pc}
 8001d6e:	bf00      	nop
 8001d70:	2000019c 	.word	0x2000019c

08001d74 <_Z8depth_64v.isra.0>:
 8001d74:	b510      	push	{r4, lr}
 8001d76:	4c0a      	ldr	r4, [pc, #40]	@ (8001da0 <_Z8depth_64v.isra.0+0x2c>)
 8001d78:	b082      	sub	sp, #8
 8001d7a:	6822      	ldr	r2, [r4, #0]
 8001d7c:	6823      	ldr	r3, [r4, #0]
 8001d7e:	3301      	adds	r3, #1
 8001d80:	6023      	str	r3, [r4, #0]
 8001d82:	6823      	ldr	r3, [r4, #0]
 8001d84:	eb03 2322 	add.w	r3, r3, r2, asr #8
 8001d88:	6023      	str	r3, [r4, #0]
 8001d8a:	6823      	ldr	r3, [r4, #0]
 8001d8c:	9301      	str	r3, [sp, #4]
 8001d8e:	f7ff ffd9 	bl	8001d44 <_Z8depth_63v.isra.0>
 8001d92:	9b01      	ldr	r3, [sp, #4]
 8001d94:	2b00      	cmp	r3, #0
 8001d96:	bfa8      	it	ge
 8001d98:	6823      	ldrge	r3, [r4, #0]
 8001d9a:	b002      	add	sp, #8
 8001d9c:	bd10      	pop	{r4, pc}
 8001d9e:	bf00      	nop
 8001da0:	2000019c 	.word	0x2000019c

08001da4 <_Z8depth_65v.isra.0>:
 8001da4:	b510      	push	{r4, lr}
 8001da6:	4c0a      	ldr	r4, [pc, #40]	@ (8001dd0 <_Z8depth_65v.isra.0+0x2c>)
 8001da8:	b082      	sub	sp, #8
 8001daa:	6822      	ldr	r2, [r4, #0]
 8001dac:	6823      	ldr	r3, [r4, #0]
 8001dae:	3301      	adds	r3, #1
 8001db0:	6023      	str	r3, [r4, #0]
 8001db2:	6823      	ldr	r3, [r4, #0]
 8001db4:	eb03 2322 	add.w	r3, r3, r2, asr #8
 8001db8:	6023      	str	r3, [r4, #0]
 8001dba:	6823      	ldr	r3, [r4, #0]
 8001dbc:	9301      	str	r3, [sp, #4]
 8001dbe:	f7ff ffd9 	bl	8001d74 <_Z8depth_64v.isra.0>
 8001dc2:	9b01      	ldr	r3, [sp, #4]
 8001dc4:	2b00      	cmp	r3, #0
 8001dc6:	bfa8      	it	ge
 8001dc8:	6823      	ldrge	r3, [r4, #0]
 8001dca:	b002      	add	sp, #8
 8001dcc:	bd10      	pop	{r4, pc}
 8001dce:	bf00      	nop
 8001dd0:	2000019c 	.word	0x2000019c

08001dd4 <_Z8depth_66v.isra.0>:
 8001dd4:	b510      	push	{r4, lr}
 8001dd6:	4c0a      	ldr	r4, [pc, #40]	@ (8001e00 <_Z8depth_66v.isra.0+0x2c>)
 8001dd8:	b082      	sub	sp, #8
 8001dda:	6822      	ldr	r2, [r4, #0]
 8001ddc:	6823      	ldr	r3, [r4, #0]
 8001dde:	3301      	adds	r3, #1
 8001de0:	6023      	str	r3, [r4, #0]
 8001de2:	6823      	ldr	r3, [r4, #0]
 8001de4:	eb03 2322 	add.w	r3, r3, r2, asr #8
 8001de8:	6023      	str	r3, [r4, #0]
 8001dea:	6823      	ldr	r3, [r4, #0]
 8001dec:	9301      	str	r3, [sp, #4]
 8001dee:	f7ff ffd9 	bl	8001da4 <_Z8depth_65v.isra.0>
 8001df2:	9b01      	ldr	r3, [sp, #4]
 8001df4:	2b00      	cmp	r3, #0
 8001df6:	bfa8      	it	ge
 8001df8:	6823      	ldrge	r3, [r4, #0]
 8001dfa:	b002      	add	sp, #8
 8001dfc:	bd10      	pop	{r4, pc}
 8001dfe:	bf00      	nop
 8001e00:	2000019c 	.word	0x2000019c

08001e04 <_Z8depth_67v.isra.0>:
 8001e04:	b510      	push	{r4, lr}
 8001e06:	4c0a      	ldr	r4, [pc, #40]	@ (8001e30 <_Z8depth_67v.isra.0+0x2c>)
 8001e08:	b082      	sub	sp, #8
 8001e0a:	6822      	ldr	r2, [r4, #0]
 8001e0c:	6823      	ldr	r3, [r4, #0]
 8001e0e:	3301      	adds	r3, #1
 8001e10:	6023      	str	r3, [r4, #0]
 8001e12:	6823      	ldr	r3, [r4, #0]
 8001e14:	eb03 2322 	add.w	r3, r3, r2, asr #8
 8001e18:	6023      	str	r3, [r4, #0]
 8001e1a:	6823      	ldr	r3, [r4, #0]
 8001e1c:	9301      	str	r3, [sp, #4]
 8001e1e:	f7ff ffd9 	bl	8001dd4 <_Z8depth_66v.isra.0>
 8001e22:	9b01      	ldr	r3, [sp, #4]
 8001e24:	2b00      	cmp	r3, #0
 8001e26:	bfa8      	it	ge
 8001e28:	6823      	ldrge	r3, [r4, #0]
 8001e2a:	b002      	add	sp, #8
 8001e2c:	bd10      	pop	{r4, pc}
 8001e2e:	bf00      	nop
 8001e30:	2000019c 	.word	0x2000019c

08001e34 <_Z8depth_68v.isra.0>:
 8001e34:	b510      	push	{r4, lr}
 8001e36:	4c0a      	ldr	r4, [pc, #40]	@ (8001e60 <_Z8depth_68v.isra.0+0x2c>)
 8001e38:	b082      	sub	sp, #8
 8001e3a:	6822      	ldr	r2, [r4, #0]
 8001e3c:	6823      	ldr	r3, [r4, #0]
 8001e3e:	3301      	adds	r3, #1
 8001e40:	6023      	str	r3, [r4, #0]
 8001e42:	6823      	ldr	r3, [r4, #0]
 8001e44:	eb03 2322 	add.w	r3, r3, r2, asr #8
 8001e48:	6023      	str	r3, [r4, #0]
 8001e4a:	6823      	ldr	r3, [r4, #0]
 8001e4c:	9301      	str	r3, [sp, #4]
 8001e4e:	f7ff ffd9 	bl	8001e04 <_Z8depth_67v.isra.0>
 8001e52:	9b01      	ldr	r3, [sp, #4]
 8001e54:	2b00      	cmp	r3, #0
 8001e56:	bfa8      	it	ge
 8001e58:	6823      	ldrge	r3, [r4, #0]
 8001e5a:	b002      	add	sp, #8
 8001e5c:	bd10      	pop	{r4, pc}
 8001e5e:	bf00      	nop
 8001e60:	2000019c 	.word	0x2000019c

08001e64 <_Z8depth_69v.isra.0>:
 8001e64:	b510      	push	{r4, lr}
 8001e66:	4c0a      	ldr	r4, [pc, #40]	@ (8001e90 <_Z8depth_69v.isra.0+0x2c>)
 8001e68:	b082      	sub	sp, #8
 8001e6a:	6822      	ldr	r2, [r4, #0]
 8001e6c:	6823      	ldr	r3, [r4, #0]
 8001e6e:	3301      	adds	r3, #1
 8001e70:	6023      	str	r3, [r4, #0]
 8001e72:	6823      	ldr	r3, [r4, #0]
 8001e74:	eb03 2322 	add.w	r3, r3, r2, asr #8
 8001e78:	6023      	str	r3, [r4, #0]
 8001e7a:	6823      	ldr	r3, [r4, #0]
 8001e7c:	9301      	str	r3, [sp, #4]
 8001e7e:	f7ff ffd9 	bl	8001e34 <_Z8depth_68v.isra.0>
 8001e82:	9b01      	ldr	r3, [sp, #4]
 8001e84:	2b00      	cmp	r3, #0
 8001e86:	bfa8      	it	ge
 8001e88:	6823      	ldrge	r3, [r4, #0]
 8001e8a:	b002      	add	sp, #8
 8001e8c:	bd10      	pop	{r4, pc}
 8001e8e:	bf00      	nop
 8001e90:	2000019c 	.word	0x2000019c

08001e94 <_Z8depth_70v.isra.0>:
 8001e94:	b510      	push	{r4, lr}
 8001e96:	4c0a      	ldr	r4, [pc, #40]	@ (8001ec0 <_Z8depth_70v.isra.0+0x2c>)
 8001e98:	b082      	sub	sp, #8
 8001e9a:	6822      	ldr	r2, [r4, #0]
 8001e9c:	6823      	ldr	r3, [r4, #0]
 8001e9e:	3301      	adds	r3, #1
 8001ea0:	6023      	str	r3, [r4, #0]
 8001ea2:	6823      	ldr	r3, [r4, #0]
 8001ea4:	eb03 2322 	add.w	r3, r3, r2, asr #8
 8001ea8:	6023      	str	r3, [r4, #0]
 8001eaa:	6823      	ldr	r3, [r4, #0]
 8001eac:	9301      	str	r3, [sp, #4]
 8001eae:	f7ff ffd9 	bl	8001e64 <_Z8depth_69v.isra.0>
 8001eb2:	9b01      	ldr	r3, [sp, #4]
 8001eb4:	2b00      	cmp	r3, #0
 8001eb6:	bfa8      	it	ge
 8001eb8:	6823      	ldrge	r3, [r4, #0]
 8001eba:	b002      	add	sp, #8
 8001ebc:	bd10      	pop	{r4, pc}
 8001ebe:	bf00      	nop
 8001ec0:	2000019c 	.word	0x2000019c

08001ec4 <_ZN3hal26single_exception_allocatorD1Ev>:
 8001ec4:	b510      	push	{r4, lr}
 8001ec6:	4604      	mov	r4, r0
 8001ec8:	4b02      	ldr	r3, [pc, #8]	@ (8001ed4 <_ZN3hal26single_exception_allocatorD1Ev+0x10>)
 8001eca:	6003      	str	r3, [r0, #0]
 8001ecc:	f001 fdec 	bl	8003aa8 <_ZNSt3pmr15memory_resourceD1Ev>
 8001ed0:	4620      	mov	r0, r4
 8001ed2:	bd10      	pop	{r4, pc}
 8001ed4:	080073b0 	.word	0x080073b0

08001ed8 <_ZN3hal26single_exception_allocatorD0Ev>:
 8001ed8:	b510      	push	{r4, lr}
 8001eda:	4604      	mov	r4, r0
 8001edc:	4b04      	ldr	r3, [pc, #16]	@ (8001ef0 <_ZN3hal26single_exception_allocatorD0Ev+0x18>)
 8001ede:	6003      	str	r3, [r0, #0]
 8001ee0:	f001 fde2 	bl	8003aa8 <_ZNSt3pmr15memory_resourceD1Ev>
 8001ee4:	4620      	mov	r0, r4
 8001ee6:	2150      	movs	r1, #80	@ 0x50
 8001ee8:	f001 f98a 	bl	8003200 <_ZdlPvj>
 8001eec:	4620      	mov	r0, r4
 8001eee:	bd10      	pop	{r4, pc}
 8001ef0:	080073b0 	.word	0x080073b0

08001ef4 <_ZN3hal7stm32f112gpio_manager6outputD0Ev>:
 8001ef4:	b510      	push	{r4, lr}
 8001ef6:	4604      	mov	r4, r0
 8001ef8:	2108      	movs	r1, #8
 8001efa:	f001 f981 	bl	8003200 <_ZdlPvj>
 8001efe:	4620      	mov	r0, r4
 8001f00:	bd10      	pop	{r4, pc}
 8001f02:	bf00      	nop

08001f04 <_ZN3hal8cortex_m11dwt_counterD0Ev>:
 8001f04:	b510      	push	{r4, lr}
 8001f06:	4604      	mov	r4, r0
 8001f08:	2110      	movs	r1, #16
 8001f0a:	f001 f979 	bl	8003200 <_ZdlPvj>
 8001f0e:	4620      	mov	r0, r4
 8001f10:	bd10      	pop	{r4, pc}
 8001f12:	bf00      	nop

08001f14 <_ZN3hal7stm32f112gpio_manager6output12driver_levelEb>:
 8001f14:	b508      	push	{r3, lr}
 8001f16:	7903      	ldrb	r3, [r0, #4]
 8001f18:	7942      	ldrb	r2, [r0, #5]
 8001f1a:	3b41      	subs	r3, #65	@ 0x41
 8001f1c:	b149      	cbz	r1, 8001f32 <_ZN3hal7stm32f112gpio_manager6output12driver_levelEb+0x1e>
 8001f1e:	2101      	movs	r1, #1
 8001f20:	2b07      	cmp	r3, #7
 8001f22:	fa01 f202 	lsl.w	r2, r1, r2
 8001f26:	d80a      	bhi.n	8001f3e <_ZN3hal7stm32f112gpio_manager6output12driver_levelEb+0x2a>
 8001f28:	4907      	ldr	r1, [pc, #28]	@ (8001f48 <_ZN3hal7stm32f112gpio_manager6output12driver_levelEb+0x34>)
 8001f2a:	f851 3023 	ldr.w	r3, [r1, r3, lsl #2]
 8001f2e:	611a      	str	r2, [r3, #16]
 8001f30:	bd08      	pop	{r3, pc}
 8001f32:	2101      	movs	r1, #1
 8001f34:	3210      	adds	r2, #16
 8001f36:	2b07      	cmp	r3, #7
 8001f38:	fa01 f202 	lsl.w	r2, r1, r2
 8001f3c:	d9f4      	bls.n	8001f28 <_ZN3hal7stm32f112gpio_manager6output12driver_levelEb+0x14>
 8001f3e:	2208      	movs	r2, #8
 8001f40:	4619      	mov	r1, r3
 8001f42:	4802      	ldr	r0, [pc, #8]	@ (8001f4c <_ZN3hal7stm32f112gpio_manager6output12driver_levelEb+0x38>)
 8001f44:	f7fe f8f6 	bl	8000134 <_ZSt24__throw_out_of_range_fmtPKcz>
 8001f48:	08007324 	.word	0x08007324
 8001f4c:	080078d4 	.word	0x080078d4

08001f50 <_ZN3hal7stm32f112gpio_manager6output12driver_levelEv>:
 8001f50:	b508      	push	{r3, lr}
 8001f52:	7901      	ldrb	r1, [r0, #4]
 8001f54:	3941      	subs	r1, #65	@ 0x41
 8001f56:	2907      	cmp	r1, #7
 8001f58:	d808      	bhi.n	8001f6c <_ZN3hal7stm32f112gpio_manager6output12driver_levelEv+0x1c>
 8001f5a:	4a06      	ldr	r2, [pc, #24]	@ (8001f74 <_ZN3hal7stm32f112gpio_manager6output12driver_levelEv+0x24>)
 8001f5c:	7943      	ldrb	r3, [r0, #5]
 8001f5e:	f852 2021 	ldr.w	r2, [r2, r1, lsl #2]
 8001f62:	6890      	ldr	r0, [r2, #8]
 8001f64:	40d8      	lsrs	r0, r3
 8001f66:	f000 0001 	and.w	r0, r0, #1
 8001f6a:	bd08      	pop	{r3, pc}
 8001f6c:	2208      	movs	r2, #8
 8001f6e:	4802      	ldr	r0, [pc, #8]	@ (8001f78 <_ZN3hal7stm32f112gpio_manager6output12driver_levelEv+0x28>)
 8001f70:	f7fe f8e0 	bl	8000134 <_ZSt24__throw_out_of_range_fmtPKcz>
 8001f74:	08007324 	.word	0x08007324
 8001f78:	080078d4 	.word	0x080078d4

08001f7c <_ZN3hal7stm32f113configure_pinENS0_10pin_selectENS0_12pin_config_tE>:
 8001f7c:	b530      	push	{r4, r5, lr}
 8001f7e:	f3c0 2207 	ubfx	r2, r0, #8, #8
 8001f82:	b083      	sub	sp, #12
 8001f84:	9100      	str	r1, [sp, #0]
 8001f86:	2a07      	cmp	r2, #7
 8001f88:	b2c1      	uxtb	r1, r0
 8001f8a:	f8ad 0004 	strh.w	r0, [sp, #4]
 8001f8e:	f1a1 0141 	sub.w	r1, r1, #65	@ 0x41
 8001f92:	d811      	bhi.n	8001fb8 <_ZN3hal7stm32f113configure_pinENS0_10pin_selectENS0_12pin_config_tE+0x3c>
 8001f94:	2907      	cmp	r1, #7
 8001f96:	f200 80be 	bhi.w	8002116 <_ZN3hal7stm32f113configure_pinENS0_10pin_selectENS0_12pin_config_tE+0x19a>
 8001f9a:	4b61      	ldr	r3, [pc, #388]	@ (8002120 <_ZN3hal7stm32f113configure_pinENS0_10pin_selectENS0_12pin_config_tE+0x1a4>)
 8001f9c:	4c61      	ldr	r4, [pc, #388]	@ (8002124 <_ZN3hal7stm32f113configure_pinENS0_10pin_selectENS0_12pin_config_tE+0x1a8>)
 8001f9e:	699d      	ldr	r5, [r3, #24]
 8001fa0:	f854 0021 	ldr.w	r0, [r4, r1, lsl #2]
 8001fa4:	07ed      	lsls	r5, r5, #31
 8001fa6:	d513      	bpl.n	8001fd0 <_ZN3hal7stm32f113configure_pinENS0_10pin_selectENS0_12pin_config_tE+0x54>
 8001fa8:	2904      	cmp	r1, #4
 8001faa:	f200 80a6 	bhi.w	80020fa <_ZN3hal7stm32f113configure_pinENS0_10pin_selectENS0_12pin_config_tE+0x17e>
 8001fae:	e8df f001 	tbb	[pc, r1]
 8001fb2:	333c      	.short	0x333c
 8001fb4:	212a      	.short	0x212a
 8001fb6:	18          	.byte	0x18
 8001fb7:	00          	.byte	0x00
 8001fb8:	2907      	cmp	r1, #7
 8001fba:	f200 80ac 	bhi.w	8002116 <_ZN3hal7stm32f113configure_pinENS0_10pin_selectENS0_12pin_config_tE+0x19a>
 8001fbe:	4b58      	ldr	r3, [pc, #352]	@ (8002120 <_ZN3hal7stm32f113configure_pinENS0_10pin_selectENS0_12pin_config_tE+0x1a4>)
 8001fc0:	4c58      	ldr	r4, [pc, #352]	@ (8002124 <_ZN3hal7stm32f113configure_pinENS0_10pin_selectENS0_12pin_config_tE+0x1a8>)
 8001fc2:	699d      	ldr	r5, [r3, #24]
 8001fc4:	f854 0021 	ldr.w	r0, [r4, r1, lsl #2]
 8001fc8:	07ed      	lsls	r5, r5, #31
 8001fca:	f100 0004 	add.w	r0, r0, #4
 8001fce:	d4eb      	bmi.n	8001fa8 <_ZN3hal7stm32f113configure_pinENS0_10pin_selectENS0_12pin_config_tE+0x2c>
 8001fd0:	699d      	ldr	r5, [r3, #24]
 8001fd2:	07ed      	lsls	r5, r5, #31
 8001fd4:	f100 808f 	bmi.w	80020f6 <_ZN3hal7stm32f113configure_pinENS0_10pin_selectENS0_12pin_config_tE+0x17a>
 8001fd8:	699d      	ldr	r5, [r3, #24]
 8001fda:	f045 0501 	orr.w	r5, r5, #1
 8001fde:	619d      	str	r5, [r3, #24]
 8001fe0:	e7e2      	b.n	8001fa8 <_ZN3hal7stm32f113configure_pinENS0_10pin_selectENS0_12pin_config_tE+0x2c>
 8001fe2:	4b4f      	ldr	r3, [pc, #316]	@ (8002120 <_ZN3hal7stm32f113configure_pinENS0_10pin_selectENS0_12pin_config_tE+0x1a4>)
 8001fe4:	699d      	ldr	r5, [r3, #24]
 8001fe6:	066d      	lsls	r5, r5, #25
 8001fe8:	d561      	bpl.n	80020ae <_ZN3hal7stm32f113configure_pinENS0_10pin_selectENS0_12pin_config_tE+0x132>
 8001fea:	2a07      	cmp	r2, #7
 8001fec:	d97d      	bls.n	80020ea <_ZN3hal7stm32f113configure_pinENS0_10pin_selectENS0_12pin_config_tE+0x16e>
 8001fee:	f5a3 4378 	sub.w	r3, r3, #63488	@ 0xf800
 8001ff2:	e022      	b.n	800203a <_ZN3hal7stm32f113configure_pinENS0_10pin_selectENS0_12pin_config_tE+0xbe>
 8001ff4:	4b4a      	ldr	r3, [pc, #296]	@ (8002120 <_ZN3hal7stm32f113configure_pinENS0_10pin_selectENS0_12pin_config_tE+0x1a4>)
 8001ff6:	699d      	ldr	r5, [r3, #24]
 8001ff8:	06ad      	lsls	r5, r5, #26
 8001ffa:	d568      	bpl.n	80020ce <_ZN3hal7stm32f113configure_pinENS0_10pin_selectENS0_12pin_config_tE+0x152>
 8001ffc:	2a07      	cmp	r2, #7
 8001ffe:	d970      	bls.n	80020e2 <_ZN3hal7stm32f113configure_pinENS0_10pin_selectENS0_12pin_config_tE+0x166>
 8002000:	f5a3 437c 	sub.w	r3, r3, #64512	@ 0xfc00
 8002004:	e019      	b.n	800203a <_ZN3hal7stm32f113configure_pinENS0_10pin_selectENS0_12pin_config_tE+0xbe>
 8002006:	4b46      	ldr	r3, [pc, #280]	@ (8002120 <_ZN3hal7stm32f113configure_pinENS0_10pin_selectENS0_12pin_config_tE+0x1a4>)
 8002008:	699d      	ldr	r5, [r3, #24]
 800200a:	06ed      	lsls	r5, r5, #27
 800200c:	d557      	bpl.n	80020be <_ZN3hal7stm32f113configure_pinENS0_10pin_selectENS0_12pin_config_tE+0x142>
 800200e:	2a07      	cmp	r2, #7
 8002010:	d965      	bls.n	80020de <_ZN3hal7stm32f113configure_pinENS0_10pin_selectENS0_12pin_config_tE+0x162>
 8002012:	f5a3 3380 	sub.w	r3, r3, #65536	@ 0x10000
 8002016:	e010      	b.n	800203a <_ZN3hal7stm32f113configure_pinENS0_10pin_selectENS0_12pin_config_tE+0xbe>
 8002018:	4b41      	ldr	r3, [pc, #260]	@ (8002120 <_ZN3hal7stm32f113configure_pinENS0_10pin_selectENS0_12pin_config_tE+0x1a4>)
 800201a:	699d      	ldr	r5, [r3, #24]
 800201c:	072d      	lsls	r5, r5, #28
 800201e:	d53e      	bpl.n	800209e <_ZN3hal7stm32f113configure_pinENS0_10pin_selectENS0_12pin_config_tE+0x122>
 8002020:	2a07      	cmp	r2, #7
 8002022:	d964      	bls.n	80020ee <_ZN3hal7stm32f113configure_pinENS0_10pin_selectENS0_12pin_config_tE+0x172>
 8002024:	f5a3 3382 	sub.w	r3, r3, #66560	@ 0x10400
 8002028:	e007      	b.n	800203a <_ZN3hal7stm32f113configure_pinENS0_10pin_selectENS0_12pin_config_tE+0xbe>
 800202a:	4b3d      	ldr	r3, [pc, #244]	@ (8002120 <_ZN3hal7stm32f113configure_pinENS0_10pin_selectENS0_12pin_config_tE+0x1a4>)
 800202c:	699d      	ldr	r5, [r3, #24]
 800202e:	076d      	lsls	r5, r5, #29
 8002030:	d529      	bpl.n	8002086 <_ZN3hal7stm32f113configure_pinENS0_10pin_selectENS0_12pin_config_tE+0x10a>
 8002032:	2a07      	cmp	r2, #7
 8002034:	d957      	bls.n	80020e6 <_ZN3hal7stm32f113configure_pinENS0_10pin_selectENS0_12pin_config_tE+0x16a>
 8002036:	f5a3 3384 	sub.w	r3, r3, #67584	@ 0x10800
 800203a:	3304      	adds	r3, #4
 800203c:	681b      	ldr	r3, [r3, #0]
 800203e:	0092      	lsls	r2, r2, #2
 8002040:	f002 021c 	and.w	r2, r2, #28
 8002044:	40d3      	lsrs	r3, r2
 8002046:	f003 030f 	and.w	r3, r3, #15
 800204a:	2b04      	cmp	r3, #4
 800204c:	d151      	bne.n	80020f2 <_ZN3hal7stm32f113configure_pinENS0_10pin_selectENS0_12pin_config_tE+0x176>
 800204e:	f04f 0c0f 	mov.w	ip, #15
 8002052:	f89d 3001 	ldrb.w	r3, [sp, #1]
 8002056:	f89d 1000 	ldrb.w	r1, [sp]
 800205a:	009b      	lsls	r3, r3, #2
 800205c:	00c9      	lsls	r1, r1, #3
 800205e:	f001 0108 	and.w	r1, r1, #8
 8002062:	f003 0304 	and.w	r3, r3, #4
 8002066:	430b      	orrs	r3, r1
 8002068:	f89d 1002 	ldrb.w	r1, [sp, #2]
 800206c:	6804      	ldr	r4, [r0, #0]
 800206e:	f001 0103 	and.w	r1, r1, #3
 8002072:	430b      	orrs	r3, r1
 8002074:	4093      	lsls	r3, r2
 8002076:	4063      	eors	r3, r4
 8002078:	fa0c f202 	lsl.w	r2, ip, r2
 800207c:	4013      	ands	r3, r2
 800207e:	4063      	eors	r3, r4
 8002080:	6003      	str	r3, [r0, #0]
 8002082:	b003      	add	sp, #12
 8002084:	bd30      	pop	{r4, r5, pc}
 8002086:	699d      	ldr	r5, [r3, #24]
 8002088:	076d      	lsls	r5, r5, #29
 800208a:	d434      	bmi.n	80020f6 <_ZN3hal7stm32f113configure_pinENS0_10pin_selectENS0_12pin_config_tE+0x17a>
 800208c:	699d      	ldr	r5, [r3, #24]
 800208e:	f045 0504 	orr.w	r5, r5, #4
 8002092:	619d      	str	r5, [r3, #24]
 8002094:	2a07      	cmp	r2, #7
 8002096:	f854 3021 	ldr.w	r3, [r4, r1, lsl #2]
 800209a:	d8ce      	bhi.n	800203a <_ZN3hal7stm32f113configure_pinENS0_10pin_selectENS0_12pin_config_tE+0xbe>
 800209c:	e7ce      	b.n	800203c <_ZN3hal7stm32f113configure_pinENS0_10pin_selectENS0_12pin_config_tE+0xc0>
 800209e:	699d      	ldr	r5, [r3, #24]
 80020a0:	072d      	lsls	r5, r5, #28
 80020a2:	d428      	bmi.n	80020f6 <_ZN3hal7stm32f113configure_pinENS0_10pin_selectENS0_12pin_config_tE+0x17a>
 80020a4:	699d      	ldr	r5, [r3, #24]
 80020a6:	f045 0508 	orr.w	r5, r5, #8
 80020aa:	619d      	str	r5, [r3, #24]
 80020ac:	e7f2      	b.n	8002094 <_ZN3hal7stm32f113configure_pinENS0_10pin_selectENS0_12pin_config_tE+0x118>
 80020ae:	699d      	ldr	r5, [r3, #24]
 80020b0:	066d      	lsls	r5, r5, #25
 80020b2:	d420      	bmi.n	80020f6 <_ZN3hal7stm32f113configure_pinENS0_10pin_selectENS0_12pin_config_tE+0x17a>
 80020b4:	699d      	ldr	r5, [r3, #24]
 80020b6:	f045 0540 	orr.w	r5, r5, #64	@ 0x40
 80020ba:	619d      	str	r5, [r3, #24]
 80020bc:	e7ea      	b.n	8002094 <_ZN3hal7stm32f113configure_pinENS0_10pin_selectENS0_12pin_config_tE+0x118>
 80020be:	699d      	ldr	r5, [r3, #24]
 80020c0:	06ed      	lsls	r5, r5, #27
 80020c2:	d418      	bmi.n	80020f6 <_ZN3hal7stm32f113configure_pinENS0_10pin_selectENS0_12pin_config_tE+0x17a>
 80020c4:	699d      	ldr	r5, [r3, #24]
 80020c6:	f045 0510 	orr.w	r5, r5, #16
 80020ca:	619d      	str	r5, [r3, #24]
 80020cc:	e7e2      	b.n	8002094 <_ZN3hal7stm32f113configure_pinENS0_10pin_selectENS0_12pin_config_tE+0x118>
 80020ce:	699d      	ldr	r5, [r3, #24]
 80020d0:	06ad      	lsls	r5, r5, #26
 80020d2:	d410      	bmi.n	80020f6 <_ZN3hal7stm32f113configure_pinENS0_10pin_selectENS0_12pin_config_tE+0x17a>
 80020d4:	699d      	ldr	r5, [r3, #24]
 80020d6:	f045 0520 	orr.w	r5, r5, #32
 80020da:	619d      	str	r5, [r3, #24]
 80020dc:	e7da      	b.n	8002094 <_ZN3hal7stm32f113configure_pinENS0_10pin_selectENS0_12pin_config_tE+0x118>
 80020de:	4b12      	ldr	r3, [pc, #72]	@ (8002128 <_ZN3hal7stm32f113configure_pinENS0_10pin_selectENS0_12pin_config_tE+0x1ac>)
 80020e0:	e7ac      	b.n	800203c <_ZN3hal7stm32f113configure_pinENS0_10pin_selectENS0_12pin_config_tE+0xc0>
 80020e2:	4b12      	ldr	r3, [pc, #72]	@ (800212c <_ZN3hal7stm32f113configure_pinENS0_10pin_selectENS0_12pin_config_tE+0x1b0>)
 80020e4:	e7aa      	b.n	800203c <_ZN3hal7stm32f113configure_pinENS0_10pin_selectENS0_12pin_config_tE+0xc0>
 80020e6:	4b12      	ldr	r3, [pc, #72]	@ (8002130 <_ZN3hal7stm32f113configure_pinENS0_10pin_selectENS0_12pin_config_tE+0x1b4>)
 80020e8:	e7a8      	b.n	800203c <_ZN3hal7stm32f113configure_pinENS0_10pin_selectENS0_12pin_config_tE+0xc0>
 80020ea:	4b12      	ldr	r3, [pc, #72]	@ (8002134 <_ZN3hal7stm32f113configure_pinENS0_10pin_selectENS0_12pin_config_tE+0x1b8>)
 80020ec:	e7a6      	b.n	800203c <_ZN3hal7stm32f113configure_pinENS0_10pin_selectENS0_12pin_config_tE+0xc0>
 80020ee:	4b12      	ldr	r3, [pc, #72]	@ (8002138 <_ZN3hal7stm32f113configure_pinENS0_10pin_selectENS0_12pin_config_tE+0x1bc>)
 80020f0:	e7a4      	b.n	800203c <_ZN3hal7stm32f113configure_pinENS0_10pin_selectENS0_12pin_config_tE+0xc0>
 80020f2:	f7fd ffad 	bl	8000050 <_ZN3hal7stm32f127throw_if_pin_is_unavailableENS0_10pin_selectE.part.0>
 80020f6:	f7fd ffab 	bl	8000050 <_ZN3hal7stm32f127throw_if_pin_is_unavailableENS0_10pin_selectE.part.0>
 80020fa:	2018      	movs	r0, #24
 80020fc:	f000 fec8 	bl	8002e90 <__wrap___cxa_allocate_exception>
 8002100:	2421      	movs	r4, #33	@ 0x21
 8002102:	2200      	movs	r2, #0
 8002104:	490d      	ldr	r1, [pc, #52]	@ (800213c <_ZN3hal7stm32f113configure_pinENS0_10pin_selectENS0_12pin_config_tE+0x1c0>)
 8002106:	e9c0 2400 	strd	r2, r4, [r0]
 800210a:	e9c0 2202 	strd	r2, r2, [r0, #8]
 800210e:	e9c0 2204 	strd	r2, r2, [r0, #16]
 8002112:	f000 fe13 	bl	8002d3c <__wrap___cxa_throw>
 8002116:	2208      	movs	r2, #8
 8002118:	4809      	ldr	r0, [pc, #36]	@ (8002140 <_ZN3hal7stm32f113configure_pinENS0_10pin_selectENS0_12pin_config_tE+0x1c4>)
 800211a:	f7fe f80b 	bl	8000134 <_ZSt24__throw_out_of_range_fmtPKcz>
 800211e:	bf00      	nop
 8002120:	40021000 	.word	0x40021000
 8002124:	08007324 	.word	0x08007324
 8002128:	40011000 	.word	0x40011000
 800212c:	40011400 	.word	0x40011400
 8002130:	40010800 	.word	0x40010800
 8002134:	40011800 	.word	0x40011800
 8002138:	40010c00 	.word	0x40010c00
 800213c:	08007310 	.word	0x08007310
 8002140:	080078d4 	.word	0x080078d4

08002144 <_ZN3hal7stm32f112gpio_manager6output16driver_configureERKNS_10output_pin8settingsE>:
 8002144:	7943      	ldrb	r3, [r0, #5]
 8002146:	f890 c004 	ldrb.w	ip, [r0, #4]
 800214a:	2b07      	cmp	r3, #7
 800214c:	b570      	push	{r4, r5, r6, lr}
 800214e:	f1ac 0c41 	sub.w	ip, ip, #65	@ 0x41
 8002152:	d81c      	bhi.n	800218e <_ZN3hal7stm32f112gpio_manager6output16driver_configureERKNS_10output_pin8settingsE+0x4a>
 8002154:	f1bc 0f07 	cmp.w	ip, #7
 8002158:	d828      	bhi.n	80021ac <_ZN3hal7stm32f112gpio_manager6output16driver_configureERKNS_10output_pin8settingsE+0x68>
 800215a:	4a17      	ldr	r2, [pc, #92]	@ (80021b8 <_ZN3hal7stm32f112gpio_manager6output16driver_configureERKNS_10output_pin8settingsE+0x74>)
 800215c:	f852 402c 	ldr.w	r4, [r2, ip, lsl #2]
 8002160:	009b      	lsls	r3, r3, #2
 8002162:	f003 021c 	and.w	r2, r3, #28
 8002166:	2304      	movs	r3, #4
 8002168:	790e      	ldrb	r6, [r1, #4]
 800216a:	210f      	movs	r1, #15
 800216c:	6825      	ldr	r5, [r4, #0]
 800216e:	4093      	lsls	r3, r2
 8002170:	406b      	eors	r3, r5
 8002172:	fa01 f202 	lsl.w	r2, r1, r2
 8002176:	4013      	ands	r3, r2
 8002178:	406b      	eors	r3, r5
 800217a:	6023      	str	r3, [r4, #0]
 800217c:	6023      	str	r3, [r4, #0]
 800217e:	b176      	cbz	r6, 800219e <_ZN3hal7stm32f112gpio_manager6output16driver_configureERKNS_10output_pin8settingsE+0x5a>
 8002180:	e8bd 4070 	ldmia.w	sp!, {r4, r5, r6, lr}
 8002184:	4b0d      	ldr	r3, [pc, #52]	@ (80021bc <_ZN3hal7stm32f112gpio_manager6output16driver_configureERKNS_10output_pin8settingsE+0x78>)
 8002186:	6840      	ldr	r0, [r0, #4]
 8002188:	6819      	ldr	r1, [r3, #0]
 800218a:	f7ff bef7 	b.w	8001f7c <_ZN3hal7stm32f113configure_pinENS0_10pin_selectENS0_12pin_config_tE>
 800218e:	f1bc 0f07 	cmp.w	ip, #7
 8002192:	d80b      	bhi.n	80021ac <_ZN3hal7stm32f112gpio_manager6output16driver_configureERKNS_10output_pin8settingsE+0x68>
 8002194:	4a08      	ldr	r2, [pc, #32]	@ (80021b8 <_ZN3hal7stm32f112gpio_manager6output16driver_configureERKNS_10output_pin8settingsE+0x74>)
 8002196:	f852 402c 	ldr.w	r4, [r2, ip, lsl #2]
 800219a:	3404      	adds	r4, #4
 800219c:	e7e0      	b.n	8002160 <_ZN3hal7stm32f112gpio_manager6output16driver_configureERKNS_10output_pin8settingsE+0x1c>
 800219e:	4b08      	ldr	r3, [pc, #32]	@ (80021c0 <_ZN3hal7stm32f112gpio_manager6output16driver_configureERKNS_10output_pin8settingsE+0x7c>)
 80021a0:	6840      	ldr	r0, [r0, #4]
 80021a2:	6819      	ldr	r1, [r3, #0]
 80021a4:	e8bd 4070 	ldmia.w	sp!, {r4, r5, r6, lr}
 80021a8:	f7ff bee8 	b.w	8001f7c <_ZN3hal7stm32f113configure_pinENS0_10pin_selectENS0_12pin_config_tE>
 80021ac:	2208      	movs	r2, #8
 80021ae:	4661      	mov	r1, ip
 80021b0:	4804      	ldr	r0, [pc, #16]	@ (80021c4 <_ZN3hal7stm32f112gpio_manager6output16driver_configureERKNS_10output_pin8settingsE+0x80>)
 80021b2:	f7fd ffbf 	bl	8000134 <_ZSt24__throw_out_of_range_fmtPKcz>
 80021b6:	bf00      	nop
 80021b8:	08007324 	.word	0x08007324
 80021bc:	0800731c 	.word	0x0800731c
 80021c0:	08007320 	.word	0x08007320
 80021c4:	080078d4 	.word	0x080078d4

080021c8 <_ZN3hal7stm32f14uartD1Ev>:
 80021c8:	b538      	push	{r3, r4, r5, lr}
 80021ca:	7d03      	ldrb	r3, [r0, #20]
 80021cc:	4a21      	ldr	r2, [pc, #132]	@ (8002254 <_ZN3hal7stm32f14uartD1Ev+0x8c>)
 80021ce:	7cc1      	ldrb	r1, [r0, #19]
 80021d0:	2b07      	cmp	r3, #7
 80021d2:	6002      	str	r2, [r0, #0]
 80021d4:	f1a1 0141 	sub.w	r1, r1, #65	@ 0x41
 80021d8:	d82b      	bhi.n	8002232 <_ZN3hal7stm32f14uartD1Ev+0x6a>
 80021da:	2907      	cmp	r1, #7
 80021dc:	d836      	bhi.n	800224c <_ZN3hal7stm32f14uartD1Ev+0x84>
 80021de:	4c1e      	ldr	r4, [pc, #120]	@ (8002258 <_ZN3hal7stm32f14uartD1Ev+0x90>)
 80021e0:	f854 1021 	ldr.w	r1, [r4, r1, lsl #2]
 80021e4:	009b      	lsls	r3, r3, #2
 80021e6:	f003 021c 	and.w	r2, r3, #28
 80021ea:	2304      	movs	r3, #4
 80021ec:	f04f 0c0f 	mov.w	ip, #15
 80021f0:	680d      	ldr	r5, [r1, #0]
 80021f2:	4093      	lsls	r3, r2
 80021f4:	406b      	eors	r3, r5
 80021f6:	fa0c f202 	lsl.w	r2, ip, r2
 80021fa:	4013      	ands	r3, r2
 80021fc:	406b      	eors	r3, r5
 80021fe:	600b      	str	r3, [r1, #0]
 8002200:	600b      	str	r3, [r1, #0]
 8002202:	7d82      	ldrb	r2, [r0, #22]
 8002204:	7d41      	ldrb	r1, [r0, #21]
 8002206:	2a07      	cmp	r2, #7
 8002208:	f1a1 0141 	sub.w	r1, r1, #65	@ 0x41
 800220c:	d818      	bhi.n	8002240 <_ZN3hal7stm32f14uartD1Ev+0x78>
 800220e:	2907      	cmp	r1, #7
 8002210:	d81c      	bhi.n	800224c <_ZN3hal7stm32f14uartD1Ev+0x84>
 8002212:	f854 1021 	ldr.w	r1, [r4, r1, lsl #2]
 8002216:	2304      	movs	r3, #4
 8002218:	240f      	movs	r4, #15
 800221a:	0092      	lsls	r2, r2, #2
 800221c:	680d      	ldr	r5, [r1, #0]
 800221e:	f002 021c 	and.w	r2, r2, #28
 8002222:	4093      	lsls	r3, r2
 8002224:	4094      	lsls	r4, r2
 8002226:	406b      	eors	r3, r5
 8002228:	4023      	ands	r3, r4
 800222a:	406b      	eors	r3, r5
 800222c:	600b      	str	r3, [r1, #0]
 800222e:	600b      	str	r3, [r1, #0]
 8002230:	bd38      	pop	{r3, r4, r5, pc}
 8002232:	2907      	cmp	r1, #7
 8002234:	d80a      	bhi.n	800224c <_ZN3hal7stm32f14uartD1Ev+0x84>
 8002236:	4c08      	ldr	r4, [pc, #32]	@ (8002258 <_ZN3hal7stm32f14uartD1Ev+0x90>)
 8002238:	f854 1021 	ldr.w	r1, [r4, r1, lsl #2]
 800223c:	3104      	adds	r1, #4
 800223e:	e7d1      	b.n	80021e4 <_ZN3hal7stm32f14uartD1Ev+0x1c>
 8002240:	2907      	cmp	r1, #7
 8002242:	d803      	bhi.n	800224c <_ZN3hal7stm32f14uartD1Ev+0x84>
 8002244:	f854 1021 	ldr.w	r1, [r4, r1, lsl #2]
 8002248:	3104      	adds	r1, #4
 800224a:	e7e4      	b.n	8002216 <_ZN3hal7stm32f14uartD1Ev+0x4e>
 800224c:	2208      	movs	r2, #8
 800224e:	4803      	ldr	r0, [pc, #12]	@ (800225c <_ZN3hal7stm32f14uartD1Ev+0x94>)
 8002250:	f7fd ff70 	bl	8000134 <_ZSt24__throw_out_of_range_fmtPKcz>
 8002254:	08007388 	.word	0x08007388
 8002258:	08007324 	.word	0x08007324
 800225c:	080078d4 	.word	0x080078d4

08002260 <_ZN3hal7stm32f14uartD0Ev>:
 8002260:	b570      	push	{r4, r5, r6, lr}
 8002262:	7d03      	ldrb	r3, [r0, #20]
 8002264:	4a25      	ldr	r2, [pc, #148]	@ (80022fc <_ZN3hal7stm32f14uartD0Ev+0x9c>)
 8002266:	7cc1      	ldrb	r1, [r0, #19]
 8002268:	2b07      	cmp	r3, #7
 800226a:	4604      	mov	r4, r0
 800226c:	6002      	str	r2, [r0, #0]
 800226e:	f1a1 0141 	sub.w	r1, r1, #65	@ 0x41
 8002272:	d831      	bhi.n	80022d8 <_ZN3hal7stm32f14uartD0Ev+0x78>
 8002274:	2907      	cmp	r1, #7
 8002276:	d83c      	bhi.n	80022f2 <_ZN3hal7stm32f14uartD0Ev+0x92>
 8002278:	4821      	ldr	r0, [pc, #132]	@ (8002300 <_ZN3hal7stm32f14uartD0Ev+0xa0>)
 800227a:	f850 1021 	ldr.w	r1, [r0, r1, lsl #2]
 800227e:	009b      	lsls	r3, r3, #2
 8002280:	f003 021c 	and.w	r2, r3, #28
 8002284:	2304      	movs	r3, #4
 8002286:	250f      	movs	r5, #15
 8002288:	680e      	ldr	r6, [r1, #0]
 800228a:	4093      	lsls	r3, r2
 800228c:	4073      	eors	r3, r6
 800228e:	fa05 f202 	lsl.w	r2, r5, r2
 8002292:	4013      	ands	r3, r2
 8002294:	4073      	eors	r3, r6
 8002296:	600b      	str	r3, [r1, #0]
 8002298:	600b      	str	r3, [r1, #0]
 800229a:	7da2      	ldrb	r2, [r4, #22]
 800229c:	7d61      	ldrb	r1, [r4, #21]
 800229e:	2a07      	cmp	r2, #7
 80022a0:	f1a1 0141 	sub.w	r1, r1, #65	@ 0x41
 80022a4:	d81f      	bhi.n	80022e6 <_ZN3hal7stm32f14uartD0Ev+0x86>
 80022a6:	2907      	cmp	r1, #7
 80022a8:	d823      	bhi.n	80022f2 <_ZN3hal7stm32f14uartD0Ev+0x92>
 80022aa:	f850 5021 	ldr.w	r5, [r0, r1, lsl #2]
 80022ae:	2304      	movs	r3, #4
 80022b0:	f04f 0c0f 	mov.w	ip, #15
 80022b4:	0092      	lsls	r2, r2, #2
 80022b6:	682e      	ldr	r6, [r5, #0]
 80022b8:	f002 021c 	and.w	r2, r2, #28
 80022bc:	4093      	lsls	r3, r2
 80022be:	4073      	eors	r3, r6
 80022c0:	fa0c f202 	lsl.w	r2, ip, r2
 80022c4:	4013      	ands	r3, r2
 80022c6:	4073      	eors	r3, r6
 80022c8:	4620      	mov	r0, r4
 80022ca:	602b      	str	r3, [r5, #0]
 80022cc:	2118      	movs	r1, #24
 80022ce:	602b      	str	r3, [r5, #0]
 80022d0:	f000 ff96 	bl	8003200 <_ZdlPvj>
 80022d4:	4620      	mov	r0, r4
 80022d6:	bd70      	pop	{r4, r5, r6, pc}
 80022d8:	2907      	cmp	r1, #7
 80022da:	d80a      	bhi.n	80022f2 <_ZN3hal7stm32f14uartD0Ev+0x92>
 80022dc:	4808      	ldr	r0, [pc, #32]	@ (8002300 <_ZN3hal7stm32f14uartD0Ev+0xa0>)
 80022de:	f850 1021 	ldr.w	r1, [r0, r1, lsl #2]
 80022e2:	3104      	adds	r1, #4
 80022e4:	e7cb      	b.n	800227e <_ZN3hal7stm32f14uartD0Ev+0x1e>
 80022e6:	2907      	cmp	r1, #7
 80022e8:	d803      	bhi.n	80022f2 <_ZN3hal7stm32f14uartD0Ev+0x92>
 80022ea:	f850 5021 	ldr.w	r5, [r0, r1, lsl #2]
 80022ee:	3504      	adds	r5, #4
 80022f0:	e7dd      	b.n	80022ae <_ZN3hal7stm32f14uartD0Ev+0x4e>
 80022f2:	2208      	movs	r2, #8
 80022f4:	4803      	ldr	r0, [pc, #12]	@ (8002304 <_ZN3hal7stm32f14uartD0Ev+0xa4>)
 80022f6:	f7fd ff1d 	bl	8000134 <_ZSt24__throw_out_of_range_fmtPKcz>
 80022fa:	bf00      	nop
 80022fc:	08007388 	.word	0x08007388
 8002300:	08007324 	.word	0x08007324
 8002304:	080078d4 	.word	0x080078d4

08002308 <_ZN3hal7stm32f14uart16driver_configureERKNS_6serial8settingsE>:
 8002308:	b5f8      	push	{r3, r4, r5, r6, r7, lr}
 800230a:	7dc2      	ldrb	r2, [r0, #23]
 800230c:	460e      	mov	r6, r1
 800230e:	1f13      	subs	r3, r2, #4
 8002310:	6845      	ldr	r5, [r0, #4]
 8002312:	2b5e      	cmp	r3, #94	@ 0x5e
 8002314:	d831      	bhi.n	800237a <_ZN3hal7stm32f14uart16driver_configureERKNS_6serial8settingsE+0x72>
 8002316:	e8df f003 	tbb	[pc, r3]
 800231a:	3097      	.short	0x3097
 800231c:	30303030 	.word	0x30303030
 8002320:	30303030 	.word	0x30303030
 8002324:	30303030 	.word	0x30303030
 8002328:	30303030 	.word	0x30303030
 800232c:	30303030 	.word	0x30303030
 8002330:	30303030 	.word	0x30303030
 8002334:	3b3b3030 	.word	0x3b3b3030
 8002338:	3b3b3b3b 	.word	0x3b3b3b3b
 800233c:	303b3b3b 	.word	0x303b3b3b
 8002340:	30303030 	.word	0x30303030
 8002344:	30303030 	.word	0x30303030
 8002348:	30303030 	.word	0x30303030
 800234c:	30309130 	.word	0x30309130
 8002350:	30303030 	.word	0x30303030
 8002354:	30303030 	.word	0x30303030
 8002358:	30303030 	.word	0x30303030
 800235c:	88303030 	.word	0x88303030
 8002360:	85308588 	.word	0x85308588
 8002364:	30308830 	.word	0x30308830
 8002368:	85858530 	.word	0x85858530
 800236c:	30303030 	.word	0x30303030
 8002370:	30303030 	.word	0x30303030
 8002374:	8b8b3030 	.word	0x8b8b3030
 8002378:	8e          	.byte	0x8e
 8002379:	00          	.byte	0x00
 800237a:	2a1f      	cmp	r2, #31
 800237c:	d958      	bls.n	8002430 <_ZN3hal7stm32f14uart16driver_configureERKNS_6serial8settingsE+0x128>
 800237e:	f1a2 0320 	sub.w	r3, r2, #32
 8002382:	2b1f      	cmp	r3, #31
 8002384:	d962      	bls.n	800244c <_ZN3hal7stm32f14uart16driver_configureERKNS_6serial8settingsE+0x144>
 8002386:	3a40      	subs	r2, #64	@ 0x40
 8002388:	2a1f      	cmp	r2, #31
 800238a:	d95a      	bls.n	8002442 <_ZN3hal7stm32f14uart16driver_configureERKNS_6serial8settingsE+0x13a>
 800238c:	2400      	movs	r4, #0
 800238e:	e001      	b.n	8002394 <_ZN3hal7stm32f14uart16driver_configureERKNS_6serial8settingsE+0x8c>
 8002390:	4b30      	ldr	r3, [pc, #192]	@ (8002454 <_ZN3hal7stm32f14uart16driver_configureERKNS_6serial8settingsE+0x14c>)
 8002392:	681c      	ldr	r4, [r3, #0]
 8002394:	f04f 4183 	mov.w	r1, #1098907648	@ 0x41800000
 8002398:	6830      	ldr	r0, [r6, #0]
 800239a:	f002 fbfd 	bl	8004b98 <__aeabi_fmul>
 800239e:	4601      	mov	r1, r0
 80023a0:	4620      	mov	r0, r4
 80023a2:	f002 fcad 	bl	8004d00 <__aeabi_fdiv>
 80023a6:	4607      	mov	r7, r0
 80023a8:	f002 fbd6 	bl	8004b58 <__aeabi_f2uiz>
 80023ac:	b284      	uxth	r4, r0
 80023ae:	4620      	mov	r0, r4
 80023b0:	f002 fb7a 	bl	8004aa8 <__aeabi_ui2f>
 80023b4:	4601      	mov	r1, r0
 80023b6:	4638      	mov	r0, r7
 80023b8:	f002 fac4 	bl	8004944 <__aeabi_fsub>
 80023bc:	f04f 4183 	mov.w	r1, #1098907648	@ 0x41800000
 80023c0:	f002 fbea 	bl	8004b98 <__aeabi_fmul>
 80023c4:	f004 fa34 	bl	8006830 <roundf>
 80023c8:	f002 fbc6 	bl	8004b58 <__aeabi_f2uiz>
 80023cc:	b280      	uxth	r0, r0
 80023ce:	280f      	cmp	r0, #15
 80023d0:	d902      	bls.n	80023d8 <_ZN3hal7stm32f14uart16driver_configureERKNS_6serial8settingsE+0xd0>
 80023d2:	2000      	movs	r0, #0
 80023d4:	3401      	adds	r4, #1
 80023d6:	b2a4      	uxth	r4, r4
 80023d8:	0124      	lsls	r4, r4, #4
 80023da:	b2a4      	uxth	r4, r4
 80023dc:	4304      	orrs	r4, r0
 80023de:	60ac      	str	r4, [r5, #8]
 80023e0:	7972      	ldrb	r2, [r6, #5]
 80023e2:	7931      	ldrb	r1, [r6, #4]
 80023e4:	1e10      	subs	r0, r2, #0
 80023e6:	bf18      	it	ne
 80023e8:	2001      	movne	r0, #1
 80023ea:	f1a2 0201 	sub.w	r2, r2, #1
 80023ee:	fab2 f282 	clz	r2, r2
 80023f2:	f1a1 0101 	sub.w	r1, r1, #1
 80023f6:	fab1 f181 	clz	r1, r1
 80023fa:	68eb      	ldr	r3, [r5, #12]
 80023fc:	0952      	lsrs	r2, r2, #5
 80023fe:	f423 6380 	bic.w	r3, r3, #1024	@ 0x400
 8002402:	ea43 2380 	orr.w	r3, r3, r0, lsl #10
 8002406:	f423 7300 	bic.w	r3, r3, #512	@ 0x200
 800240a:	ea43 2342 	orr.w	r3, r3, r2, lsl #9
 800240e:	f423 5380 	bic.w	r3, r3, #4096	@ 0x1000
 8002412:	60eb      	str	r3, [r5, #12]
 8002414:	692b      	ldr	r3, [r5, #16]
 8002416:	0949      	lsrs	r1, r1, #5
 8002418:	f423 5340 	bic.w	r3, r3, #12288	@ 0x3000
 800241c:	ea43 3341 	orr.w	r3, r3, r1, lsl #13
 8002420:	612b      	str	r3, [r5, #16]
 8002422:	bdf8      	pop	{r3, r4, r5, r6, r7, pc}
 8002424:	4b0c      	ldr	r3, [pc, #48]	@ (8002458 <_ZN3hal7stm32f14uart16driver_configureERKNS_6serial8settingsE+0x150>)
 8002426:	681c      	ldr	r4, [r3, #0]
 8002428:	e7b4      	b.n	8002394 <_ZN3hal7stm32f14uart16driver_configureERKNS_6serial8settingsE+0x8c>
 800242a:	4b0c      	ldr	r3, [pc, #48]	@ (800245c <_ZN3hal7stm32f14uart16driver_configureERKNS_6serial8settingsE+0x154>)
 800242c:	681c      	ldr	r4, [r3, #0]
 800242e:	e7b1      	b.n	8002394 <_ZN3hal7stm32f14uart16driver_configureERKNS_6serial8settingsE+0x8c>
 8002430:	4b0b      	ldr	r3, [pc, #44]	@ (8002460 <_ZN3hal7stm32f14uart16driver_configureERKNS_6serial8settingsE+0x158>)
 8002432:	681c      	ldr	r4, [r3, #0]
 8002434:	e7ae      	b.n	8002394 <_ZN3hal7stm32f14uart16driver_configureERKNS_6serial8settingsE+0x8c>
 8002436:	4b0b      	ldr	r3, [pc, #44]	@ (8002464 <_ZN3hal7stm32f14uart16driver_configureERKNS_6serial8settingsE+0x15c>)
 8002438:	681c      	ldr	r4, [r3, #0]
 800243a:	e7ab      	b.n	8002394 <_ZN3hal7stm32f14uart16driver_configureERKNS_6serial8settingsE+0x8c>
 800243c:	4b0a      	ldr	r3, [pc, #40]	@ (8002468 <_ZN3hal7stm32f14uart16driver_configureERKNS_6serial8settingsE+0x160>)
 800243e:	681c      	ldr	r4, [r3, #0]
 8002440:	e7a8      	b.n	8002394 <_ZN3hal7stm32f14uart16driver_configureERKNS_6serial8settingsE+0x8c>
 8002442:	4b0a      	ldr	r3, [pc, #40]	@ (800246c <_ZN3hal7stm32f14uart16driver_configureERKNS_6serial8settingsE+0x164>)
 8002444:	681c      	ldr	r4, [r3, #0]
 8002446:	e7a5      	b.n	8002394 <_ZN3hal7stm32f14uart16driver_configureERKNS_6serial8settingsE+0x8c>
 8002448:	4c09      	ldr	r4, [pc, #36]	@ (8002470 <_ZN3hal7stm32f14uart16driver_configureERKNS_6serial8settingsE+0x168>)
 800244a:	e7a3      	b.n	8002394 <_ZN3hal7stm32f14uart16driver_configureERKNS_6serial8settingsE+0x8c>
 800244c:	4b09      	ldr	r3, [pc, #36]	@ (8002474 <_ZN3hal7stm32f14uart16driver_configureERKNS_6serial8settingsE+0x16c>)
 800244e:	681c      	ldr	r4, [r3, #0]
 8002450:	e7a0      	b.n	8002394 <_ZN3hal7stm32f14uart16driver_configureERKNS_6serial8settingsE+0x8c>
 8002452:	bf00      	nop
 8002454:	20000018 	.word	0x20000018
 8002458:	20000014 	.word	0x20000014
 800245c:	20000010 	.word	0x20000010
 8002460:	2000001c 	.word	0x2000001c
 8002464:	200000c8 	.word	0x200000c8
 8002468:	200000c4 	.word	0x200000c4
 800246c:	20000008 	.word	0x20000008
 8002470:	4af42400 	.word	0x4af42400
 8002474:	2000000c 	.word	0x2000000c

08002478 <_ZN2ke16capture_cpu_coreERNS_12cortex_m_cpuE>:
 8002478:	f100 0010 	add.w	r0, r0, #16
 800247c:	e8a0 1ff0 	stmia.w	r0!, {r4, r5, r6, r7, r8, r9, sl, fp, ip}
 8002480:	f8c0 d000 	str.w	sp, [r0]
 8002484:	f8c0 e008 	str.w	lr, [r0, #8]
 8002488:	4770      	bx	lr
 800248a:	bf00      	nop

0800248c <_ZN2ke16restore_cpu_coreERNS_12cortex_m_cpuE>:
 800248c:	4602      	mov	r2, r0
 800248e:	e892 0003 	ldmia.w	r2, {r0, r1}
 8002492:	f102 0210 	add.w	r2, r2, #16
 8002496:	e8b2 1ff0 	ldmia.w	r2!, {r4, r5, r6, r7, r8, r9, sl, fp, ip}
 800249a:	f8d2 d000 	ldr.w	sp, [r2]
 800249e:	f8d2 e004 	ldr.w	lr, [r2, #4]
 80024a2:	f8d2 f008 	ldr.w	pc, [r2, #8]
 80024a6:	bf00      	nop

080024a8 <_ZN2ke15raise_exceptionERNS_23exception_control_blockE>:
 80024a8:	e92d 4ff0 	stmdb	sp!, {r4, r5, r6, r7, r8, r9, sl, fp, lr}
 80024ac:	4b88      	ldr	r3, [pc, #544]	@ (80026d0 <_ZN2ke15raise_exceptionERNS_23exception_control_blockE+0x228>)
 80024ae:	f8df a224 	ldr.w	sl, [pc, #548]	@ 80026d4 <_ZN2ke15raise_exceptionERNS_23exception_control_blockE+0x22c>
 80024b2:	4606      	mov	r6, r0
 80024b4:	eba3 030a 	sub.w	r3, r3, sl
 80024b8:	ea4f 09e3 	mov.w	r9, r3, asr #3
 80024bc:	f890 309c 	ldrb.w	r3, [r0, #156]	@ 0x9c
 80024c0:	b089      	sub	sp, #36	@ 0x24
 80024c2:	2b01      	cmp	r3, #1
 80024c4:	d038      	beq.n	8002538 <_ZN2ke15raise_exceptionERNS_23exception_control_blockE+0x90>
 80024c6:	2b00      	cmp	r3, #0
 80024c8:	f000 83ff 	beq.w	8002cca <_ZN2ke15raise_exceptionERNS_23exception_control_blockE+0x822>
 80024cc:	2b02      	cmp	r3, #2
 80024ce:	f000 838e 	beq.w	8002bee <_ZN2ke15raise_exceptionERNS_23exception_control_blockE+0x746>
 80024d2:	2b03      	cmp	r3, #3
 80024d4:	d003      	beq.n	80024de <_ZN2ke15raise_exceptionERNS_23exception_control_blockE+0x36>
 80024d6:	e7fe      	b.n	80024d6 <_ZN2ke15raise_exceptionERNS_23exception_control_blockE+0x2e>
 80024d8:	2303      	movs	r3, #3
 80024da:	f886 309c 	strb.w	r3, [r6, #156]	@ 0x9c
 80024de:	f8d6 5090 	ldr.w	r5, [r6, #144]	@ 0x90
 80024e2:	686b      	ldr	r3, [r5, #4]
 80024e4:	2b00      	cmp	r3, #0
 80024e6:	db05      	blt.n	80024f4 <_ZN2ke15raise_exceptionERNS_23exception_control_blockE+0x4c>
 80024e8:	f8d6 5094 	ldr.w	r5, [r6, #148]	@ 0x94
 80024ec:	682b      	ldr	r3, [r5, #0]
 80024ee:	2b00      	cmp	r3, #0
 80024f0:	db01      	blt.n	80024f6 <_ZN2ke15raise_exceptionERNS_23exception_control_blockE+0x4e>
 80024f2:	686b      	ldr	r3, [r5, #4]
 80024f4:	3504      	adds	r5, #4
 80024f6:	f04f 30b0 	mov.w	r0, #2964369584	@ 0xb0b0b0b0
 80024fa:	f24b 01b0 	movw	r1, #45232	@ 0xb0b0
 80024fe:	22b0      	movs	r2, #176	@ 0xb0
 8002500:	f013 6f70 	tst.w	r3, #251658240	@ 0xf000000
 8002504:	ea4f 4c13 	mov.w	ip, r3, lsr #16
 8002508:	f3c3 2707 	ubfx	r7, r3, #8, #8
 800250c:	b2dc      	uxtb	r4, r3
 800250e:	f8cd 000d 	str.w	r0, [sp, #13]
 8002512:	f8ad 1011 	strh.w	r1, [sp, #17]
 8002516:	f88d 2013 	strb.w	r2, [sp, #19]
 800251a:	f040 833e 	bne.w	8002b9a <_ZN2ke15raise_exceptionERNS_23exception_control_blockE+0x6f2>
 800251e:	f88d c00c 	strb.w	ip, [sp, #12]
 8002522:	f88d 700d 	strb.w	r7, [sp, #13]
 8002526:	f88d 400e 	strb.w	r4, [sp, #14]
 800252a:	4631      	mov	r1, r6
 800252c:	a803      	add	r0, sp, #12
 800252e:	f7fe fae1 	bl	8000af4 <_ZN2ke12unwind_frameERKNS_14instructions_tERNS_12cortex_m_cpuE>
 8002532:	2301      	movs	r3, #1
 8002534:	f886 309c 	strb.w	r3, [r6, #156]	@ 0x9c
 8002538:	464a      	mov	r2, r9
 800253a:	6bf5      	ldr	r5, [r6, #60]	@ 0x3c
 800253c:	4865      	ldr	r0, [pc, #404]	@ (80026d4 <_ZN2ke15raise_exceptionERNS_23exception_control_blockE+0x22c>)
 800253e:	e00f      	b.n	8002560 <_ZN2ke15raise_exceptionERNS_23exception_control_blockE+0xb8>
 8002540:	1051      	asrs	r1, r2, #1
 8002542:	f850 3031 	ldr.w	r3, [r0, r1, lsl #3]
 8002546:	eb00 04c1 	add.w	r4, r0, r1, lsl #3
 800254a:	f343 031e 	sbfx	r3, r3, #0, #31
 800254e:	4423      	add	r3, r4
 8002550:	429d      	cmp	r5, r3
 8002552:	bf31      	iteee	cc
 8002554:	460a      	movcc	r2, r1
 8002556:	1a52      	subcs	r2, r2, r1
 8002558:	f104 0008 	addcs.w	r0, r4, #8
 800255c:	f102 32ff 	addcs.w	r2, r2, #4294967295	@ 0xffffffff
 8002560:	2a00      	cmp	r2, #0
 8002562:	dced      	bgt.n	8002540 <_ZN2ke15raise_exceptionERNS_23exception_control_blockE+0x98>
 8002564:	4550      	cmp	r0, sl
 8002566:	bf18      	it	ne
 8002568:	3808      	subne	r0, #8
 800256a:	6843      	ldr	r3, [r0, #4]
 800256c:	f8c6 0090 	str.w	r0, [r6, #144]	@ 0x90
 8002570:	2b00      	cmp	r3, #0
 8002572:	dbb1      	blt.n	80024d8 <_ZN2ke15raise_exceptionERNS_23exception_control_blockE+0x30>
 8002574:	2b01      	cmp	r3, #1
 8002576:	f000 83a2 	beq.w	8002cbe <_ZN2ke15raise_exceptionERNS_23exception_control_blockE+0x816>
 800257a:	1d02      	adds	r2, r0, #4
 800257c:	f343 031e 	sbfx	r3, r3, #0, #31
 8002580:	58d1      	ldr	r1, [r2, r3]
 8002582:	4413      	add	r3, r2
 8002584:	f011 6f70 	tst.w	r1, #251658240	@ 0xf000000
 8002588:	bf0c      	ite	eq
 800258a:	1d1a      	addeq	r2, r3, #4
 800258c:	f103 0208 	addne.w	r2, r3, #8
 8002590:	6812      	ldr	r2, [r2, #0]
 8002592:	f8c6 3094 	str.w	r3, [r6, #148]	@ 0x94
 8002596:	2a00      	cmp	r2, #0
 8002598:	d09e      	beq.n	80024d8 <_ZN2ke15raise_exceptionERNS_23exception_control_blockE+0x30>
 800259a:	2102      	movs	r1, #2
 800259c:	6802      	ldr	r2, [r0, #0]
 800259e:	f886 109c 	strb.w	r1, [r6, #156]	@ 0x9c
 80025a2:	f342 021e 	sbfx	r2, r2, #0, #31
 80025a6:	4410      	add	r0, r2
 80025a8:	1a2d      	subs	r5, r5, r0
 80025aa:	f8c6 5098 	str.w	r5, [r6, #152]	@ 0x98
 80025ae:	685a      	ldr	r2, [r3, #4]
 80025b0:	f012 6f70 	tst.w	r2, #251658240	@ 0xf000000
 80025b4:	f000 8322 	beq.w	8002bfc <_ZN2ke15raise_exceptionERNS_23exception_control_blockE+0x754>
 80025b8:	f3c2 4207 	ubfx	r2, r2, #16, #8
 80025bc:	2a01      	cmp	r2, #1
 80025be:	f000 8322 	beq.w	8002c06 <_ZN2ke15raise_exceptionERNS_23exception_control_blockE+0x75e>
 80025c2:	2a02      	cmp	r2, #2
 80025c4:	f200 831f 	bhi.w	8002c06 <_ZN2ke15raise_exceptionERNS_23exception_control_blockE+0x75e>
 80025c8:	3310      	adds	r3, #16
 80025ca:	461a      	mov	r2, r3
 80025cc:	f812 1b01 	ldrb.w	r1, [r2], #1
 80025d0:	29ff      	cmp	r1, #255	@ 0xff
 80025d2:	d04f      	beq.n	8002674 <_ZN2ke15raise_exceptionERNS_23exception_control_blockE+0x1cc>
 80025d4:	f001 010f 	and.w	r1, r1, #15
 80025d8:	290c      	cmp	r1, #12
 80025da:	f200 8376 	bhi.w	8002cca <_ZN2ke15raise_exceptionERNS_23exception_control_blockE+0x822>
 80025de:	e8df f011 	tbh	[pc, r1, lsl #1]
 80025e2:	0048      	.short	0x0048
 80025e4:	026c000d 	.word	0x026c000d
 80025e8:	02690048 	.word	0x02690048
 80025ec:	03740374 	.word	0x03740374
 80025f0:	03740374 	.word	0x03740374
 80025f4:	026c0037 	.word	0x026c0037
 80025f8:	02690048 	.word	0x02690048
 80025fc:	f812 3b01 	ldrb.w	r3, [r2], #1
 8002600:	2b80      	cmp	r3, #128	@ 0x80
 8002602:	d137      	bne.n	8002674 <_ZN2ke15raise_exceptionERNS_23exception_control_blockE+0x1cc>
 8002604:	f812 3b01 	ldrb.w	r3, [r2], #1
 8002608:	2b80      	cmp	r3, #128	@ 0x80
 800260a:	d0f7      	beq.n	80025fc <_ZN2ke15raise_exceptionERNS_23exception_control_blockE+0x154>
 800260c:	e032      	b.n	8002674 <_ZN2ke15raise_exceptionERNS_23exception_control_blockE+0x1cc>
 800260e:	7893      	ldrb	r3, [r2, #2]
 8002610:	3201      	adds	r2, #1
 8002612:	2b80      	cmp	r3, #128	@ 0x80
 8002614:	4696      	mov	lr, r2
 8002616:	7814      	ldrb	r4, [r2, #0]
 8002618:	f102 0202 	add.w	r2, r2, #2
 800261c:	d049      	beq.n	80026b2 <_ZN2ke15raise_exceptionERNS_23exception_control_blockE+0x20a>
 800261e:	f003 037f 	and.w	r3, r3, #127	@ 0x7f
 8002622:	f8d6 7098 	ldr.w	r7, [r6, #152]	@ 0x98
 8002626:	1e61      	subs	r1, r4, #1
 8002628:	4413      	add	r3, r2
 800262a:	f027 0701 	bic.w	r7, r7, #1
 800262e:	290b      	cmp	r1, #11
 8002630:	f200 834b 	bhi.w	8002cca <_ZN2ke15raise_exceptionERNS_23exception_control_blockE+0x822>
 8002634:	e8df f011 	tbh	[pc, r1, lsl #1]
 8002638:	00500243 	.word	0x00500243
 800263c:	021f022e 	.word	0x021f022e
 8002640:	03490349 	.word	0x03490349
 8002644:	03490349 	.word	0x03490349
 8002648:	015801f1 	.word	0x015801f1
 800264c:	012f0148 	.word	0x012f0148
 8002650:	f993 2001 	ldrsb.w	r2, [r3, #1]
 8002654:	2a00      	cmp	r2, #0
 8002656:	bfa8      	it	ge
 8002658:	1c9a      	addge	r2, r3, #2
 800265a:	da0b      	bge.n	8002674 <_ZN2ke15raise_exceptionERNS_23exception_control_blockE+0x1cc>
 800265c:	f993 2002 	ldrsb.w	r2, [r3, #2]
 8002660:	2a00      	cmp	r2, #0
 8002662:	f280 822a 	bge.w	8002aba <_ZN2ke15raise_exceptionERNS_23exception_control_blockE+0x612>
 8002666:	f993 2003 	ldrsb.w	r2, [r3, #3]
 800266a:	2a00      	cmp	r2, #0
 800266c:	bfa8      	it	ge
 800266e:	1d1a      	addge	r2, r3, #4
 8002670:	da00      	bge.n	8002674 <_ZN2ke15raise_exceptionERNS_23exception_control_blockE+0x1cc>
 8002672:	1d5a      	adds	r2, r3, #5
 8002674:	7813      	ldrb	r3, [r2, #0]
 8002676:	2bff      	cmp	r3, #255	@ 0xff
 8002678:	d0c9      	beq.n	800260e <_ZN2ke15raise_exceptionERNS_23exception_control_blockE+0x166>
 800267a:	f892 e001 	ldrb.w	lr, [r2, #1]
 800267e:	3202      	adds	r2, #2
 8002680:	f1be 0f80 	cmp.w	lr, #128	@ 0x80
 8002684:	f040 8304 	bne.w	8002c90 <_ZN2ke15raise_exceptionERNS_23exception_control_blockE+0x7e8>
 8002688:	f04f 0e00 	mov.w	lr, #0
 800268c:	4673      	mov	r3, lr
 800268e:	f812 0b01 	ldrb.w	r0, [r2], #1
 8002692:	3307      	adds	r3, #7
 8002694:	b2db      	uxtb	r3, r3
 8002696:	f000 017f 	and.w	r1, r0, #127	@ 0x7f
 800269a:	4099      	lsls	r1, r3
 800269c:	2880      	cmp	r0, #128	@ 0x80
 800269e:	ea4e 0e01 	orr.w	lr, lr, r1
 80026a2:	d0f4      	beq.n	800268e <_ZN2ke15raise_exceptionERNS_23exception_control_blockE+0x1e6>
 80026a4:	7853      	ldrb	r3, [r2, #1]
 80026a6:	7814      	ldrb	r4, [r2, #0]
 80026a8:	2b80      	cmp	r3, #128	@ 0x80
 80026aa:	4496      	add	lr, r2
 80026ac:	f102 0202 	add.w	r2, r2, #2
 80026b0:	d1b5      	bne.n	800261e <_ZN2ke15raise_exceptionERNS_23exception_control_blockE+0x176>
 80026b2:	2300      	movs	r3, #0
 80026b4:	4619      	mov	r1, r3
 80026b6:	f812 5b01 	ldrb.w	r5, [r2], #1
 80026ba:	3107      	adds	r1, #7
 80026bc:	b2c9      	uxtb	r1, r1
 80026be:	f005 007f 	and.w	r0, r5, #127	@ 0x7f
 80026c2:	4088      	lsls	r0, r1
 80026c4:	2d80      	cmp	r5, #128	@ 0x80
 80026c6:	ea43 0300 	orr.w	r3, r3, r0
 80026ca:	d0f4      	beq.n	80026b6 <_ZN2ke15raise_exceptionERNS_23exception_control_blockE+0x20e>
 80026cc:	e7a9      	b.n	8002622 <_ZN2ke15raise_exceptionERNS_23exception_control_blockE+0x17a>
 80026ce:	bf00      	nop
 80026d0:	08008bb0 	.word	0x08008bb0
 80026d4:	080089e0 	.word	0x080089e0
 80026d8:	8814      	ldrh	r4, [r2, #0]
 80026da:	4615      	mov	r5, r2
 80026dc:	42a7      	cmp	r7, r4
 80026de:	8891      	ldrh	r1, [r2, #4]
 80026e0:	88d0      	ldrh	r0, [r2, #6]
 80026e2:	f102 0208 	add.w	r2, r2, #8
 80026e6:	d304      	bcc.n	80026f2 <_ZN2ke15raise_exceptionERNS_23exception_control_blockE+0x24a>
 80026e8:	886d      	ldrh	r5, [r5, #2]
 80026ea:	442c      	add	r4, r5
 80026ec:	42a7      	cmp	r7, r4
 80026ee:	f240 82ac 	bls.w	8002c4a <_ZN2ke15raise_exceptionERNS_23exception_control_blockE+0x7a2>
 80026f2:	429a      	cmp	r2, r3
 80026f4:	d3f0      	bcc.n	80026d8 <_ZN2ke15raise_exceptionERNS_23exception_control_blockE+0x230>
 80026f6:	f8d6 5090 	ldr.w	r5, [r6, #144]	@ 0x90
 80026fa:	459e      	cmp	lr, r3
 80026fc:	f0c0 8232 	bcc.w	8002b64 <_ZN2ke15raise_exceptionERNS_23exception_control_blockE+0x6bc>
 8002700:	3801      	subs	r0, #1
 8002702:	4403      	add	r3, r0
 8002704:	7818      	ldrb	r0, [r3, #0]
 8002706:	0607      	lsls	r7, r0, #24
 8002708:	f000 027f 	and.w	r2, r0, #127	@ 0x7f
 800270c:	f140 827d 	bpl.w	8002c0a <_ZN2ke15raise_exceptionERNS_23exception_control_blockE+0x762>
 8002710:	7858      	ldrb	r0, [r3, #1]
 8002712:	f000 047f 	and.w	r4, r0, #127	@ 0x7f
 8002716:	ea42 12c4 	orr.w	r2, r2, r4, lsl #7
 800271a:	0604      	lsls	r4, r0, #24
 800271c:	f140 8285 	bpl.w	8002c2a <_ZN2ke15raise_exceptionERNS_23exception_control_blockE+0x782>
 8002720:	7898      	ldrb	r0, [r3, #2]
 8002722:	f000 047f 	and.w	r4, r0, #127	@ 0x7f
 8002726:	0600      	lsls	r0, r0, #24
 8002728:	ea42 3284 	orr.w	r2, r2, r4, lsl #14
 800272c:	f140 8288 	bpl.w	8002c40 <_ZN2ke15raise_exceptionERNS_23exception_control_blockE+0x798>
 8002730:	78dc      	ldrb	r4, [r3, #3]
 8002732:	1d18      	adds	r0, r3, #4
 8002734:	0627      	lsls	r7, r4, #24
 8002736:	f004 037f 	and.w	r3, r4, #127	@ 0x7f
 800273a:	ea42 5243 	orr.w	r2, r2, r3, lsl #21
 800273e:	f140 8282 	bpl.w	8002c46 <_ZN2ke15raise_exceptionERNS_23exception_control_blockE+0x79e>
 8002742:	7804      	ldrb	r4, [r0, #0]
 8002744:	f004 037f 	and.w	r3, r4, #127	@ 0x7f
 8002748:	0624      	lsls	r4, r4, #24
 800274a:	f140 81e2 	bpl.w	8002b12 <_ZN2ke15raise_exceptionERNS_23exception_control_blockE+0x66a>
 800274e:	7844      	ldrb	r4, [r0, #1]
 8002750:	f004 077f 	and.w	r7, r4, #127	@ 0x7f
 8002754:	ea43 13c7 	orr.w	r3, r3, r7, lsl #7
 8002758:	0627      	lsls	r7, r4, #24
 800275a:	f140 8269 	bpl.w	8002c30 <_ZN2ke15raise_exceptionERNS_23exception_control_blockE+0x788>
 800275e:	7884      	ldrb	r4, [r0, #2]
 8002760:	f004 077f 	and.w	r7, r4, #127	@ 0x7f
 8002764:	0624      	lsls	r4, r4, #24
 8002766:	ea43 3387 	orr.w	r3, r3, r7, lsl #14
 800276a:	f140 8265 	bpl.w	8002c38 <_ZN2ke15raise_exceptionERNS_23exception_control_blockE+0x790>
 800276e:	78c4      	ldrb	r4, [r0, #3]
 8002770:	f004 077f 	and.w	r7, r4, #127	@ 0x7f
 8002774:	ea43 5347 	orr.w	r3, r3, r7, lsl #21
 8002778:	0627      	lsls	r7, r4, #24
 800277a:	bf58      	it	pl
 800277c:	2404      	movpl	r4, #4
 800277e:	f140 81c9 	bpl.w	8002b14 <_ZN2ke15raise_exceptionERNS_23exception_control_blockE+0x66c>
 8002782:	b103      	cbz	r3, 8002786 <_ZN2ke15raise_exceptionERNS_23exception_control_blockE+0x2de>
 8002784:	4403      	add	r3, r0
 8002786:	2a00      	cmp	r2, #0
 8002788:	dbbc      	blt.n	8002704 <_ZN2ke15raise_exceptionERNS_23exception_control_blockE+0x25c>
 800278a:	f000 8239 	beq.w	8002c00 <_ZN2ke15raise_exceptionERNS_23exception_control_blockE+0x758>
 800278e:	ebc2 7082 	rsb	r0, r2, r2, lsl #30
 8002792:	f85e 7020 	ldr.w	r7, [lr, r0, lsl #2]
 8002796:	eb0e 0480 	add.w	r4, lr, r0, lsl #2
 800279a:	2f00      	cmp	r7, #0
 800279c:	f000 8230 	beq.w	8002c00 <_ZN2ke15raise_exceptionERNS_23exception_control_blockE+0x758>
 80027a0:	f347 071e 	sbfx	r7, r7, #0, #31
 80027a4:	443c      	add	r4, r7
 80027a6:	46cb      	mov	fp, r9
 80027a8:	9101      	str	r1, [sp, #4]
 80027aa:	46a9      	mov	r9, r5
 80027ac:	4631      	mov	r1, r6
 80027ae:	2c00      	cmp	r4, #0
 80027b0:	d06d      	beq.n	800288e <_ZN2ke15raise_exceptionERNS_23exception_control_blockE+0x3e6>
 80027b2:	f8d1 5080 	ldr.w	r5, [r1, #128]	@ 0x80
 80027b6:	f101 0c40 	add.w	ip, r1, #64	@ 0x40
 80027ba:	00ee      	lsls	r6, r5, #3
 80027bc:	eb0c 08c5 	add.w	r8, ip, r5, lsl #3
 80027c0:	9500      	str	r5, [sp, #0]
 80027c2:	4660      	mov	r0, ip
 80027c4:	4647      	mov	r7, r8
 80027c6:	b91e      	cbnz	r6, 80027d0 <_ZN2ke15raise_exceptionERNS_23exception_control_blockE+0x328>
 80027c8:	e008      	b.n	80027dc <_ZN2ke15raise_exceptionERNS_23exception_control_blockE+0x334>
 80027ca:	3008      	adds	r0, #8
 80027cc:	42b8      	cmp	r0, r7
 80027ce:	d005      	beq.n	80027dc <_ZN2ke15raise_exceptionERNS_23exception_control_blockE+0x334>
 80027d0:	6805      	ldr	r5, [r0, #0]
 80027d2:	42a5      	cmp	r5, r4
 80027d4:	d1f9      	bne.n	80027ca <_ZN2ke15raise_exceptionERNS_23exception_control_blockE+0x322>
 80027d6:	4287      	cmp	r7, r0
 80027d8:	f040 81bb 	bne.w	8002b52 <_ZN2ke15raise_exceptionERNS_23exception_control_blockE+0x6aa>
 80027dc:	3401      	adds	r4, #1
 80027de:	f000 81b8 	beq.w	8002b52 <_ZN2ke15raise_exceptionERNS_23exception_control_blockE+0x6aa>
 80027e2:	2b00      	cmp	r3, #0
 80027e4:	d053      	beq.n	800288e <_ZN2ke15raise_exceptionERNS_23exception_control_blockE+0x3e6>
 80027e6:	7818      	ldrb	r0, [r3, #0]
 80027e8:	0604      	lsls	r4, r0, #24
 80027ea:	f000 027f 	and.w	r2, r0, #127	@ 0x7f
 80027ee:	f140 8194 	bpl.w	8002b1a <_ZN2ke15raise_exceptionERNS_23exception_control_blockE+0x672>
 80027f2:	7858      	ldrb	r0, [r3, #1]
 80027f4:	f000 047f 	and.w	r4, r0, #127	@ 0x7f
 80027f8:	0600      	lsls	r0, r0, #24
 80027fa:	ea42 12c4 	orr.w	r2, r2, r4, lsl #7
 80027fe:	f140 8195 	bpl.w	8002b2c <_ZN2ke15raise_exceptionERNS_23exception_control_blockE+0x684>
 8002802:	7898      	ldrb	r0, [r3, #2]
 8002804:	f000 047f 	and.w	r4, r0, #127	@ 0x7f
 8002808:	0607      	lsls	r7, r0, #24
 800280a:	ea42 3284 	orr.w	r2, r2, r4, lsl #14
 800280e:	f140 8190 	bpl.w	8002b32 <_ZN2ke15raise_exceptionERNS_23exception_control_blockE+0x68a>
 8002812:	78dc      	ldrb	r4, [r3, #3]
 8002814:	1d18      	adds	r0, r3, #4
 8002816:	0625      	lsls	r5, r4, #24
 8002818:	f004 037f 	and.w	r3, r4, #127	@ 0x7f
 800281c:	ea42 5243 	orr.w	r2, r2, r3, lsl #21
 8002820:	f140 818e 	bpl.w	8002b40 <_ZN2ke15raise_exceptionERNS_23exception_control_blockE+0x698>
 8002824:	7804      	ldrb	r4, [r0, #0]
 8002826:	f004 037f 	and.w	r3, r4, #127	@ 0x7f
 800282a:	0624      	lsls	r4, r4, #24
 800282c:	f140 816d 	bpl.w	8002b0a <_ZN2ke15raise_exceptionERNS_23exception_control_blockE+0x662>
 8002830:	7844      	ldrb	r4, [r0, #1]
 8002832:	f004 057f 	and.w	r5, r4, #127	@ 0x7f
 8002836:	0627      	lsls	r7, r4, #24
 8002838:	ea43 13c5 	orr.w	r3, r3, r5, lsl #7
 800283c:	f140 8172 	bpl.w	8002b24 <_ZN2ke15raise_exceptionERNS_23exception_control_blockE+0x67c>
 8002840:	7884      	ldrb	r4, [r0, #2]
 8002842:	f004 057f 	and.w	r5, r4, #127	@ 0x7f
 8002846:	ea43 3385 	orr.w	r3, r3, r5, lsl #14
 800284a:	0625      	lsls	r5, r4, #24
 800284c:	f140 8174 	bpl.w	8002b38 <_ZN2ke15raise_exceptionERNS_23exception_control_blockE+0x690>
 8002850:	78c4      	ldrb	r4, [r0, #3]
 8002852:	f004 057f 	and.w	r5, r4, #127	@ 0x7f
 8002856:	0624      	lsls	r4, r4, #24
 8002858:	bf58      	it	pl
 800285a:	2404      	movpl	r4, #4
 800285c:	ea43 5345 	orr.w	r3, r3, r5, lsl #21
 8002860:	f140 8154 	bpl.w	8002b0c <_ZN2ke15raise_exceptionERNS_23exception_control_blockE+0x664>
 8002864:	b103      	cbz	r3, 8002868 <_ZN2ke15raise_exceptionERNS_23exception_control_blockE+0x3c0>
 8002866:	4403      	add	r3, r0
 8002868:	2a00      	cmp	r2, #0
 800286a:	dbbc      	blt.n	80027e6 <_ZN2ke15raise_exceptionERNS_23exception_control_blockE+0x33e>
 800286c:	f04f 34ff 	mov.w	r4, #4294967295	@ 0xffffffff
 8002870:	d0a7      	beq.n	80027c2 <_ZN2ke15raise_exceptionERNS_23exception_control_blockE+0x31a>
 8002872:	ebc2 7082 	rsb	r0, r2, r2, lsl #30
 8002876:	f85e 7020 	ldr.w	r7, [lr, r0, lsl #2]
 800287a:	eb0e 0080 	add.w	r0, lr, r0, lsl #2
 800287e:	2f00      	cmp	r7, #0
 8002880:	f000 8160 	beq.w	8002b44 <_ZN2ke15raise_exceptionERNS_23exception_control_blockE+0x69c>
 8002884:	f347 041e 	sbfx	r4, r7, #0, #31
 8002888:	4404      	add	r4, r0
 800288a:	2c00      	cmp	r4, #0
 800288c:	d191      	bne.n	80027b2 <_ZN2ke15raise_exceptionERNS_23exception_control_blockE+0x30a>
 800288e:	464d      	mov	r5, r9
 8002890:	460e      	mov	r6, r1
 8002892:	46d9      	mov	r9, fp
 8002894:	e625      	b.n	80024e2 <_ZN2ke15raise_exceptionERNS_23exception_control_blockE+0x3a>
 8002896:	6810      	ldr	r0, [r2, #0]
 8002898:	4615      	mov	r5, r2
 800289a:	4287      	cmp	r7, r0
 800289c:	6911      	ldr	r1, [r2, #16]
 800289e:	f102 0220 	add.w	r2, r2, #32
 80028a2:	d304      	bcc.n	80028ae <_ZN2ke15raise_exceptionERNS_23exception_control_blockE+0x406>
 80028a4:	68ac      	ldr	r4, [r5, #8]
 80028a6:	4420      	add	r0, r4
 80028a8:	4287      	cmp	r7, r0
 80028aa:	f240 81d2 	bls.w	8002c52 <_ZN2ke15raise_exceptionERNS_23exception_control_blockE+0x7aa>
 80028ae:	4293      	cmp	r3, r2
 80028b0:	d8f1      	bhi.n	8002896 <_ZN2ke15raise_exceptionERNS_23exception_control_blockE+0x3ee>
 80028b2:	2400      	movs	r4, #0
 80028b4:	69a8      	ldr	r0, [r5, #24]
 80028b6:	f8d6 5090 	ldr.w	r5, [r6, #144]	@ 0x90
 80028ba:	2c00      	cmp	r4, #0
 80028bc:	f43f af1d 	beq.w	80026fa <_ZN2ke15raise_exceptionERNS_23exception_control_blockE+0x252>
 80028c0:	2303      	movs	r3, #3
 80028c2:	f886 309c 	strb.w	r3, [r6, #156]	@ 0x9c
 80028c6:	e60c      	b.n	80024e2 <_ZN2ke15raise_exceptionERNS_23exception_control_blockE+0x3a>
 80028c8:	6814      	ldr	r4, [r2, #0]
 80028ca:	4615      	mov	r5, r2
 80028cc:	e9d2 1002 	ldrd	r1, r0, [r2, #8]
 80028d0:	42a7      	cmp	r7, r4
 80028d2:	f102 0210 	add.w	r2, r2, #16
 80028d6:	d304      	bcc.n	80028e2 <_ZN2ke15raise_exceptionERNS_23exception_control_blockE+0x43a>
 80028d8:	686d      	ldr	r5, [r5, #4]
 80028da:	442c      	add	r4, r5
 80028dc:	42a7      	cmp	r7, r4
 80028de:	f240 81b4 	bls.w	8002c4a <_ZN2ke15raise_exceptionERNS_23exception_control_blockE+0x7a2>
 80028e2:	429a      	cmp	r2, r3
 80028e4:	d3f0      	bcc.n	80028c8 <_ZN2ke15raise_exceptionERNS_23exception_control_blockE+0x420>
 80028e6:	e706      	b.n	80026f6 <_ZN2ke15raise_exceptionERNS_23exception_control_blockE+0x24e>
 80028e8:	f9b2 4000 	ldrsh.w	r4, [r2]
 80028ec:	4615      	mov	r5, r2
 80028ee:	42a7      	cmp	r7, r4
 80028f0:	f9b2 1004 	ldrsh.w	r1, [r2, #4]
 80028f4:	f9b2 0006 	ldrsh.w	r0, [r2, #6]
 80028f8:	f102 0208 	add.w	r2, r2, #8
 80028fc:	d305      	bcc.n	800290a <_ZN2ke15raise_exceptionERNS_23exception_control_blockE+0x462>
 80028fe:	f9b5 5002 	ldrsh.w	r5, [r5, #2]
 8002902:	442c      	add	r4, r5
 8002904:	42a7      	cmp	r7, r4
 8002906:	f240 81a0 	bls.w	8002c4a <_ZN2ke15raise_exceptionERNS_23exception_control_blockE+0x7a2>
 800290a:	429a      	cmp	r2, r3
 800290c:	d3ec      	bcc.n	80028e8 <_ZN2ke15raise_exceptionERNS_23exception_control_blockE+0x440>
 800290e:	e6f2      	b.n	80026f6 <_ZN2ke15raise_exceptionERNS_23exception_control_blockE+0x24e>
 8002910:	7851      	ldrb	r1, [r2, #1]
 8002912:	f001 007f 	and.w	r0, r1, #127	@ 0x7f
 8002916:	ea4c 1cc0 	orr.w	ip, ip, r0, lsl #7
 800291a:	0608      	lsls	r0, r1, #24
 800291c:	f140 81bd 	bpl.w	8002c9a <_ZN2ke15raise_exceptionERNS_23exception_control_blockE+0x7f2>
 8002920:	7891      	ldrb	r1, [r2, #2]
 8002922:	f001 007f 	and.w	r0, r1, #127	@ 0x7f
 8002926:	0609      	lsls	r1, r1, #24
 8002928:	ea4c 3c80 	orr.w	ip, ip, r0, lsl #14
 800292c:	f140 81ba 	bpl.w	8002ca4 <_ZN2ke15raise_exceptionERNS_23exception_control_blockE+0x7fc>
 8002930:	78d1      	ldrb	r1, [r2, #3]
 8002932:	3204      	adds	r2, #4
 8002934:	f001 007f 	and.w	r0, r1, #127	@ 0x7f
 8002938:	060d      	lsls	r5, r1, #24
 800293a:	ea4c 5c40 	orr.w	ip, ip, r0, lsl #21
 800293e:	f140 81af 	bpl.w	8002ca0 <_ZN2ke15raise_exceptionERNS_23exception_control_blockE+0x7f8>
 8002942:	7811      	ldrb	r1, [r2, #0]
 8002944:	060c      	lsls	r4, r1, #24
 8002946:	f001 057f 	and.w	r5, r1, #127	@ 0x7f
 800294a:	d577      	bpl.n	8002a3c <_ZN2ke15raise_exceptionERNS_23exception_control_blockE+0x594>
 800294c:	7851      	ldrb	r1, [r2, #1]
 800294e:	f001 007f 	and.w	r0, r1, #127	@ 0x7f
 8002952:	ea45 15c0 	orr.w	r5, r5, r0, lsl #7
 8002956:	0608      	lsls	r0, r1, #24
 8002958:	f140 817f 	bpl.w	8002c5a <_ZN2ke15raise_exceptionERNS_23exception_control_blockE+0x7b2>
 800295c:	7891      	ldrb	r1, [r2, #2]
 800295e:	f001 007f 	and.w	r0, r1, #127	@ 0x7f
 8002962:	0609      	lsls	r1, r1, #24
 8002964:	ea45 3580 	orr.w	r5, r5, r0, lsl #14
 8002968:	f140 8183 	bpl.w	8002c72 <_ZN2ke15raise_exceptionERNS_23exception_control_blockE+0x7ca>
 800296c:	78d1      	ldrb	r1, [r2, #3]
 800296e:	3204      	adds	r2, #4
 8002970:	f001 007f 	and.w	r0, r1, #127	@ 0x7f
 8002974:	060c      	lsls	r4, r1, #24
 8002976:	ea45 5540 	orr.w	r5, r5, r0, lsl #21
 800297a:	f140 8178 	bpl.w	8002c6e <_ZN2ke15raise_exceptionERNS_23exception_control_blockE+0x7c6>
 800297e:	7811      	ldrb	r1, [r2, #0]
 8002980:	0608      	lsls	r0, r1, #24
 8002982:	f001 047f 	and.w	r4, r1, #127	@ 0x7f
 8002986:	d562      	bpl.n	8002a4e <_ZN2ke15raise_exceptionERNS_23exception_control_blockE+0x5a6>
 8002988:	7851      	ldrb	r1, [r2, #1]
 800298a:	f001 007f 	and.w	r0, r1, #127	@ 0x7f
 800298e:	0609      	lsls	r1, r1, #24
 8002990:	ea44 14c0 	orr.w	r4, r4, r0, lsl #7
 8002994:	f140 8174 	bpl.w	8002c80 <_ZN2ke15raise_exceptionERNS_23exception_control_blockE+0x7d8>
 8002998:	7891      	ldrb	r1, [r2, #2]
 800299a:	f001 007f 	and.w	r0, r1, #127	@ 0x7f
 800299e:	ea44 3480 	orr.w	r4, r4, r0, lsl #14
 80029a2:	0608      	lsls	r0, r1, #24
 80029a4:	f140 8171 	bpl.w	8002c8a <_ZN2ke15raise_exceptionERNS_23exception_control_blockE+0x7e2>
 80029a8:	78d1      	ldrb	r1, [r2, #3]
 80029aa:	3204      	adds	r2, #4
 80029ac:	f001 007f 	and.w	r0, r1, #127	@ 0x7f
 80029b0:	0609      	lsls	r1, r1, #24
 80029b2:	ea44 5440 	orr.w	r4, r4, r0, lsl #21
 80029b6:	f140 8166 	bpl.w	8002c86 <_ZN2ke15raise_exceptionERNS_23exception_control_blockE+0x7de>
 80029ba:	f892 8000 	ldrb.w	r8, [r2]
 80029be:	4621      	mov	r1, r4
 80029c0:	f018 0f80 	tst.w	r8, #128	@ 0x80
 80029c4:	f008 007f 	and.w	r0, r8, #127	@ 0x7f
 80029c8:	d04d      	beq.n	8002a66 <_ZN2ke15raise_exceptionERNS_23exception_control_blockE+0x5be>
 80029ca:	f892 8001 	ldrb.w	r8, [r2, #1]
 80029ce:	f008 0b7f 	and.w	fp, r8, #127	@ 0x7f
 80029d2:	f018 0f80 	tst.w	r8, #128	@ 0x80
 80029d6:	ea40 10cb 	orr.w	r0, r0, fp, lsl #7
 80029da:	f000 814d 	beq.w	8002c78 <_ZN2ke15raise_exceptionERNS_23exception_control_blockE+0x7d0>
 80029de:	f892 8002 	ldrb.w	r8, [r2, #2]
 80029e2:	f008 0b7f 	and.w	fp, r8, #127	@ 0x7f
 80029e6:	f018 0f80 	tst.w	r8, #128	@ 0x80
 80029ea:	ea40 308b 	orr.w	r0, r0, fp, lsl #14
 80029ee:	f000 813a 	beq.w	8002c66 <_ZN2ke15raise_exceptionERNS_23exception_control_blockE+0x7be>
 80029f2:	f892 8003 	ldrb.w	r8, [r2, #3]
 80029f6:	3204      	adds	r2, #4
 80029f8:	f008 0b7f 	and.w	fp, r8, #127	@ 0x7f
 80029fc:	f018 0f80 	tst.w	r8, #128	@ 0x80
 8002a00:	ea40 504b 	orr.w	r0, r0, fp, lsl #21
 8002a04:	f000 812c 	beq.w	8002c60 <_ZN2ke15raise_exceptionERNS_23exception_control_blockE+0x7b8>
 8002a08:	4567      	cmp	r7, ip
 8002a0a:	d303      	bcc.n	8002a14 <_ZN2ke15raise_exceptionERNS_23exception_control_blockE+0x56c>
 8002a0c:	4465      	add	r5, ip
 8002a0e:	42af      	cmp	r7, r5
 8002a10:	f240 8151 	bls.w	8002cb6 <_ZN2ke15raise_exceptionERNS_23exception_control_blockE+0x80e>
 8002a14:	4293      	cmp	r3, r2
 8002a16:	f240 813e 	bls.w	8002c96 <_ZN2ke15raise_exceptionERNS_23exception_control_blockE+0x7ee>
 8002a1a:	7811      	ldrb	r1, [r2, #0]
 8002a1c:	060c      	lsls	r4, r1, #24
 8002a1e:	f001 0c7f 	and.w	ip, r1, #127	@ 0x7f
 8002a22:	f53f af75 	bmi.w	8002910 <_ZN2ke15raise_exceptionERNS_23exception_control_blockE+0x468>
 8002a26:	2119      	movs	r1, #25
 8002a28:	3201      	adds	r2, #1
 8002a2a:	fa0c fc01 	lsl.w	ip, ip, r1
 8002a2e:	fa4c fc01 	asr.w	ip, ip, r1
 8002a32:	7811      	ldrb	r1, [r2, #0]
 8002a34:	060c      	lsls	r4, r1, #24
 8002a36:	f001 057f 	and.w	r5, r1, #127	@ 0x7f
 8002a3a:	d487      	bmi.n	800294c <_ZN2ke15raise_exceptionERNS_23exception_control_blockE+0x4a4>
 8002a3c:	2119      	movs	r1, #25
 8002a3e:	3201      	adds	r2, #1
 8002a40:	408d      	lsls	r5, r1
 8002a42:	410d      	asrs	r5, r1
 8002a44:	7811      	ldrb	r1, [r2, #0]
 8002a46:	0608      	lsls	r0, r1, #24
 8002a48:	f001 047f 	and.w	r4, r1, #127	@ 0x7f
 8002a4c:	d49c      	bmi.n	8002988 <_ZN2ke15raise_exceptionERNS_23exception_control_blockE+0x4e0>
 8002a4e:	2119      	movs	r1, #25
 8002a50:	3201      	adds	r2, #1
 8002a52:	f892 8000 	ldrb.w	r8, [r2]
 8002a56:	408c      	lsls	r4, r1
 8002a58:	410c      	asrs	r4, r1
 8002a5a:	f018 0f80 	tst.w	r8, #128	@ 0x80
 8002a5e:	4621      	mov	r1, r4
 8002a60:	f008 007f 	and.w	r0, r8, #127	@ 0x7f
 8002a64:	d1b1      	bne.n	80029ca <_ZN2ke15raise_exceptionERNS_23exception_control_blockE+0x522>
 8002a66:	f04f 0819 	mov.w	r8, #25
 8002a6a:	3201      	adds	r2, #1
 8002a6c:	fa00 f008 	lsl.w	r0, r0, r8
 8002a70:	fa40 f008 	asr.w	r0, r0, r8
 8002a74:	e7c8      	b.n	8002a08 <_ZN2ke15raise_exceptionERNS_23exception_control_blockE+0x560>
 8002a76:	6810      	ldr	r0, [r2, #0]
 8002a78:	4615      	mov	r5, r2
 8002a7a:	4287      	cmp	r7, r0
 8002a7c:	6911      	ldr	r1, [r2, #16]
 8002a7e:	f102 0220 	add.w	r2, r2, #32
 8002a82:	d304      	bcc.n	8002a8e <_ZN2ke15raise_exceptionERNS_23exception_control_blockE+0x5e6>
 8002a84:	68ac      	ldr	r4, [r5, #8]
 8002a86:	4420      	add	r0, r4
 8002a88:	4287      	cmp	r7, r0
 8002a8a:	f240 80e2 	bls.w	8002c52 <_ZN2ke15raise_exceptionERNS_23exception_control_blockE+0x7aa>
 8002a8e:	4293      	cmp	r3, r2
 8002a90:	d8f1      	bhi.n	8002a76 <_ZN2ke15raise_exceptionERNS_23exception_control_blockE+0x5ce>
 8002a92:	e70e      	b.n	80028b2 <_ZN2ke15raise_exceptionERNS_23exception_control_blockE+0x40a>
 8002a94:	6814      	ldr	r4, [r2, #0]
 8002a96:	4615      	mov	r5, r2
 8002a98:	e9d2 1002 	ldrd	r1, r0, [r2, #8]
 8002a9c:	42a7      	cmp	r7, r4
 8002a9e:	f102 0210 	add.w	r2, r2, #16
 8002aa2:	d304      	bcc.n	8002aae <_ZN2ke15raise_exceptionERNS_23exception_control_blockE+0x606>
 8002aa4:	686d      	ldr	r5, [r5, #4]
 8002aa6:	442c      	add	r4, r5
 8002aa8:	42a7      	cmp	r7, r4
 8002aaa:	f240 80ce 	bls.w	8002c4a <_ZN2ke15raise_exceptionERNS_23exception_control_blockE+0x7a2>
 8002aae:	429a      	cmp	r2, r3
 8002ab0:	d3f0      	bcc.n	8002a94 <_ZN2ke15raise_exceptionERNS_23exception_control_blockE+0x5ec>
 8002ab2:	e620      	b.n	80026f6 <_ZN2ke15raise_exceptionERNS_23exception_control_blockE+0x24e>
 8002ab4:	f103 0209 	add.w	r2, r3, #9
 8002ab8:	e5dc      	b.n	8002674 <_ZN2ke15raise_exceptionERNS_23exception_control_blockE+0x1cc>
 8002aba:	1cda      	adds	r2, r3, #3
 8002abc:	e5da      	b.n	8002674 <_ZN2ke15raise_exceptionERNS_23exception_control_blockE+0x1cc>
 8002abe:	f04f 0800 	mov.w	r8, #0
 8002ac2:	f10d 0c1c 	add.w	ip, sp, #28
 8002ac6:	f8cd 9000 	str.w	r9, [sp]
 8002aca:	2100      	movs	r1, #0
 8002acc:	e9cd 8803 	strd	r8, r8, [sp, #12]
 8002ad0:	468b      	mov	fp, r1
 8002ad2:	e9cd 8805 	strd	r8, r8, [sp, #20]
 8002ad6:	f8cd 801c 	str.w	r8, [sp, #28]
 8002ada:	ad03      	add	r5, sp, #12
 8002adc:	e004      	b.n	8002ae8 <_ZN2ke15raise_exceptionERNS_23exception_control_blockE+0x640>
 8002ade:	4565      	cmp	r5, ip
 8002ae0:	f10b 0b07 	add.w	fp, fp, #7
 8002ae4:	d049      	beq.n	8002b7a <_ZN2ke15raise_exceptionERNS_23exception_control_blockE+0x6d2>
 8002ae6:	6829      	ldr	r1, [r5, #0]
 8002ae8:	f812 9b01 	ldrb.w	r9, [r2], #1
 8002aec:	f009 007f 	and.w	r0, r9, #127	@ 0x7f
 8002af0:	fa00 f00b 	lsl.w	r0, r0, fp
 8002af4:	4308      	orrs	r0, r1
 8002af6:	f019 0f80 	tst.w	r9, #128	@ 0x80
 8002afa:	6028      	str	r0, [r5, #0]
 8002afc:	d1ef      	bne.n	8002ade <_ZN2ke15raise_exceptionERNS_23exception_control_blockE+0x636>
 8002afe:	3504      	adds	r5, #4
 8002b00:	4565      	cmp	r5, ip
 8002b02:	d03a      	beq.n	8002b7a <_ZN2ke15raise_exceptionERNS_23exception_control_blockE+0x6d2>
 8002b04:	f04f 0b00 	mov.w	fp, #0
 8002b08:	e7ed      	b.n	8002ae6 <_ZN2ke15raise_exceptionERNS_23exception_control_blockE+0x63e>
 8002b0a:	2419      	movs	r4, #25
 8002b0c:	40a3      	lsls	r3, r4
 8002b0e:	4123      	asrs	r3, r4
 8002b10:	e6a8      	b.n	8002864 <_ZN2ke15raise_exceptionERNS_23exception_control_blockE+0x3bc>
 8002b12:	2419      	movs	r4, #25
 8002b14:	40a3      	lsls	r3, r4
 8002b16:	4123      	asrs	r3, r4
 8002b18:	e633      	b.n	8002782 <_ZN2ke15raise_exceptionERNS_23exception_control_blockE+0x2da>
 8002b1a:	2419      	movs	r4, #25
 8002b1c:	1c58      	adds	r0, r3, #1
 8002b1e:	40a2      	lsls	r2, r4
 8002b20:	4122      	asrs	r2, r4
 8002b22:	e67f      	b.n	8002824 <_ZN2ke15raise_exceptionERNS_23exception_control_blockE+0x37c>
 8002b24:	2412      	movs	r4, #18
 8002b26:	40a3      	lsls	r3, r4
 8002b28:	4123      	asrs	r3, r4
 8002b2a:	e69b      	b.n	8002864 <_ZN2ke15raise_exceptionERNS_23exception_control_blockE+0x3bc>
 8002b2c:	2412      	movs	r4, #18
 8002b2e:	1c98      	adds	r0, r3, #2
 8002b30:	e7f5      	b.n	8002b1e <_ZN2ke15raise_exceptionERNS_23exception_control_blockE+0x676>
 8002b32:	240b      	movs	r4, #11
 8002b34:	1cd8      	adds	r0, r3, #3
 8002b36:	e7f2      	b.n	8002b1e <_ZN2ke15raise_exceptionERNS_23exception_control_blockE+0x676>
 8002b38:	240b      	movs	r4, #11
 8002b3a:	40a3      	lsls	r3, r4
 8002b3c:	4123      	asrs	r3, r4
 8002b3e:	e691      	b.n	8002864 <_ZN2ke15raise_exceptionERNS_23exception_control_blockE+0x3bc>
 8002b40:	2404      	movs	r4, #4
 8002b42:	e7ec      	b.n	8002b1e <_ZN2ke15raise_exceptionERNS_23exception_control_blockE+0x676>
 8002b44:	9d00      	ldr	r5, [sp, #0]
 8002b46:	4660      	mov	r0, ip
 8002b48:	eb0c 07c5 	add.w	r7, ip, r5, lsl #3
 8002b4c:	00ed      	lsls	r5, r5, #3
 8002b4e:	f47f ae3f 	bne.w	80027d0 <_ZN2ke15raise_exceptionERNS_23exception_control_blockE+0x328>
 8002b52:	460e      	mov	r6, r1
 8002b54:	464d      	mov	r5, r9
 8002b56:	b2d2      	uxtb	r2, r2
 8002b58:	6843      	ldr	r3, [r0, #4]
 8002b5a:	e9c6 6200 	strd	r6, r2, [r6]
 8002b5e:	9901      	ldr	r1, [sp, #4]
 8002b60:	f8c6 3088 	str.w	r3, [r6, #136]	@ 0x88
 8002b64:	682b      	ldr	r3, [r5, #0]
 8002b66:	4630      	mov	r0, r6
 8002b68:	f343 031e 	sbfx	r3, r3, #0, #31
 8002b6c:	442b      	add	r3, r5
 8002b6e:	440b      	add	r3, r1
 8002b70:	f043 0301 	orr.w	r3, r3, #1
 8002b74:	63f3      	str	r3, [r6, #60]	@ 0x3c
 8002b76:	f7ff fc89 	bl	800248c <_ZN2ke16restore_cpu_coreERNS_12cortex_m_cpuE>
 8002b7a:	9d03      	ldr	r5, [sp, #12]
 8002b7c:	42af      	cmp	r7, r5
 8002b7e:	d304      	bcc.n	8002b8a <_ZN2ke15raise_exceptionERNS_23exception_control_blockE+0x6e2>
 8002b80:	9904      	ldr	r1, [sp, #16]
 8002b82:	440d      	add	r5, r1
 8002b84:	42af      	cmp	r7, r5
 8002b86:	f240 8090 	bls.w	8002caa <_ZN2ke15raise_exceptionERNS_23exception_control_blockE+0x802>
 8002b8a:	4293      	cmp	r3, r2
 8002b8c:	d89d      	bhi.n	8002aca <_ZN2ke15raise_exceptionERNS_23exception_control_blockE+0x622>
 8002b8e:	2400      	movs	r4, #0
 8002b90:	f8dd 9000 	ldr.w	r9, [sp]
 8002b94:	4620      	mov	r0, r4
 8002b96:	4621      	mov	r1, r4
 8002b98:	e68d      	b.n	80028b6 <_ZN2ke15raise_exceptionERNS_23exception_control_blockE+0x40e>
 8002b9a:	2200      	movs	r2, #0
 8002b9c:	686b      	ldr	r3, [r5, #4]
 8002b9e:	f367 0207 	bfi	r2, r7, #0, #8
 8002ba2:	ea4f 6e13 	mov.w	lr, r3, lsr #24
 8002ba6:	88a9      	ldrh	r1, [r5, #4]
 8002ba8:	fa5f f08c 	uxtb.w	r0, ip
 8002bac:	f364 220f 	bfi	r2, r4, #8, #8
 8002bb0:	f3c3 4807 	ubfx	r8, r3, #16, #8
 8002bb4:	f36e 4217 	bfi	r2, lr, #16, #8
 8002bb8:	2801      	cmp	r0, #1
 8002bba:	f3c3 2b07 	ubfx	fp, r3, #8, #8
 8002bbe:	ba49      	rev16	r1, r1
 8002bc0:	b2db      	uxtb	r3, r3
 8002bc2:	f368 621f 	bfi	r2, r8, #24, #8
 8002bc6:	d02c      	beq.n	8002c22 <_ZN2ke15raise_exceptionERNS_23exception_control_blockE+0x77a>
 8002bc8:	2802      	cmp	r0, #2
 8002bca:	d023      	beq.n	8002c14 <_ZN2ke15raise_exceptionERNS_23exception_control_blockE+0x76c>
 8002bcc:	2200      	movs	r2, #0
 8002bce:	f36c 0207 	bfi	r2, ip, #0, #8
 8002bd2:	f367 220f 	bfi	r2, r7, #8, #8
 8002bd6:	f364 4217 	bfi	r2, r4, #16, #8
 8002bda:	f36e 621f 	bfi	r2, lr, #24, #8
 8002bde:	f88d 8010 	strb.w	r8, [sp, #16]
 8002be2:	f88d b011 	strb.w	fp, [sp, #17]
 8002be6:	f88d 3012 	strb.w	r3, [sp, #18]
 8002bea:	9203      	str	r2, [sp, #12]
 8002bec:	e49d      	b.n	800252a <_ZN2ke15raise_exceptionERNS_23exception_control_blockE+0x82>
 8002bee:	f8d0 3094 	ldr.w	r3, [r0, #148]	@ 0x94
 8002bf2:	685a      	ldr	r2, [r3, #4]
 8002bf4:	f012 6f70 	tst.w	r2, #251658240	@ 0xf000000
 8002bf8:	f47f acde 	bne.w	80025b8 <_ZN2ke15raise_exceptionERNS_23exception_control_blockE+0x110>
 8002bfc:	3308      	adds	r3, #8
 8002bfe:	e4e4      	b.n	80025ca <_ZN2ke15raise_exceptionERNS_23exception_control_blockE+0x122>
 8002c00:	f04f 34ff 	mov.w	r4, #4294967295	@ 0xffffffff
 8002c04:	e5cf      	b.n	80027a6 <_ZN2ke15raise_exceptionERNS_23exception_control_blockE+0x2fe>
 8002c06:	330c      	adds	r3, #12
 8002c08:	e4df      	b.n	80025ca <_ZN2ke15raise_exceptionERNS_23exception_control_blockE+0x122>
 8002c0a:	2419      	movs	r4, #25
 8002c0c:	1c58      	adds	r0, r3, #1
 8002c0e:	40a2      	lsls	r2, r4
 8002c10:	4122      	asrs	r2, r4
 8002c12:	e596      	b.n	8002742 <_ZN2ke15raise_exceptionERNS_23exception_control_blockE+0x29a>
 8002c14:	7aeb      	ldrb	r3, [r5, #11]
 8002c16:	9203      	str	r2, [sp, #12]
 8002c18:	f8ad 1010 	strh.w	r1, [sp, #16]
 8002c1c:	f88d 3012 	strb.w	r3, [sp, #18]
 8002c20:	e483      	b.n	800252a <_ZN2ke15raise_exceptionERNS_23exception_control_blockE+0x82>
 8002c22:	9203      	str	r2, [sp, #12]
 8002c24:	f8ad 1010 	strh.w	r1, [sp, #16]
 8002c28:	e47f      	b.n	800252a <_ZN2ke15raise_exceptionERNS_23exception_control_blockE+0x82>
 8002c2a:	2412      	movs	r4, #18
 8002c2c:	1c98      	adds	r0, r3, #2
 8002c2e:	e7ee      	b.n	8002c0e <_ZN2ke15raise_exceptionERNS_23exception_control_blockE+0x766>
 8002c30:	2412      	movs	r4, #18
 8002c32:	40a3      	lsls	r3, r4
 8002c34:	4123      	asrs	r3, r4
 8002c36:	e5a4      	b.n	8002782 <_ZN2ke15raise_exceptionERNS_23exception_control_blockE+0x2da>
 8002c38:	240b      	movs	r4, #11
 8002c3a:	40a3      	lsls	r3, r4
 8002c3c:	4123      	asrs	r3, r4
 8002c3e:	e5a0      	b.n	8002782 <_ZN2ke15raise_exceptionERNS_23exception_control_blockE+0x2da>
 8002c40:	240b      	movs	r4, #11
 8002c42:	1cd8      	adds	r0, r3, #3
 8002c44:	e7e3      	b.n	8002c0e <_ZN2ke15raise_exceptionERNS_23exception_control_blockE+0x766>
 8002c46:	2404      	movs	r4, #4
 8002c48:	e7e1      	b.n	8002c0e <_ZN2ke15raise_exceptionERNS_23exception_control_blockE+0x766>
 8002c4a:	fab1 f481 	clz	r4, r1
 8002c4e:	0964      	lsrs	r4, r4, #5
 8002c50:	e631      	b.n	80028b6 <_ZN2ke15raise_exceptionERNS_23exception_control_blockE+0x40e>
 8002c52:	fab1 f481 	clz	r4, r1
 8002c56:	0964      	lsrs	r4, r4, #5
 8002c58:	e62c      	b.n	80028b4 <_ZN2ke15raise_exceptionERNS_23exception_control_blockE+0x40c>
 8002c5a:	2112      	movs	r1, #18
 8002c5c:	3202      	adds	r2, #2
 8002c5e:	e6ef      	b.n	8002a40 <_ZN2ke15raise_exceptionERNS_23exception_control_blockE+0x598>
 8002c60:	f04f 0804 	mov.w	r8, #4
 8002c64:	e702      	b.n	8002a6c <_ZN2ke15raise_exceptionERNS_23exception_control_blockE+0x5c4>
 8002c66:	f04f 080b 	mov.w	r8, #11
 8002c6a:	3203      	adds	r2, #3
 8002c6c:	e6fe      	b.n	8002a6c <_ZN2ke15raise_exceptionERNS_23exception_control_blockE+0x5c4>
 8002c6e:	2104      	movs	r1, #4
 8002c70:	e6e6      	b.n	8002a40 <_ZN2ke15raise_exceptionERNS_23exception_control_blockE+0x598>
 8002c72:	210b      	movs	r1, #11
 8002c74:	3203      	adds	r2, #3
 8002c76:	e6e3      	b.n	8002a40 <_ZN2ke15raise_exceptionERNS_23exception_control_blockE+0x598>
 8002c78:	f04f 0812 	mov.w	r8, #18
 8002c7c:	3202      	adds	r2, #2
 8002c7e:	e6f5      	b.n	8002a6c <_ZN2ke15raise_exceptionERNS_23exception_control_blockE+0x5c4>
 8002c80:	2112      	movs	r1, #18
 8002c82:	3202      	adds	r2, #2
 8002c84:	e6e5      	b.n	8002a52 <_ZN2ke15raise_exceptionERNS_23exception_control_blockE+0x5aa>
 8002c86:	2104      	movs	r1, #4
 8002c88:	e6e3      	b.n	8002a52 <_ZN2ke15raise_exceptionERNS_23exception_control_blockE+0x5aa>
 8002c8a:	210b      	movs	r1, #11
 8002c8c:	3203      	adds	r2, #3
 8002c8e:	e6e0      	b.n	8002a52 <_ZN2ke15raise_exceptionERNS_23exception_control_blockE+0x5aa>
 8002c90:	f00e 0e7f 	and.w	lr, lr, #127	@ 0x7f
 8002c94:	e506      	b.n	80026a4 <_ZN2ke15raise_exceptionERNS_23exception_control_blockE+0x1fc>
 8002c96:	2400      	movs	r4, #0
 8002c98:	e60d      	b.n	80028b6 <_ZN2ke15raise_exceptionERNS_23exception_control_blockE+0x40e>
 8002c9a:	2112      	movs	r1, #18
 8002c9c:	3202      	adds	r2, #2
 8002c9e:	e6c4      	b.n	8002a2a <_ZN2ke15raise_exceptionERNS_23exception_control_blockE+0x582>
 8002ca0:	2104      	movs	r1, #4
 8002ca2:	e6c2      	b.n	8002a2a <_ZN2ke15raise_exceptionERNS_23exception_control_blockE+0x582>
 8002ca4:	210b      	movs	r1, #11
 8002ca6:	3203      	adds	r2, #3
 8002ca8:	e6bf      	b.n	8002a2a <_ZN2ke15raise_exceptionERNS_23exception_control_blockE+0x582>
 8002caa:	9905      	ldr	r1, [sp, #20]
 8002cac:	f8dd 9000 	ldr.w	r9, [sp]
 8002cb0:	b941      	cbnz	r1, 8002cc4 <_ZN2ke15raise_exceptionERNS_23exception_control_blockE+0x81c>
 8002cb2:	4608      	mov	r0, r1
 8002cb4:	e5ff      	b.n	80028b6 <_ZN2ke15raise_exceptionERNS_23exception_control_blockE+0x40e>
 8002cb6:	fab4 f484 	clz	r4, r4
 8002cba:	0964      	lsrs	r4, r4, #5
 8002cbc:	e5fb      	b.n	80028b6 <_ZN2ke15raise_exceptionERNS_23exception_control_blockE+0x40e>
 8002cbe:	b009      	add	sp, #36	@ 0x24
 8002cc0:	e8bd 8ff0 	ldmia.w	sp!, {r4, r5, r6, r7, r8, r9, sl, fp, pc}
 8002cc4:	2400      	movs	r4, #0
 8002cc6:	9806      	ldr	r0, [sp, #24]
 8002cc8:	e5f5      	b.n	80028b6 <_ZN2ke15raise_exceptionERNS_23exception_control_blockE+0x40e>
 8002cca:	f7fd f9e9 	bl	80000a0 <_ZSt9terminatev>
 8002cce:	bf00      	nop

08002cd0 <__wrap___cxa_rethrow>:
 8002cd0:	b510      	push	{r4, lr}
 8002cd2:	4813      	ldr	r0, [pc, #76]	@ (8002d20 <__wrap___cxa_rethrow+0x50>)
 8002cd4:	f002 f9ee 	bl	80050b4 <__emutls_get_address>
 8002cd8:	7803      	ldrb	r3, [r0, #0]
 8002cda:	b90b      	cbnz	r3, 8002ce0 <__wrap___cxa_rethrow+0x10>
 8002cdc:	f7fe fa06 	bl	80010ec <__tls_init.part.0>
 8002ce0:	4810      	ldr	r0, [pc, #64]	@ (8002d24 <__wrap___cxa_rethrow+0x54>)
 8002ce2:	f002 f9e7 	bl	80050b4 <__emutls_get_address>
 8002ce6:	4604      	mov	r4, r0
 8002ce8:	f7ff fbc6 	bl	8002478 <_ZN2ke16capture_cpu_coreERNS_12cortex_m_cpuE>
 8002cec:	f240 1201 	movw	r2, #257	@ 0x101
 8002cf0:	4b0d      	ldr	r3, [pc, #52]	@ (8002d28 <__wrap___cxa_rethrow+0x58>)
 8002cf2:	f8a4 209c 	strh.w	r2, [r4, #156]	@ 0x9c
 8002cf6:	781b      	ldrb	r3, [r3, #0]
 8002cf8:	b943      	cbnz	r3, 8002d0c <__wrap___cxa_rethrow+0x3c>
 8002cfa:	4621      	mov	r1, r4
 8002cfc:	480b      	ldr	r0, [pc, #44]	@ (8002d2c <__wrap___cxa_rethrow+0x5c>)
 8002cfe:	f7fd fef9 	bl	8000af4 <_ZN2ke12unwind_frameERKNS_14instructions_tERNS_12cortex_m_cpuE>
 8002d02:	4620      	mov	r0, r4
 8002d04:	f7ff fbd0 	bl	80024a8 <_ZN2ke15raise_exceptionERNS_23exception_control_blockE>
 8002d08:	f7fd f9ca 	bl	80000a0 <_ZSt9terminatev>
 8002d0c:	2004      	movs	r0, #4
 8002d0e:	f000 f8bf 	bl	8002e90 <__wrap___cxa_allocate_exception>
 8002d12:	4b07      	ldr	r3, [pc, #28]	@ (8002d30 <__wrap___cxa_rethrow+0x60>)
 8002d14:	4a07      	ldr	r2, [pc, #28]	@ (8002d34 <__wrap___cxa_rethrow+0x64>)
 8002d16:	4908      	ldr	r1, [pc, #32]	@ (8002d38 <__wrap___cxa_rethrow+0x68>)
 8002d18:	6003      	str	r3, [r0, #0]
 8002d1a:	f000 f80f 	bl	8002d3c <__wrap___cxa_throw>
 8002d1e:	bf00      	nop
 8002d20:	20000080 	.word	0x20000080
 8002d24:	20000070 	.word	0x20000070
 8002d28:	080073c4 	.word	0x080073c4
 8002d2c:	200001a8 	.word	0x200001a8
 8002d30:	08007948 	.word	0x08007948
 8002d34:	080030d5 	.word	0x080030d5
 8002d38:	08007934 	.word	0x08007934

08002d3c <__wrap___cxa_throw>:
 8002d3c:	e92d 4ff8 	stmdb	sp!, {r3, r4, r5, r6, r7, r8, r9, sl, fp, lr}
 8002d40:	4606      	mov	r6, r0
 8002d42:	4849      	ldr	r0, [pc, #292]	@ (8002e68 <__wrap___cxa_throw+0x12c>)
 8002d44:	460d      	mov	r5, r1
 8002d46:	4617      	mov	r7, r2
 8002d48:	f002 f9b4 	bl	80050b4 <__emutls_get_address>
 8002d4c:	7803      	ldrb	r3, [r0, #0]
 8002d4e:	b90b      	cbnz	r3, 8002d54 <__wrap___cxa_throw+0x18>
 8002d50:	f7fe f9cc 	bl	80010ec <__tls_init.part.0>
 8002d54:	4845      	ldr	r0, [pc, #276]	@ (8002e6c <__wrap___cxa_throw+0x130>)
 8002d56:	f002 f9ad 	bl	80050b4 <__emutls_get_address>
 8002d5a:	4604      	mov	r4, r0
 8002d5c:	f8c0 6084 	str.w	r6, [r0, #132]	@ 0x84
 8002d60:	f8c0 708c 	str.w	r7, [r0, #140]	@ 0x8c
 8002d64:	f7ff fb88 	bl	8002478 <_ZN2ke16capture_cpu_coreERNS_12cortex_m_cpuE>
 8002d68:	f8d4 3080 	ldr.w	r3, [r4, #128]	@ 0x80
 8002d6c:	2b08      	cmp	r3, #8
 8002d6e:	d821      	bhi.n	8002db4 <__wrap___cxa_throw+0x78>
 8002d70:	2200      	movs	r2, #0
 8002d72:	1c58      	adds	r0, r3, #1
 8002d74:	eb04 03c3 	add.w	r3, r4, r3, lsl #3
 8002d78:	f8c4 0080 	str.w	r0, [r4, #128]	@ 0x80
 8002d7c:	641d      	str	r5, [r3, #64]	@ 0x40
 8002d7e:	645a      	str	r2, [r3, #68]	@ 0x44
 8002d80:	682b      	ldr	r3, [r5, #0]
 8002d82:	4f3b      	ldr	r7, [pc, #236]	@ (8002e70 <__wrap___cxa_throw+0x134>)
 8002d84:	3b08      	subs	r3, #8
 8002d86:	42bb      	cmp	r3, r7
 8002d88:	d016      	beq.n	8002db8 <__wrap___cxa_throw+0x7c>
 8002d8a:	4a3a      	ldr	r2, [pc, #232]	@ (8002e74 <__wrap___cxa_throw+0x138>)
 8002d8c:	4293      	cmp	r3, r2
 8002d8e:	d013      	beq.n	8002db8 <__wrap___cxa_throw+0x7c>
 8002d90:	4a39      	ldr	r2, [pc, #228]	@ (8002e78 <__wrap___cxa_throw+0x13c>)
 8002d92:	4293      	cmp	r3, r2
 8002d94:	d010      	beq.n	8002db8 <__wrap___cxa_throw+0x7c>
 8002d96:	4b39      	ldr	r3, [pc, #228]	@ (8002e7c <__wrap___cxa_throw+0x140>)
 8002d98:	781b      	ldrb	r3, [r3, #0]
 8002d9a:	f003 05ff 	and.w	r5, r3, #255	@ 0xff
 8002d9e:	2b00      	cmp	r3, #0
 8002da0:	d158      	bne.n	8002e54 <__wrap___cxa_throw+0x118>
 8002da2:	4621      	mov	r1, r4
 8002da4:	4836      	ldr	r0, [pc, #216]	@ (8002e80 <__wrap___cxa_throw+0x144>)
 8002da6:	f7fd fea5 	bl	8000af4 <_ZN2ke12unwind_frameERKNS_14instructions_tERNS_12cortex_m_cpuE>
 8002daa:	4620      	mov	r0, r4
 8002dac:	f7ff fb7c 	bl	80024a8 <_ZN2ke15raise_exceptionERNS_23exception_control_blockE>
 8002db0:	f884 509c 	strb.w	r5, [r4, #156]	@ 0x9c
 8002db4:	f7fd f974 	bl	80000a0 <_ZSt9terminatev>
 8002db8:	f104 0c40 	add.w	ip, r4, #64	@ 0x40
 8002dbc:	4662      	mov	r2, ip
 8002dbe:	f8df 80b4 	ldr.w	r8, [pc, #180]	@ 8002e74 <__wrap___cxa_throw+0x138>
 8002dc2:	e006      	b.n	8002dd2 <__wrap___cxa_throw+0x96>
 8002dc4:	f8d4 0080 	ldr.w	r0, [r4, #128]	@ 0x80
 8002dc8:	3208      	adds	r2, #8
 8002dca:	eb0c 03c0 	add.w	r3, ip, r0, lsl #3
 8002dce:	429a      	cmp	r2, r3
 8002dd0:	d0e1      	beq.n	8002d96 <__wrap___cxa_throw+0x5a>
 8002dd2:	6815      	ldr	r5, [r2, #0]
 8002dd4:	682b      	ldr	r3, [r5, #0]
 8002dd6:	3b08      	subs	r3, #8
 8002dd8:	42bb      	cmp	r3, r7
 8002dda:	d0f3      	beq.n	8002dc4 <__wrap___cxa_throw+0x88>
 8002ddc:	4543      	cmp	r3, r8
 8002dde:	d02d      	beq.n	8002e3c <__wrap___cxa_throw+0x100>
 8002de0:	4925      	ldr	r1, [pc, #148]	@ (8002e78 <__wrap___cxa_throw+0x13c>)
 8002de2:	428b      	cmp	r3, r1
 8002de4:	d1ee      	bne.n	8002dc4 <__wrap___cxa_throw+0x88>
 8002de6:	68e8      	ldr	r0, [r5, #12]
 8002de8:	3002      	adds	r0, #2
 8002dea:	0040      	lsls	r0, r0, #1
 8002dec:	2804      	cmp	r0, #4
 8002dee:	d9e9      	bls.n	8002dc4 <__wrap___cxa_throw+0x88>
 8002df0:	2104      	movs	r1, #4
 8002df2:	4686      	mov	lr, r0
 8002df4:	eb05 0901 	add.w	r9, r5, r1
 8002df8:	f859 3021 	ldr.w	r3, [r9, r1, lsl #2]
 8002dfc:	0798      	lsls	r0, r3, #30
 8002dfe:	d519      	bpl.n	8002e34 <__wrap___cxa_throw+0xf8>
 8002e00:	f8d2 a004 	ldr.w	sl, [r2, #4]
 8002e04:	121b      	asrs	r3, r3, #8
 8002e06:	bf41      	itttt	mi
 8002e08:	3303      	addmi	r3, #3
 8002e0a:	f856 b00a 	ldrmi.w	fp, [r6, sl]
 8002e0e:	109b      	asrmi	r3, r3, #2
 8002e10:	f85b 3023 	ldrmi.w	r3, [fp, r3, lsl #2]
 8002e14:	f855 0021 	ldr.w	r0, [r5, r1, lsl #2]
 8002e18:	4453      	add	r3, sl
 8002e1a:	f8d4 a080 	ldr.w	sl, [r4, #128]	@ 0x80
 8002e1e:	f1ba 0f08 	cmp.w	sl, #8
 8002e22:	d8c7      	bhi.n	8002db4 <__wrap___cxa_throw+0x78>
 8002e24:	eb04 0bca 	add.w	fp, r4, sl, lsl #3
 8002e28:	f10a 0a01 	add.w	sl, sl, #1
 8002e2c:	f8c4 a080 	str.w	sl, [r4, #128]	@ 0x80
 8002e30:	e9cb 0310 	strd	r0, r3, [fp, #64]	@ 0x40
 8002e34:	3102      	adds	r1, #2
 8002e36:	4571      	cmp	r1, lr
 8002e38:	d3de      	bcc.n	8002df8 <__wrap___cxa_throw+0xbc>
 8002e3a:	e7c3      	b.n	8002dc4 <__wrap___cxa_throw+0x88>
 8002e3c:	2808      	cmp	r0, #8
 8002e3e:	68ad      	ldr	r5, [r5, #8]
 8002e40:	6851      	ldr	r1, [r2, #4]
 8002e42:	d8b7      	bhi.n	8002db4 <__wrap___cxa_throw+0x78>
 8002e44:	eb04 03c0 	add.w	r3, r4, r0, lsl #3
 8002e48:	3001      	adds	r0, #1
 8002e4a:	f8c4 0080 	str.w	r0, [r4, #128]	@ 0x80
 8002e4e:	e9c3 5110 	strd	r5, r1, [r3, #64]	@ 0x40
 8002e52:	e7b7      	b.n	8002dc4 <__wrap___cxa_throw+0x88>
 8002e54:	2004      	movs	r0, #4
 8002e56:	f000 f81b 	bl	8002e90 <__wrap___cxa_allocate_exception>
 8002e5a:	4b0a      	ldr	r3, [pc, #40]	@ (8002e84 <__wrap___cxa_throw+0x148>)
 8002e5c:	4a0a      	ldr	r2, [pc, #40]	@ (8002e88 <__wrap___cxa_throw+0x14c>)
 8002e5e:	490b      	ldr	r1, [pc, #44]	@ (8002e8c <__wrap___cxa_throw+0x150>)
 8002e60:	6003      	str	r3, [r0, #0]
 8002e62:	f7ff ff6b 	bl	8002d3c <__wrap___cxa_throw>
 8002e66:	bf00      	nop
 8002e68:	20000080 	.word	0x20000080
 8002e6c:	20000070 	.word	0x20000070
 8002e70:	08007984 	.word	0x08007984
 8002e74:	080079fc 	.word	0x080079fc
 8002e78:	08007a74 	.word	0x08007a74
 8002e7c:	080073c4 	.word	0x080073c4
 8002e80:	200001a0 	.word	0x200001a0
 8002e84:	08007948 	.word	0x08007948
 8002e88:	080030d5 	.word	0x080030d5
 8002e8c:	08007934 	.word	0x08007934

08002e90 <__wrap___cxa_allocate_exception>:
 8002e90:	b570      	push	{r4, r5, r6, lr}
 8002e92:	4606      	mov	r6, r0
 8002e94:	4823      	ldr	r0, [pc, #140]	@ (8002f24 <__wrap___cxa_allocate_exception+0x94>)
 8002e96:	f002 f90d 	bl	80050b4 <__emutls_get_address>
 8002e9a:	4605      	mov	r5, r0
 8002e9c:	4822      	ldr	r0, [pc, #136]	@ (8002f28 <__wrap___cxa_allocate_exception+0x98>)
 8002e9e:	f002 f909 	bl	80050b4 <__emutls_get_address>
 8002ea2:	7829      	ldrb	r1, [r5, #0]
 8002ea4:	4604      	mov	r4, r0
 8002ea6:	b9a9      	cbnz	r1, 8002ed4 <__wrap___cxa_allocate_exception+0x44>
 8002ea8:	2301      	movs	r3, #1
 8002eaa:	2244      	movs	r2, #68	@ 0x44
 8002eac:	702b      	strb	r3, [r5, #0]
 8002eae:	3040      	adds	r0, #64	@ 0x40
 8002eb0:	e9c4 1100 	strd	r1, r1, [r4]
 8002eb4:	e9c4 1102 	strd	r1, r1, [r4, #8]
 8002eb8:	e9c4 1104 	strd	r1, r1, [r4, #16]
 8002ebc:	e9c4 1106 	strd	r1, r1, [r4, #24]
 8002ec0:	e9c4 1108 	strd	r1, r1, [r4, #32]
 8002ec4:	e9c4 110a 	strd	r1, r1, [r4, #40]	@ 0x28
 8002ec8:	e9c4 110c 	strd	r1, r1, [r4, #48]	@ 0x30
 8002ecc:	e9c4 110e 	strd	r1, r1, [r4, #56]	@ 0x38
 8002ed0:	f002 f912 	bl	80050f8 <memset>
 8002ed4:	f894 309c 	ldrb.w	r3, [r4, #156]	@ 0x9c
 8002ed8:	b9fb      	cbnz	r3, 8002f1a <__wrap___cxa_allocate_exception+0x8a>
 8002eda:	2301      	movs	r3, #1
 8002edc:	4d13      	ldr	r5, [pc, #76]	@ (8002f2c <__wrap___cxa_allocate_exception+0x9c>)
 8002ede:	f884 309c 	strb.w	r3, [r4, #156]	@ 0x9c
 8002ee2:	6828      	ldr	r0, [r5, #0]
 8002ee4:	4a12      	ldr	r2, [pc, #72]	@ (8002f30 <__wrap___cxa_allocate_exception+0xa0>)
 8002ee6:	6880      	ldr	r0, [r0, #8]
 8002ee8:	f106 0110 	add.w	r1, r6, #16
 8002eec:	4290      	cmp	r0, r2
 8002eee:	d10c      	bne.n	8002f0a <__wrap___cxa_allocate_exception+0x7a>
 8002ef0:	f895 2048 	ldrb.w	r2, [r5, #72]	@ 0x48
 8002ef4:	b99a      	cbnz	r2, 8002f1e <__wrap___cxa_allocate_exception+0x8e>
 8002ef6:	2940      	cmp	r1, #64	@ 0x40
 8002ef8:	d811      	bhi.n	8002f1e <__wrap___cxa_allocate_exception+0x8e>
 8002efa:	f105 0008 	add.w	r0, r5, #8
 8002efe:	f885 3048 	strb.w	r3, [r5, #72]	@ 0x48
 8002f02:	e9c0 5100 	strd	r5, r1, [r0]
 8002f06:	3008      	adds	r0, #8
 8002f08:	bd70      	pop	{r4, r5, r6, pc}
 8002f0a:	2208      	movs	r2, #8
 8002f0c:	4628      	mov	r0, r5
 8002f0e:	f7fd fcff 	bl	8000910 <_ZN3hal26single_exception_allocator11do_allocateEjj>
 8002f12:	e9c0 5100 	strd	r5, r1, [r0]
 8002f16:	3008      	adds	r0, #8
 8002f18:	bd70      	pop	{r4, r5, r6, pc}
 8002f1a:	f7fd f8c1 	bl	80000a0 <_ZSt9terminatev>
 8002f1e:	2300      	movs	r3, #0
 8002f20:	601d      	str	r5, [r3, #0]
 8002f22:	deff      	udf	#255	@ 0xff
 8002f24:	20000080 	.word	0x20000080
 8002f28:	20000070 	.word	0x20000070
 8002f2c:	20000020 	.word	0x20000020
 8002f30:	08000911 	.word	0x08000911

08002f34 <__wrap___cxa_free_exception>:
 8002f34:	4602      	mov	r2, r0
 8002f36:	f850 0c08 	ldr.w	r0, [r0, #-8]
 8002f3a:	b510      	push	{r4, lr}
 8002f3c:	6804      	ldr	r4, [r0, #0]
 8002f3e:	4b0b      	ldr	r3, [pc, #44]	@ (8002f6c <__wrap___cxa_free_exception+0x38>)
 8002f40:	68e4      	ldr	r4, [r4, #12]
 8002f42:	f1a2 0108 	sub.w	r1, r2, #8
 8002f46:	429c      	cmp	r4, r3
 8002f48:	d107      	bne.n	8002f5a <__wrap___cxa_free_exception+0x26>
 8002f4a:	f100 0308 	add.w	r3, r0, #8
 8002f4e:	4299      	cmp	r1, r3
 8002f50:	d10a      	bne.n	8002f68 <__wrap___cxa_free_exception+0x34>
 8002f52:	2300      	movs	r3, #0
 8002f54:	f880 3048 	strb.w	r3, [r0, #72]	@ 0x48
 8002f58:	bd10      	pop	{r4, pc}
 8002f5a:	46a4      	mov	ip, r4
 8002f5c:	e8bd 4010 	ldmia.w	sp!, {r4, lr}
 8002f60:	2308      	movs	r3, #8
 8002f62:	f852 2c04 	ldr.w	r2, [r2, #-4]
 8002f66:	4760      	bx	ip
 8002f68:	f7fd f89a 	bl	80000a0 <_ZSt9terminatev>
 8002f6c:	080010d5 	.word	0x080010d5

08002f70 <__wrap___cxa_end_catch>:
 8002f70:	b570      	push	{r4, r5, r6, lr}
 8002f72:	4821      	ldr	r0, [pc, #132]	@ (8002ff8 <__wrap___cxa_end_catch+0x88>)
 8002f74:	f002 f89e 	bl	80050b4 <__emutls_get_address>
 8002f78:	4605      	mov	r5, r0
 8002f7a:	4820      	ldr	r0, [pc, #128]	@ (8002ffc <__wrap___cxa_end_catch+0x8c>)
 8002f7c:	f002 f89a 	bl	80050b4 <__emutls_get_address>
 8002f80:	7829      	ldrb	r1, [r5, #0]
 8002f82:	4604      	mov	r4, r0
 8002f84:	b9a9      	cbnz	r1, 8002fb2 <__wrap___cxa_end_catch+0x42>
 8002f86:	2301      	movs	r3, #1
 8002f88:	2244      	movs	r2, #68	@ 0x44
 8002f8a:	702b      	strb	r3, [r5, #0]
 8002f8c:	3040      	adds	r0, #64	@ 0x40
 8002f8e:	e9c4 1100 	strd	r1, r1, [r4]
 8002f92:	e9c4 1102 	strd	r1, r1, [r4, #8]
 8002f96:	e9c4 1104 	strd	r1, r1, [r4, #16]
 8002f9a:	e9c4 1106 	strd	r1, r1, [r4, #24]
 8002f9e:	e9c4 1108 	strd	r1, r1, [r4, #32]
 8002fa2:	e9c4 110a 	strd	r1, r1, [r4, #40]	@ 0x28
 8002fa6:	e9c4 110c 	strd	r1, r1, [r4, #48]	@ 0x30
 8002faa:	e9c4 110e 	strd	r1, r1, [r4, #56]	@ 0x38
 8002fae:	f002 f8a3 	bl	80050f8 <memset>
 8002fb2:	f894 309d 	ldrb.w	r3, [r4, #157]	@ 0x9d
 8002fb6:	b11b      	cbz	r3, 8002fc0 <__wrap___cxa_end_catch+0x50>
 8002fb8:	2300      	movs	r3, #0
 8002fba:	f884 309d 	strb.w	r3, [r4, #157]	@ 0x9d
 8002fbe:	bd70      	pop	{r4, r5, r6, pc}
 8002fc0:	f8d4 2084 	ldr.w	r2, [r4, #132]	@ 0x84
 8002fc4:	4d0e      	ldr	r5, [pc, #56]	@ (8003000 <__wrap___cxa_end_catch+0x90>)
 8002fc6:	f852 0c08 	ldr.w	r0, [r2, #-8]
 8002fca:	f1a2 0108 	sub.w	r1, r2, #8
 8002fce:	6804      	ldr	r4, [r0, #0]
 8002fd0:	68e4      	ldr	r4, [r4, #12]
 8002fd2:	42ac      	cmp	r4, r5
 8002fd4:	d108      	bne.n	8002fe8 <__wrap___cxa_end_catch+0x78>
 8002fd6:	f100 0208 	add.w	r2, r0, #8
 8002fda:	4291      	cmp	r1, r2
 8002fdc:	bf08      	it	eq
 8002fde:	f880 3048 	strbeq.w	r3, [r0, #72]	@ 0x48
 8002fe2:	d0ec      	beq.n	8002fbe <__wrap___cxa_end_catch+0x4e>
 8002fe4:	f7fd f85c 	bl	80000a0 <_ZSt9terminatev>
 8002fe8:	46a4      	mov	ip, r4
 8002fea:	e8bd 4070 	ldmia.w	sp!, {r4, r5, r6, lr}
 8002fee:	2308      	movs	r3, #8
 8002ff0:	f852 2c04 	ldr.w	r2, [r2, #-4]
 8002ff4:	4760      	bx	ip
 8002ff6:	bf00      	nop
 8002ff8:	20000080 	.word	0x20000080
 8002ffc:	20000070 	.word	0x20000070
 8003000:	080010d5 	.word	0x080010d5

08003004 <__wrap___cxa_begin_catch>:
 8003004:	b538      	push	{r3, r4, r5, lr}
 8003006:	4813      	ldr	r0, [pc, #76]	@ (8003054 <__wrap___cxa_begin_catch+0x50>)
 8003008:	f002 f854 	bl	80050b4 <__emutls_get_address>
 800300c:	4605      	mov	r5, r0
 800300e:	4812      	ldr	r0, [pc, #72]	@ (8003058 <__wrap___cxa_begin_catch+0x54>)
 8003010:	f002 f850 	bl	80050b4 <__emutls_get_address>
 8003014:	7829      	ldrb	r1, [r5, #0]
 8003016:	4604      	mov	r4, r0
 8003018:	b9a9      	cbnz	r1, 8003046 <__wrap___cxa_begin_catch+0x42>
 800301a:	2301      	movs	r3, #1
 800301c:	2244      	movs	r2, #68	@ 0x44
 800301e:	702b      	strb	r3, [r5, #0]
 8003020:	3040      	adds	r0, #64	@ 0x40
 8003022:	e9c4 1100 	strd	r1, r1, [r4]
 8003026:	e9c4 1102 	strd	r1, r1, [r4, #8]
 800302a:	e9c4 1104 	strd	r1, r1, [r4, #16]
 800302e:	e9c4 1106 	strd	r1, r1, [r4, #24]
 8003032:	e9c4 1108 	strd	r1, r1, [r4, #32]
 8003036:	e9c4 110a 	strd	r1, r1, [r4, #40]	@ 0x28
 800303a:	e9c4 110c 	strd	r1, r1, [r4, #48]	@ 0x30
 800303e:	e9c4 110e 	strd	r1, r1, [r4, #56]	@ 0x38
 8003042:	f002 f859 	bl	80050f8 <memset>
 8003046:	2300      	movs	r3, #0
 8003048:	f884 309c 	strb.w	r3, [r4, #156]	@ 0x9c
 800304c:	f8d4 0084 	ldr.w	r0, [r4, #132]	@ 0x84
 8003050:	bd38      	pop	{r3, r4, r5, pc}
 8003052:	bf00      	nop
 8003054:	20000080 	.word	0x20000080
 8003058:	20000070 	.word	0x20000070

0800305c <__wrap___cxa_end_cleanup>:
 800305c:	b508      	push	{r3, lr}
 800305e:	4808      	ldr	r0, [pc, #32]	@ (8003080 <__wrap___cxa_end_cleanup+0x24>)
 8003060:	f002 f828 	bl	80050b4 <__emutls_get_address>
 8003064:	7803      	ldrb	r3, [r0, #0]
 8003066:	b90b      	cbnz	r3, 800306c <__wrap___cxa_end_cleanup+0x10>
 8003068:	f7fe f840 	bl	80010ec <__tls_init.part.0>
 800306c:	4805      	ldr	r0, [pc, #20]	@ (8003084 <__wrap___cxa_end_cleanup+0x28>)
 800306e:	f002 f821 	bl	80050b4 <__emutls_get_address>
 8003072:	2303      	movs	r3, #3
 8003074:	f880 309c 	strb.w	r3, [r0, #156]	@ 0x9c
 8003078:	f7ff fa16 	bl	80024a8 <_ZN2ke15raise_exceptionERNS_23exception_control_blockE>
 800307c:	f7fd f810 	bl	80000a0 <_ZSt9terminatev>
 8003080:	20000080 	.word	0x20000080
 8003084:	20000070 	.word	0x20000070

08003088 <__wrap__Unwind_Resume>:
 8003088:	b508      	push	{r3, lr}
 800308a:	4808      	ldr	r0, [pc, #32]	@ (80030ac <__wrap__Unwind_Resume+0x24>)
 800308c:	f002 f812 	bl	80050b4 <__emutls_get_address>
 8003090:	7803      	ldrb	r3, [r0, #0]
 8003092:	b90b      	cbnz	r3, 8003098 <__wrap__Unwind_Resume+0x10>
 8003094:	f7fe f82a 	bl	80010ec <__tls_init.part.0>
 8003098:	4805      	ldr	r0, [pc, #20]	@ (80030b0 <__wrap__Unwind_Resume+0x28>)
 800309a:	f002 f80b 	bl	80050b4 <__emutls_get_address>
 800309e:	2303      	movs	r3, #3
 80030a0:	f880 309c 	strb.w	r3, [r0, #156]	@ 0x9c
 80030a4:	f7ff fa00 	bl	80024a8 <_ZN2ke15raise_exceptionERNS_23exception_control_blockE>
 80030a8:	f7fc fffa 	bl	80000a0 <_ZSt9terminatev>
 80030ac:	20000080 	.word	0x20000080
 80030b0:	20000070 	.word	0x20000070

080030b4 <__wrap___aeabi_unwind_cpp_pr0>:
 80030b4:	4770      	bx	lr
 80030b6:	bf00      	nop

080030b8 <__wrap___aeabi_unwind_cpp_pr1>:
 80030b8:	4770      	bx	lr
 80030ba:	bf00      	nop

080030bc <__wrap___gxx_personality_v0>:
 80030bc:	4770      	bx	lr
 80030be:	bf00      	nop

080030c0 <__aeabi_atexit>:
 80030c0:	460b      	mov	r3, r1
 80030c2:	4601      	mov	r1, r0
 80030c4:	4618      	mov	r0, r3
 80030c6:	f002 b957 	b.w	8005378 <__cxa_atexit>
 80030ca:	bf00      	nop

080030cc <_ZNKSt9bad_alloc4whatEv>:
 80030cc:	4800      	ldr	r0, [pc, #0]	@ (80030d0 <_ZNKSt9bad_alloc4whatEv+0x4>)
 80030ce:	4770      	bx	lr
 80030d0:	080077d0 	.word	0x080077d0

080030d4 <_ZNSt9bad_allocD1Ev>:
 80030d4:	b510      	push	{r4, lr}
 80030d6:	4604      	mov	r4, r0
 80030d8:	4b02      	ldr	r3, [pc, #8]	@ (80030e4 <_ZNSt9bad_allocD1Ev+0x10>)
 80030da:	6003      	str	r3, [r0, #0]
 80030dc:	f000 f892 	bl	8003204 <_ZNSt9exceptionD1Ev>
 80030e0:	4620      	mov	r0, r4
 80030e2:	bd10      	pop	{r4, pc}
 80030e4:	08007948 	.word	0x08007948

080030e8 <_ZNSt9bad_allocD0Ev>:
 80030e8:	b510      	push	{r4, lr}
 80030ea:	4604      	mov	r4, r0
 80030ec:	4b04      	ldr	r3, [pc, #16]	@ (8003100 <_ZNSt9bad_allocD0Ev+0x18>)
 80030ee:	6003      	str	r3, [r0, #0]
 80030f0:	f000 f888 	bl	8003204 <_ZNSt9exceptionD1Ev>
 80030f4:	4620      	mov	r0, r4
 80030f6:	2104      	movs	r1, #4
 80030f8:	f000 f882 	bl	8003200 <_ZdlPvj>
 80030fc:	4620      	mov	r0, r4
 80030fe:	bd10      	pop	{r4, pc}
 8003100:	08007948 	.word	0x08007948

08003104 <_ZNK10__cxxabiv117__class_type_info11__do_upcastEPKS0_PPv>:
 8003104:	2310      	movs	r3, #16
 8003106:	b570      	push	{r4, r5, r6, lr}
 8003108:	2400      	movs	r4, #0
 800310a:	b084      	sub	sp, #16
 800310c:	9302      	str	r3, [sp, #8]
 800310e:	6803      	ldr	r3, [r0, #0]
 8003110:	4615      	mov	r5, r2
 8003112:	699e      	ldr	r6, [r3, #24]
 8003114:	6812      	ldr	r2, [r2, #0]
 8003116:	466b      	mov	r3, sp
 8003118:	9400      	str	r4, [sp, #0]
 800311a:	9401      	str	r4, [sp, #4]
 800311c:	9403      	str	r4, [sp, #12]
 800311e:	47b0      	blx	r6
 8003120:	f89d 3004 	ldrb.w	r3, [sp, #4]
 8003124:	f003 0306 	and.w	r3, r3, #6
 8003128:	2b06      	cmp	r3, #6
 800312a:	bf09      	itett	eq
 800312c:	2001      	moveq	r0, #1
 800312e:	4620      	movne	r0, r4
 8003130:	9b00      	ldreq	r3, [sp, #0]
 8003132:	602b      	streq	r3, [r5, #0]
 8003134:	b004      	add	sp, #16
 8003136:	bd70      	pop	{r4, r5, r6, pc}

08003138 <_ZNK10__cxxabiv117__class_type_info20__do_find_public_srcEiPKvPKS0_S2_>:
 8003138:	9800      	ldr	r0, [sp, #0]
 800313a:	4290      	cmp	r0, r2
 800313c:	bf0c      	ite	eq
 800313e:	2006      	moveq	r0, #6
 8003140:	2001      	movne	r0, #1
 8003142:	4770      	bx	lr

08003144 <_ZN10__cxxabiv117__class_type_infoD1Ev>:
 8003144:	b510      	push	{r4, lr}
 8003146:	4604      	mov	r4, r0
 8003148:	4b02      	ldr	r3, [pc, #8]	@ (8003154 <_ZN10__cxxabiv117__class_type_infoD1Ev+0x10>)
 800314a:	6003      	str	r3, [r0, #0]
 800314c:	f000 f8f2 	bl	8003334 <_ZNSt9type_infoD1Ev>
 8003150:	4620      	mov	r0, r4
 8003152:	bd10      	pop	{r4, pc}
 8003154:	0800798c 	.word	0x0800798c

08003158 <_ZN10__cxxabiv117__class_type_infoD0Ev>:
 8003158:	b510      	push	{r4, lr}
 800315a:	4604      	mov	r4, r0
 800315c:	4b04      	ldr	r3, [pc, #16]	@ (8003170 <_ZN10__cxxabiv117__class_type_infoD0Ev+0x18>)
 800315e:	6003      	str	r3, [r0, #0]
 8003160:	f000 f8e8 	bl	8003334 <_ZNSt9type_infoD1Ev>
 8003164:	4620      	mov	r0, r4
 8003166:	2108      	movs	r1, #8
 8003168:	f000 f84a 	bl	8003200 <_ZdlPvj>
 800316c:	4620      	mov	r0, r4
 800316e:	bd10      	pop	{r4, pc}
 8003170:	0800798c 	.word	0x0800798c

08003174 <_ZNK10__cxxabiv117__class_type_info12__do_dyncastEiNS0_10__sub_kindEPKS0_PKvS3_S5_RNS0_16__dyncast_resultE>:
 8003174:	e92d 41f0 	stmdb	sp!, {r4, r5, r6, r7, r8, lr}
 8003178:	9f06      	ldr	r7, [sp, #24]
 800317a:	e9dd 1508 	ldrd	r1, r5, [sp, #32]
 800317e:	428f      	cmp	r7, r1
 8003180:	4604      	mov	r4, r0
 8003182:	4690      	mov	r8, r2
 8003184:	461e      	mov	r6, r3
 8003186:	d00c      	beq.n	80031a2 <_ZNK10__cxxabiv117__class_type_info12__do_dyncastEiNS0_10__sub_kindEPKS0_PKvS3_S5_RNS0_16__dyncast_resultE+0x2e>
 8003188:	4631      	mov	r1, r6
 800318a:	4620      	mov	r0, r4
 800318c:	f000 f8d6 	bl	800333c <_ZNKSt9type_info7__equalERKS_>
 8003190:	b120      	cbz	r0, 800319c <_ZNK10__cxxabiv117__class_type_info12__do_dyncastEiNS0_10__sub_kindEPKS0_PKvS3_S5_RNS0_16__dyncast_resultE+0x28>
 8003192:	2301      	movs	r3, #1
 8003194:	602f      	str	r7, [r5, #0]
 8003196:	f885 8004 	strb.w	r8, [r5, #4]
 800319a:	71ab      	strb	r3, [r5, #6]
 800319c:	2000      	movs	r0, #0
 800319e:	e8bd 81f0 	ldmia.w	sp!, {r4, r5, r6, r7, r8, pc}
 80031a2:	9907      	ldr	r1, [sp, #28]
 80031a4:	f000 f8ca 	bl	800333c <_ZNKSt9type_info7__equalERKS_>
 80031a8:	2800      	cmp	r0, #0
 80031aa:	d0ed      	beq.n	8003188 <_ZNK10__cxxabiv117__class_type_info12__do_dyncastEiNS0_10__sub_kindEPKS0_PKvS3_S5_RNS0_16__dyncast_resultE+0x14>
 80031ac:	2000      	movs	r0, #0
 80031ae:	f885 8005 	strb.w	r8, [r5, #5]
 80031b2:	e8bd 81f0 	ldmia.w	sp!, {r4, r5, r6, r7, r8, pc}
 80031b6:	bf00      	nop

080031b8 <_ZNK10__cxxabiv117__class_type_info11__do_upcastEPKS0_PKvRNS0_15__upcast_resultE>:
 80031b8:	b538      	push	{r3, r4, r5, lr}
 80031ba:	4615      	mov	r5, r2
 80031bc:	461c      	mov	r4, r3
 80031be:	f000 f8bd 	bl	800333c <_ZNKSt9type_info7__equalERKS_>
 80031c2:	b900      	cbnz	r0, 80031c6 <_ZNK10__cxxabiv117__class_type_info11__do_upcastEPKS0_PKvRNS0_15__upcast_resultE+0xe>
 80031c4:	bd38      	pop	{r3, r4, r5, pc}
 80031c6:	2208      	movs	r2, #8
 80031c8:	2306      	movs	r3, #6
 80031ca:	6025      	str	r5, [r4, #0]
 80031cc:	60e2      	str	r2, [r4, #12]
 80031ce:	7123      	strb	r3, [r4, #4]
 80031d0:	bd38      	pop	{r3, r4, r5, pc}
 80031d2:	bf00      	nop

080031d4 <_ZNK10__cxxabiv117__class_type_info10__do_catchEPKSt9type_infoPPvj>:
 80031d4:	e92d 41f0 	stmdb	sp!, {r4, r5, r6, r7, r8, lr}
 80031d8:	4606      	mov	r6, r0
 80031da:	4617      	mov	r7, r2
 80031dc:	461d      	mov	r5, r3
 80031de:	460c      	mov	r4, r1
 80031e0:	f000 f8ac 	bl	800333c <_ZNKSt9type_info7__equalERKS_>
 80031e4:	b948      	cbnz	r0, 80031fa <_ZNK10__cxxabiv117__class_type_info10__do_catchEPKSt9type_infoPPvj+0x26>
 80031e6:	2d03      	cmp	r5, #3
 80031e8:	d807      	bhi.n	80031fa <_ZNK10__cxxabiv117__class_type_info10__do_catchEPKSt9type_infoPPvj+0x26>
 80031ea:	6823      	ldr	r3, [r4, #0]
 80031ec:	463a      	mov	r2, r7
 80031ee:	4631      	mov	r1, r6
 80031f0:	4620      	mov	r0, r4
 80031f2:	e8bd 41f0 	ldmia.w	sp!, {r4, r5, r6, r7, r8, lr}
 80031f6:	695b      	ldr	r3, [r3, #20]
 80031f8:	4718      	bx	r3
 80031fa:	e8bd 81f0 	ldmia.w	sp!, {r4, r5, r6, r7, r8, pc}
 80031fe:	bf00      	nop

08003200 <_ZdlPvj>:
 8003200:	f000 bc54 	b.w	8003aac <_ZdlPv>

08003204 <_ZNSt9exceptionD1Ev>:
 8003204:	4770      	bx	lr
 8003206:	bf00      	nop

08003208 <_ZN10__cxxabiv111__terminateEPFvvE>:
 8003208:	b508      	push	{r3, lr}
 800320a:	4780      	blx	r0
 800320c:	f7fc ffe4 	bl	80001d8 <abort>
 8003210:	f7ff fef8 	bl	8003004 <__wrap___cxa_begin_catch>
 8003214:	f7fc ffe0 	bl	80001d8 <abort>

08003218 <_ZN10__cxxabiv120__si_class_type_infoD1Ev>:
 8003218:	b510      	push	{r4, lr}
 800321a:	4604      	mov	r4, r0
 800321c:	4b02      	ldr	r3, [pc, #8]	@ (8003228 <_ZN10__cxxabiv120__si_class_type_infoD1Ev+0x10>)
 800321e:	6003      	str	r3, [r0, #0]
 8003220:	f7ff ff90 	bl	8003144 <_ZN10__cxxabiv117__class_type_infoD1Ev>
 8003224:	4620      	mov	r0, r4
 8003226:	bd10      	pop	{r4, pc}
 8003228:	08007a04 	.word	0x08007a04

0800322c <_ZN10__cxxabiv120__si_class_type_infoD0Ev>:
 800322c:	b510      	push	{r4, lr}
 800322e:	4604      	mov	r4, r0
 8003230:	4b04      	ldr	r3, [pc, #16]	@ (8003244 <_ZN10__cxxabiv120__si_class_type_infoD0Ev+0x18>)
 8003232:	6003      	str	r3, [r0, #0]
 8003234:	f7ff ff86 	bl	8003144 <_ZN10__cxxabiv117__class_type_infoD1Ev>
 8003238:	4620      	mov	r0, r4
 800323a:	210c      	movs	r1, #12
 800323c:	f7ff ffe0 	bl	8003200 <_ZdlPvj>
 8003240:	4620      	mov	r0, r4
 8003242:	bd10      	pop	{r4, pc}
 8003244:	08007a04 	.word	0x08007a04

08003248 <_ZNK10__cxxabiv120__si_class_type_info20__do_find_public_srcEiPKvPKNS_17__class_type_infoES2_>:
 8003248:	b570      	push	{r4, r5, r6, lr}
 800324a:	b082      	sub	sp, #8
 800324c:	9e06      	ldr	r6, [sp, #24]
 800324e:	4604      	mov	r4, r0
 8003250:	4296      	cmp	r6, r2
 8003252:	460d      	mov	r5, r1
 8003254:	d009      	beq.n	800326a <_ZNK10__cxxabiv120__si_class_type_info20__do_find_public_srcEiPKvPKNS_17__class_type_infoES2_+0x22>
 8003256:	68a0      	ldr	r0, [r4, #8]
 8003258:	4629      	mov	r1, r5
 800325a:	6804      	ldr	r4, [r0, #0]
 800325c:	9606      	str	r6, [sp, #24]
 800325e:	6a24      	ldr	r4, [r4, #32]
 8003260:	46a4      	mov	ip, r4
 8003262:	b002      	add	sp, #8
 8003264:	e8bd 4070 	ldmia.w	sp!, {r4, r5, r6, lr}
 8003268:	4760      	bx	ip
 800326a:	4619      	mov	r1, r3
 800326c:	9201      	str	r2, [sp, #4]
 800326e:	9300      	str	r3, [sp, #0]
 8003270:	f000 f864 	bl	800333c <_ZNKSt9type_info7__equalERKS_>
 8003274:	e9dd 3200 	ldrd	r3, r2, [sp]
 8003278:	2800      	cmp	r0, #0
 800327a:	d0ec      	beq.n	8003256 <_ZNK10__cxxabiv120__si_class_type_info20__do_find_public_srcEiPKvPKNS_17__class_type_infoES2_+0xe>
 800327c:	2006      	movs	r0, #6
 800327e:	b002      	add	sp, #8
 8003280:	bd70      	pop	{r4, r5, r6, pc}
 8003282:	bf00      	nop

08003284 <_ZNK10__cxxabiv120__si_class_type_info12__do_dyncastEiNS_17__class_type_info10__sub_kindEPKS1_PKvS4_S6_RNS1_16__dyncast_resultE>:
 8003284:	e92d 4ff0 	stmdb	sp!, {r4, r5, r6, r7, r8, r9, sl, fp, lr}
 8003288:	460d      	mov	r5, r1
 800328a:	b081      	sub	sp, #4
 800328c:	4619      	mov	r1, r3
 800328e:	e9dd 8b0a 	ldrd	r8, fp, [sp, #40]	@ 0x28
 8003292:	e9dd a90c 	ldrd	sl, r9, [sp, #48]	@ 0x30
 8003296:	461c      	mov	r4, r3
 8003298:	4607      	mov	r7, r0
 800329a:	4616      	mov	r6, r2
 800329c:	f000 f84e 	bl	800333c <_ZNKSt9type_info7__equalERKS_>
 80032a0:	b980      	cbnz	r0, 80032c4 <_ZNK10__cxxabiv120__si_class_type_info12__do_dyncastEiNS_17__class_type_info10__sub_kindEPKS1_PKvS4_S6_RNS1_16__dyncast_resultE+0x40>
 80032a2:	45d0      	cmp	r8, sl
 80032a4:	d027      	beq.n	80032f6 <_ZNK10__cxxabiv120__si_class_type_info12__do_dyncastEiNS_17__class_type_info10__sub_kindEPKS1_PKvS4_S6_RNS1_16__dyncast_resultE+0x72>
 80032a6:	68b8      	ldr	r0, [r7, #8]
 80032a8:	4623      	mov	r3, r4
 80032aa:	6804      	ldr	r4, [r0, #0]
 80032ac:	e9cd a90c 	strd	sl, r9, [sp, #48]	@ 0x30
 80032b0:	e9cd 8b0a 	strd	r8, fp, [sp, #40]	@ 0x28
 80032b4:	69e4      	ldr	r4, [r4, #28]
 80032b6:	4632      	mov	r2, r6
 80032b8:	4629      	mov	r1, r5
 80032ba:	46a4      	mov	ip, r4
 80032bc:	b001      	add	sp, #4
 80032be:	e8bd 4ff0 	ldmia.w	sp!, {r4, r5, r6, r7, r8, r9, sl, fp, lr}
 80032c2:	4760      	bx	ip
 80032c4:	2d00      	cmp	r5, #0
 80032c6:	f8c9 8000 	str.w	r8, [r9]
 80032ca:	f889 6004 	strb.w	r6, [r9, #4]
 80032ce:	db0c      	blt.n	80032ea <_ZNK10__cxxabiv120__si_class_type_info12__do_dyncastEiNS_17__class_type_info10__sub_kindEPKS1_PKvS4_S6_RNS1_16__dyncast_resultE+0x66>
 80032d0:	44a8      	add	r8, r5
 80032d2:	45c2      	cmp	sl, r8
 80032d4:	bf14      	ite	ne
 80032d6:	f04f 0801 	movne.w	r8, #1
 80032da:	f04f 0806 	moveq.w	r8, #6
 80032de:	f889 8006 	strb.w	r8, [r9, #6]
 80032e2:	2000      	movs	r0, #0
 80032e4:	b001      	add	sp, #4
 80032e6:	e8bd 8ff0 	ldmia.w	sp!, {r4, r5, r6, r7, r8, r9, sl, fp, pc}
 80032ea:	3502      	adds	r5, #2
 80032ec:	d1f9      	bne.n	80032e2 <_ZNK10__cxxabiv120__si_class_type_info12__do_dyncastEiNS_17__class_type_info10__sub_kindEPKS1_PKvS4_S6_RNS1_16__dyncast_resultE+0x5e>
 80032ee:	2301      	movs	r3, #1
 80032f0:	f889 3006 	strb.w	r3, [r9, #6]
 80032f4:	e7f5      	b.n	80032e2 <_ZNK10__cxxabiv120__si_class_type_info12__do_dyncastEiNS_17__class_type_info10__sub_kindEPKS1_PKvS4_S6_RNS1_16__dyncast_resultE+0x5e>
 80032f6:	4659      	mov	r1, fp
 80032f8:	4638      	mov	r0, r7
 80032fa:	f000 f81f 	bl	800333c <_ZNKSt9type_info7__equalERKS_>
 80032fe:	2800      	cmp	r0, #0
 8003300:	d0d1      	beq.n	80032a6 <_ZNK10__cxxabiv120__si_class_type_info12__do_dyncastEiNS_17__class_type_info10__sub_kindEPKS1_PKvS4_S6_RNS1_16__dyncast_resultE+0x22>
 8003302:	f889 6005 	strb.w	r6, [r9, #5]
 8003306:	e7ec      	b.n	80032e2 <_ZNK10__cxxabiv120__si_class_type_info12__do_dyncastEiNS_17__class_type_info10__sub_kindEPKS1_PKvS4_S6_RNS1_16__dyncast_resultE+0x5e>

08003308 <_ZNK10__cxxabiv120__si_class_type_info11__do_upcastEPKNS_17__class_type_infoEPKvRNS1_15__upcast_resultE>:
 8003308:	e92d 41f0 	stmdb	sp!, {r4, r5, r6, r7, r8, lr}
 800330c:	4606      	mov	r6, r0
 800330e:	460f      	mov	r7, r1
 8003310:	4614      	mov	r4, r2
 8003312:	461d      	mov	r5, r3
 8003314:	f7ff ff50 	bl	80031b8 <_ZNK10__cxxabiv117__class_type_info11__do_upcastEPKS0_PKvRNS0_15__upcast_resultE>
 8003318:	b948      	cbnz	r0, 800332e <_ZNK10__cxxabiv120__si_class_type_info11__do_upcastEPKNS_17__class_type_infoEPKvRNS1_15__upcast_resultE+0x26>
 800331a:	68b0      	ldr	r0, [r6, #8]
 800331c:	462b      	mov	r3, r5
 800331e:	6805      	ldr	r5, [r0, #0]
 8003320:	4622      	mov	r2, r4
 8003322:	69ac      	ldr	r4, [r5, #24]
 8003324:	4639      	mov	r1, r7
 8003326:	46a4      	mov	ip, r4
 8003328:	e8bd 41f0 	ldmia.w	sp!, {r4, r5, r6, r7, r8, lr}
 800332c:	4760      	bx	ip
 800332e:	e8bd 81f0 	ldmia.w	sp!, {r4, r5, r6, r7, r8, pc}
 8003332:	bf00      	nop

08003334 <_ZNSt9type_infoD1Ev>:
 8003334:	4770      	bx	lr
 8003336:	bf00      	nop

08003338 <_ZNKSt9type_info14__is_pointer_pEv>:
 8003338:	2000      	movs	r0, #0
 800333a:	4770      	bx	lr

0800333c <_ZNKSt9type_info7__equalERKS_>:
 800333c:	4281      	cmp	r1, r0
 800333e:	d011      	beq.n	8003364 <_ZNKSt9type_info7__equalERKS_+0x28>
 8003340:	b508      	push	{r3, lr}
 8003342:	6840      	ldr	r0, [r0, #4]
 8003344:	7803      	ldrb	r3, [r0, #0]
 8003346:	2b2a      	cmp	r3, #42	@ 0x2a
 8003348:	d00a      	beq.n	8003360 <_ZNKSt9type_info7__equalERKS_+0x24>
 800334a:	6849      	ldr	r1, [r1, #4]
 800334c:	780b      	ldrb	r3, [r1, #0]
 800334e:	2b2a      	cmp	r3, #42	@ 0x2a
 8003350:	bf08      	it	eq
 8003352:	3101      	addeq	r1, #1
 8003354:	f001 feb8 	bl	80050c8 <strcmp>
 8003358:	fab0 f080 	clz	r0, r0
 800335c:	0940      	lsrs	r0, r0, #5
 800335e:	bd08      	pop	{r3, pc}
 8003360:	2000      	movs	r0, #0
 8003362:	bd08      	pop	{r3, pc}
 8003364:	2001      	movs	r0, #1
 8003366:	4770      	bx	lr

08003368 <_ZN10__cxxabiv121__vmi_class_type_infoD1Ev>:
 8003368:	b510      	push	{r4, lr}
 800336a:	4604      	mov	r4, r0
 800336c:	4b02      	ldr	r3, [pc, #8]	@ (8003378 <_ZN10__cxxabiv121__vmi_class_type_infoD1Ev+0x10>)
 800336e:	6003      	str	r3, [r0, #0]
 8003370:	f7ff fee8 	bl	8003144 <_ZN10__cxxabiv117__class_type_infoD1Ev>
 8003374:	4620      	mov	r0, r4
 8003376:	bd10      	pop	{r4, pc}
 8003378:	08007a7c 	.word	0x08007a7c

0800337c <_ZN10__cxxabiv121__vmi_class_type_infoD0Ev>:
 800337c:	b510      	push	{r4, lr}
 800337e:	4604      	mov	r4, r0
 8003380:	4b04      	ldr	r3, [pc, #16]	@ (8003394 <_ZN10__cxxabiv121__vmi_class_type_infoD0Ev+0x18>)
 8003382:	6003      	str	r3, [r0, #0]
 8003384:	f7ff fede 	bl	8003144 <_ZN10__cxxabiv117__class_type_infoD1Ev>
 8003388:	4620      	mov	r0, r4
 800338a:	2118      	movs	r1, #24
 800338c:	f7ff ff38 	bl	8003200 <_ZdlPvj>
 8003390:	4620      	mov	r0, r4
 8003392:	bd10      	pop	{r4, pc}
 8003394:	08007a7c 	.word	0x08007a7c

08003398 <_ZNK10__cxxabiv121__vmi_class_type_info20__do_find_public_srcEiPKvPKNS_17__class_type_infoES2_>:
 8003398:	e92d 4ff0 	stmdb	sp!, {r4, r5, r6, r7, r8, r9, sl, fp, lr}
 800339c:	b083      	sub	sp, #12
 800339e:	f8dd a030 	ldr.w	sl, [sp, #48]	@ 0x30
 80033a2:	4605      	mov	r5, r0
 80033a4:	4552      	cmp	r2, sl
 80033a6:	4617      	mov	r7, r2
 80033a8:	4688      	mov	r8, r1
 80033aa:	4699      	mov	r9, r3
 80033ac:	d02d      	beq.n	800340a <_ZNK10__cxxabiv121__vmi_class_type_info20__do_find_public_srcEiPKvPKNS_17__class_type_infoES2_+0x72>
 80033ae:	68eb      	ldr	r3, [r5, #12]
 80033b0:	1e5e      	subs	r6, r3, #1
 80033b2:	eb05 05c3 	add.w	r5, r5, r3, lsl #3
 80033b6:	b1fb      	cbz	r3, 80033f8 <_ZNK10__cxxabiv121__vmi_class_type_info20__do_find_public_srcEiPKvPKNS_17__class_type_infoES2_+0x60>
 80033b8:	68ec      	ldr	r4, [r5, #12]
 80033ba:	f014 0f02 	tst.w	r4, #2
 80033be:	ea4f 2224 	mov.w	r2, r4, asr #8
 80033c2:	d014      	beq.n	80033ee <_ZNK10__cxxabiv121__vmi_class_type_info20__do_find_public_srcEiPKvPKNS_17__class_type_infoES2_+0x56>
 80033c4:	f014 0401 	ands.w	r4, r4, #1
 80033c8:	d004      	beq.n	80033d4 <_ZNK10__cxxabiv121__vmi_class_type_info20__do_find_public_srcEiPKvPKNS_17__class_type_infoES2_+0x3c>
 80033ca:	f118 0f03 	cmn.w	r8, #3
 80033ce:	d00e      	beq.n	80033ee <_ZNK10__cxxabiv121__vmi_class_type_info20__do_find_public_srcEiPKvPKNS_17__class_type_infoES2_+0x56>
 80033d0:	683b      	ldr	r3, [r7, #0]
 80033d2:	589a      	ldr	r2, [r3, r2]
 80033d4:	68a8      	ldr	r0, [r5, #8]
 80033d6:	464b      	mov	r3, r9
 80033d8:	f8d0 c000 	ldr.w	ip, [r0]
 80033dc:	f8cd a000 	str.w	sl, [sp]
 80033e0:	4641      	mov	r1, r8
 80033e2:	f8dc b020 	ldr.w	fp, [ip, #32]
 80033e6:	443a      	add	r2, r7
 80033e8:	47d8      	blx	fp
 80033ea:	2803      	cmp	r0, #3
 80033ec:	d808      	bhi.n	8003400 <_ZNK10__cxxabiv121__vmi_class_type_info20__do_find_public_srcEiPKvPKNS_17__class_type_infoES2_+0x68>
 80033ee:	3e01      	subs	r6, #1
 80033f0:	1c73      	adds	r3, r6, #1
 80033f2:	f1a5 0508 	sub.w	r5, r5, #8
 80033f6:	d1df      	bne.n	80033b8 <_ZNK10__cxxabiv121__vmi_class_type_info20__do_find_public_srcEiPKvPKNS_17__class_type_infoES2_+0x20>
 80033f8:	2001      	movs	r0, #1
 80033fa:	b003      	add	sp, #12
 80033fc:	e8bd 8ff0 	ldmia.w	sp!, {r4, r5, r6, r7, r8, r9, sl, fp, pc}
 8003400:	4320      	orrs	r0, r4
 8003402:	b2c0      	uxtb	r0, r0
 8003404:	b003      	add	sp, #12
 8003406:	e8bd 8ff0 	ldmia.w	sp!, {r4, r5, r6, r7, r8, r9, sl, fp, pc}
 800340a:	4619      	mov	r1, r3
 800340c:	f7ff ff96 	bl	800333c <_ZNKSt9type_info7__equalERKS_>
 8003410:	2800      	cmp	r0, #0
 8003412:	d0cc      	beq.n	80033ae <_ZNK10__cxxabiv121__vmi_class_type_info20__do_find_public_srcEiPKvPKNS_17__class_type_infoES2_+0x16>
 8003414:	2006      	movs	r0, #6
 8003416:	e7f0      	b.n	80033fa <_ZNK10__cxxabiv121__vmi_class_type_info20__do_find_public_srcEiPKvPKNS_17__class_type_infoES2_+0x62>

08003418 <_ZNK10__cxxabiv121__vmi_class_type_info12__do_dyncastEiNS_17__class_type_info10__sub_kindEPKS1_PKvS4_S6_RNS1_16__dyncast_resultE>:
 8003418:	e92d 4ff0 	stmdb	sp!, {r4, r5, r6, r7, r8, r9, sl, fp, lr}
 800341c:	b093      	sub	sp, #76	@ 0x4c
 800341e:	9c1f      	ldr	r4, [sp, #124]	@ 0x7c
 8003420:	4689      	mov	r9, r1
 8003422:	68a5      	ldr	r5, [r4, #8]
 8003424:	9306      	str	r3, [sp, #24]
 8003426:	06e9      	lsls	r1, r5, #27
 8003428:	bf48      	it	mi
 800342a:	6883      	ldrmi	r3, [r0, #8]
 800342c:	f8dd b070 	ldr.w	fp, [sp, #112]	@ 0x70
 8003430:	bf48      	it	mi
 8003432:	60a3      	strmi	r3, [r4, #8]
 8003434:	9b1e      	ldr	r3, [sp, #120]	@ 0x78
 8003436:	900b      	str	r0, [sp, #44]	@ 0x2c
 8003438:	459b      	cmp	fp, r3
 800343a:	9209      	str	r2, [sp, #36]	@ 0x24
 800343c:	f000 8180 	beq.w	8003740 <_ZNK10__cxxabiv121__vmi_class_type_info12__do_dyncastEiNS_17__class_type_info10__sub_kindEPKS1_PKvS4_S6_RNS1_16__dyncast_resultE+0x328>
 8003440:	9906      	ldr	r1, [sp, #24]
 8003442:	980b      	ldr	r0, [sp, #44]	@ 0x2c
 8003444:	f7ff ff7a 	bl	800333c <_ZNKSt9type_info7__equalERKS_>
 8003448:	2800      	cmp	r0, #0
 800344a:	f040 8162 	bne.w	8003712 <_ZNK10__cxxabiv121__vmi_class_type_info12__do_dyncastEiNS_17__class_type_info10__sub_kindEPKS1_PKvS4_S6_RNS1_16__dyncast_resultE+0x2fa>
 800344e:	f1b9 0f00 	cmp.w	r9, #0
 8003452:	bfa9      	itett	ge
 8003454:	9b1e      	ldrge	r3, [sp, #120]	@ 0x78
 8003456:	9007      	strlt	r0, [sp, #28]
 8003458:	eba3 0309 	subge.w	r3, r3, r9
 800345c:	9307      	strge	r3, [sp, #28]
 800345e:	9b0b      	ldr	r3, [sp, #44]	@ 0x2c
 8003460:	68de      	ldr	r6, [r3, #12]
 8003462:	1e77      	subs	r7, r6, #1
 8003464:	2e00      	cmp	r6, #0
 8003466:	f000 8165 	beq.w	8003734 <_ZNK10__cxxabiv121__vmi_class_type_info12__do_dyncastEiNS_17__class_type_info10__sub_kindEPKS1_PKvS4_S6_RNS1_16__dyncast_resultE+0x31c>
 800346a:	f04f 0c00 	mov.w	ip, #0
 800346e:	2301      	movs	r3, #1
 8003470:	f04f 0e02 	mov.w	lr, #2
 8003474:	46e0      	mov	r8, ip
 8003476:	9308      	str	r3, [sp, #32]
 8003478:	9b09      	ldr	r3, [sp, #36]	@ 0x24
 800347a:	f8cd c030 	str.w	ip, [sp, #48]	@ 0x30
 800347e:	f043 0301 	orr.w	r3, r3, #1
 8003482:	930a      	str	r3, [sp, #40]	@ 0x28
 8003484:	f8cd 9014 	str.w	r9, [sp, #20]
 8003488:	46e1      	mov	r9, ip
 800348a:	9b0b      	ldr	r3, [sp, #44]	@ 0x2c
 800348c:	f8cd e034 	str.w	lr, [sp, #52]	@ 0x34
 8003490:	eb03 06c6 	add.w	r6, r3, r6, lsl #3
 8003494:	68f1      	ldr	r1, [r6, #12]
 8003496:	e9cd 880f 	strd	r8, r8, [sp, #60]	@ 0x3c
 800349a:	07ca      	lsls	r2, r1, #31
 800349c:	68a0      	ldr	r0, [r4, #8]
 800349e:	bf48      	it	mi
 80034a0:	f8db 2000 	ldrmi.w	r2, [fp]
 80034a4:	ea4f 2321 	mov.w	r3, r1, asr #8
 80034a8:	9011      	str	r0, [sp, #68]	@ 0x44
 80034aa:	bf48      	it	mi
 80034ac:	58d3      	ldrmi	r3, [r2, r3]
 80034ae:	9d07      	ldr	r5, [sp, #28]
 80034b0:	bf4c      	ite	mi
 80034b2:	9a0a      	ldrmi	r2, [sp, #40]	@ 0x28
 80034b4:	9a09      	ldrpl	r2, [sp, #36]	@ 0x24
 80034b6:	445b      	add	r3, fp
 80034b8:	b145      	cbz	r5, 80034cc <_ZNK10__cxxabiv121__vmi_class_type_info12__do_dyncastEiNS_17__class_type_info10__sub_kindEPKS1_PKvS4_S6_RNS1_16__dyncast_resultE+0xb4>
 80034ba:	429d      	cmp	r5, r3
 80034bc:	bf2c      	ite	cs
 80034be:	2500      	movcs	r5, #0
 80034c0:	2501      	movcc	r5, #1
 80034c2:	f8dd c020 	ldr.w	ip, [sp, #32]
 80034c6:	4565      	cmp	r5, ip
 80034c8:	f000 809f 	beq.w	800360a <_ZNK10__cxxabiv121__vmi_class_type_info12__do_dyncastEiNS_17__class_type_info10__sub_kindEPKS1_PKvS4_S6_RNS1_16__dyncast_resultE+0x1f2>
 80034cc:	078d      	lsls	r5, r1, #30
 80034ce:	d405      	bmi.n	80034dc <_ZNK10__cxxabiv121__vmi_class_type_info12__do_dyncastEiNS_17__class_type_info10__sub_kindEPKS1_PKvS4_S6_RNS1_16__dyncast_resultE+0xc4>
 80034d0:	9905      	ldr	r1, [sp, #20]
 80034d2:	3102      	adds	r1, #2
 80034d4:	f000 8096 	beq.w	8003604 <_ZNK10__cxxabiv121__vmi_class_type_info12__do_dyncastEiNS_17__class_type_info10__sub_kindEPKS1_PKvS4_S6_RNS1_16__dyncast_resultE+0x1ec>
 80034d8:	f002 02fd 	and.w	r2, r2, #253	@ 0xfd
 80034dc:	68b0      	ldr	r0, [r6, #8]
 80034de:	ad0f      	add	r5, sp, #60	@ 0x3c
 80034e0:	6801      	ldr	r1, [r0, #0]
 80034e2:	9300      	str	r3, [sp, #0]
 80034e4:	9b1e      	ldr	r3, [sp, #120]	@ 0x78
 80034e6:	9503      	str	r5, [sp, #12]
 80034e8:	9302      	str	r3, [sp, #8]
 80034ea:	9b1d      	ldr	r3, [sp, #116]	@ 0x74
 80034ec:	9301      	str	r3, [sp, #4]
 80034ee:	69cd      	ldr	r5, [r1, #28]
 80034f0:	e9dd 1305 	ldrd	r1, r3, [sp, #20]
 80034f4:	47a8      	blx	r5
 80034f6:	7963      	ldrb	r3, [r4, #5]
 80034f8:	f89d 2041 	ldrb.w	r2, [sp, #65]	@ 0x41
 80034fc:	f89d 5042 	ldrb.w	r5, [sp, #66]	@ 0x42
 8003500:	990f      	ldr	r1, [sp, #60]	@ 0x3c
 8003502:	4313      	orrs	r3, r2
 8003504:	2d06      	cmp	r5, #6
 8003506:	468c      	mov	ip, r1
 8003508:	7163      	strb	r3, [r4, #5]
 800350a:	f000 8123 	beq.w	8003754 <_ZNK10__cxxabiv121__vmi_class_type_info12__do_dyncastEiNS_17__class_type_info10__sub_kindEPKS1_PKvS4_S6_RNS1_16__dyncast_resultE+0x33c>
 800350e:	2d02      	cmp	r5, #2
 8003510:	f000 8120 	beq.w	8003754 <_ZNK10__cxxabiv121__vmi_class_type_info12__do_dyncastEiNS_17__class_type_info10__sub_kindEPKS1_PKvS4_S6_RNS1_16__dyncast_resultE+0x33c>
 8003514:	6822      	ldr	r2, [r4, #0]
 8003516:	f1b9 0f00 	cmp.w	r9, #0
 800351a:	d168      	bne.n	80035ee <_ZNK10__cxxabiv121__vmi_class_type_info12__do_dyncastEiNS_17__class_type_info10__sub_kindEPKS1_PKvS4_S6_RNS1_16__dyncast_resultE+0x1d6>
 800351c:	2a00      	cmp	r2, #0
 800351e:	f000 80ab 	beq.w	8003678 <_ZNK10__cxxabiv121__vmi_class_type_info12__do_dyncastEiNS_17__class_type_info10__sub_kindEPKS1_PKvS4_S6_RNS1_16__dyncast_resultE+0x260>
 8003522:	4291      	cmp	r1, r2
 8003524:	d074      	beq.n	8003610 <_ZNK10__cxxabiv121__vmi_class_type_info12__do_dyncastEiNS_17__class_type_info10__sub_kindEPKS1_PKvS4_S6_RNS1_16__dyncast_resultE+0x1f8>
 8003526:	2900      	cmp	r1, #0
 8003528:	f000 80b2 	beq.w	8003690 <_ZNK10__cxxabiv121__vmi_class_type_info12__do_dyncastEiNS_17__class_type_info10__sub_kindEPKS1_PKvS4_S6_RNS1_16__dyncast_resultE+0x278>
 800352c:	2b03      	cmp	r3, #3
 800352e:	f894 a006 	ldrb.w	sl, [r4, #6]
 8003532:	d940      	bls.n	80035b6 <_ZNK10__cxxabiv121__vmi_class_type_info12__do_dyncastEiNS_17__class_type_info10__sub_kindEPKS1_PKvS4_S6_RNS1_16__dyncast_resultE+0x19e>
 8003534:	07d8      	lsls	r0, r3, #31
 8003536:	d502      	bpl.n	800353e <_ZNK10__cxxabiv121__vmi_class_type_info12__do_dyncastEiNS_17__class_type_info10__sub_kindEPKS1_PKvS4_S6_RNS1_16__dyncast_resultE+0x126>
 8003538:	68a0      	ldr	r0, [r4, #8]
 800353a:	0780      	lsls	r0, r0, #30
 800353c:	d43b      	bmi.n	80035b6 <_ZNK10__cxxabiv121__vmi_class_type_info12__do_dyncastEiNS_17__class_type_info10__sub_kindEPKS1_PKvS4_S6_RNS1_16__dyncast_resultE+0x19e>
 800353e:	f1ba 0f01 	cmp.w	sl, #1
 8003542:	bf38      	it	cc
 8003544:	f04f 0a01 	movcc.w	sl, #1
 8003548:	2d01      	cmp	r5, #1
 800354a:	bf38      	it	cc
 800354c:	2501      	movcc	r5, #1
 800354e:	fa5f fa8a 	uxtb.w	sl, sl
 8003552:	b2ed      	uxtb	r5, r5
 8003554:	ea85 030a 	eor.w	r3, r5, sl
 8003558:	b2db      	uxtb	r3, r3
 800355a:	2b03      	cmp	r3, #3
 800355c:	d97e      	bls.n	800365c <_ZNK10__cxxabiv121__vmi_class_type_info12__do_dyncastEiNS_17__class_type_info10__sub_kindEPKS1_PKvS4_S6_RNS1_16__dyncast_resultE+0x244>
 800355e:	2d03      	cmp	r5, #3
 8003560:	f240 80d5 	bls.w	800370e <_ZNK10__cxxabiv121__vmi_class_type_info12__do_dyncastEiNS_17__class_type_info10__sub_kindEPKS1_PKvS4_S6_RNS1_16__dyncast_resultE+0x2f6>
 8003564:	990f      	ldr	r1, [sp, #60]	@ 0x3c
 8003566:	f04f 0900 	mov.w	r9, #0
 800356a:	f89d 3040 	ldrb.w	r3, [sp, #64]	@ 0x40
 800356e:	6021      	str	r1, [r4, #0]
 8003570:	7123      	strb	r3, [r4, #4]
 8003572:	07a9      	lsls	r1, r5, #30
 8003574:	71a5      	strb	r5, [r4, #6]
 8003576:	f100 80dd 	bmi.w	8003734 <_ZNK10__cxxabiv121__vmi_class_type_info12__do_dyncastEiNS_17__class_type_info10__sub_kindEPKS1_PKvS4_S6_RNS1_16__dyncast_resultE+0x31c>
 800357a:	07ea      	lsls	r2, r5, #31
 800357c:	f140 80da 	bpl.w	8003734 <_ZNK10__cxxabiv121__vmi_class_type_info12__do_dyncastEiNS_17__class_type_info10__sub_kindEPKS1_PKvS4_S6_RNS1_16__dyncast_resultE+0x31c>
 8003580:	7963      	ldrb	r3, [r4, #5]
 8003582:	2b04      	cmp	r3, #4
 8003584:	d039      	beq.n	80035fa <_ZNK10__cxxabiv121__vmi_class_type_info12__do_dyncastEiNS_17__class_type_info10__sub_kindEPKS1_PKvS4_S6_RNS1_16__dyncast_resultE+0x1e2>
 8003586:	3f01      	subs	r7, #1
 8003588:	1c7b      	adds	r3, r7, #1
 800358a:	f1a6 0608 	sub.w	r6, r6, #8
 800358e:	d181      	bne.n	8003494 <_ZNK10__cxxabiv121__vmi_class_type_info12__do_dyncastEiNS_17__class_type_info10__sub_kindEPKS1_PKvS4_S6_RNS1_16__dyncast_resultE+0x7c>
 8003590:	9b0c      	ldr	r3, [sp, #48]	@ 0x30
 8003592:	46cc      	mov	ip, r9
 8003594:	f8dd e034 	ldr.w	lr, [sp, #52]	@ 0x34
 8003598:	2b00      	cmp	r3, #0
 800359a:	f000 80cd 	beq.w	8003738 <_ZNK10__cxxabiv121__vmi_class_type_info12__do_dyncastEiNS_17__class_type_info10__sub_kindEPKS1_PKvS4_S6_RNS1_16__dyncast_resultE+0x320>
 800359e:	f1be 0e01 	subs.w	lr, lr, #1
 80035a2:	f000 80c9 	beq.w	8003738 <_ZNK10__cxxabiv121__vmi_class_type_info12__do_dyncastEiNS_17__class_type_info10__sub_kindEPKS1_PKvS4_S6_RNS1_16__dyncast_resultE+0x320>
 80035a6:	9b0b      	ldr	r3, [sp, #44]	@ 0x2c
 80035a8:	68de      	ldr	r6, [r3, #12]
 80035aa:	2e00      	cmp	r6, #0
 80035ac:	d0f7      	beq.n	800359e <_ZNK10__cxxabiv121__vmi_class_type_info12__do_dyncastEiNS_17__class_type_info10__sub_kindEPKS1_PKvS4_S6_RNS1_16__dyncast_resultE+0x186>
 80035ae:	2300      	movs	r3, #0
 80035b0:	1e77      	subs	r7, r6, #1
 80035b2:	9308      	str	r3, [sp, #32]
 80035b4:	e768      	b.n	8003488 <_ZNK10__cxxabiv121__vmi_class_type_info12__do_dyncastEiNS_17__class_type_info10__sub_kindEPKS1_PKvS4_S6_RNS1_16__dyncast_resultE+0x70>
 80035b6:	f1ba 0f00 	cmp.w	sl, #0
 80035ba:	d02f      	beq.n	800361c <_ZNK10__cxxabiv121__vmi_class_type_info12__do_dyncastEiNS_17__class_type_info10__sub_kindEPKS1_PKvS4_S6_RNS1_16__dyncast_resultE+0x204>
 80035bc:	2d00      	cmp	r5, #0
 80035be:	d1c9      	bne.n	8003554 <_ZNK10__cxxabiv121__vmi_class_type_info12__do_dyncastEiNS_17__class_type_info10__sub_kindEPKS1_PKvS4_S6_RNS1_16__dyncast_resultE+0x13c>
 80035c0:	f1ba 0f03 	cmp.w	sl, #3
 80035c4:	f240 810c 	bls.w	80037e0 <_ZNK10__cxxabiv121__vmi_class_type_info12__do_dyncastEiNS_17__class_type_info10__sub_kindEPKS1_PKvS4_S6_RNS1_16__dyncast_resultE+0x3c8>
 80035c8:	f01a 0f01 	tst.w	sl, #1
 80035cc:	f000 8092 	beq.w	80036f4 <_ZNK10__cxxabiv121__vmi_class_type_info12__do_dyncastEiNS_17__class_type_info10__sub_kindEPKS1_PKvS4_S6_RNS1_16__dyncast_resultE+0x2dc>
 80035d0:	9b0b      	ldr	r3, [sp, #44]	@ 0x2c
 80035d2:	689b      	ldr	r3, [r3, #8]
 80035d4:	0798      	lsls	r0, r3, #30
 80035d6:	d431      	bmi.n	800363c <_ZNK10__cxxabiv121__vmi_class_type_info12__do_dyncastEiNS_17__class_type_info10__sub_kindEPKS1_PKvS4_S6_RNS1_16__dyncast_resultE+0x224>
 80035d8:	f08a 0301 	eor.w	r3, sl, #1
 80035dc:	b2db      	uxtb	r3, r3
 80035de:	2b03      	cmp	r3, #3
 80035e0:	d942      	bls.n	8003668 <_ZNK10__cxxabiv121__vmi_class_type_info12__do_dyncastEiNS_17__class_type_info10__sub_kindEPKS1_PKvS4_S6_RNS1_16__dyncast_resultE+0x250>
 80035e2:	f01a 0f02 	tst.w	sl, #2
 80035e6:	f884 a006 	strb.w	sl, [r4, #6]
 80035ea:	d0c9      	beq.n	8003580 <_ZNK10__cxxabiv121__vmi_class_type_info12__do_dyncastEiNS_17__class_type_info10__sub_kindEPKS1_PKvS4_S6_RNS1_16__dyncast_resultE+0x168>
 80035ec:	e0a2      	b.n	8003734 <_ZNK10__cxxabiv121__vmi_class_type_info12__do_dyncastEiNS_17__class_type_info10__sub_kindEPKS1_PKvS4_S6_RNS1_16__dyncast_resultE+0x31c>
 80035ee:	2a00      	cmp	r2, #0
 80035f0:	d197      	bne.n	8003522 <_ZNK10__cxxabiv121__vmi_class_type_info12__do_dyncastEiNS_17__class_type_info10__sub_kindEPKS1_PKvS4_S6_RNS1_16__dyncast_resultE+0x10a>
 80035f2:	2900      	cmp	r1, #0
 80035f4:	d19a      	bne.n	800352c <_ZNK10__cxxabiv121__vmi_class_type_info12__do_dyncastEiNS_17__class_type_info10__sub_kindEPKS1_PKvS4_S6_RNS1_16__dyncast_resultE+0x114>
 80035f6:	2b04      	cmp	r3, #4
 80035f8:	d1c5      	bne.n	8003586 <_ZNK10__cxxabiv121__vmi_class_type_info12__do_dyncastEiNS_17__class_type_info10__sub_kindEPKS1_PKvS4_S6_RNS1_16__dyncast_resultE+0x16e>
 80035fa:	46cc      	mov	ip, r9
 80035fc:	4660      	mov	r0, ip
 80035fe:	b013      	add	sp, #76	@ 0x4c
 8003600:	e8bd 8ff0 	ldmia.w	sp!, {r4, r5, r6, r7, r8, r9, sl, fp, pc}
 8003604:	0781      	lsls	r1, r0, #30
 8003606:	d0be      	beq.n	8003586 <_ZNK10__cxxabiv121__vmi_class_type_info12__do_dyncastEiNS_17__class_type_info10__sub_kindEPKS1_PKvS4_S6_RNS1_16__dyncast_resultE+0x16e>
 8003608:	e766      	b.n	80034d8 <_ZNK10__cxxabiv121__vmi_class_type_info12__do_dyncastEiNS_17__class_type_info10__sub_kindEPKS1_PKvS4_S6_RNS1_16__dyncast_resultE+0xc0>
 800360a:	2301      	movs	r3, #1
 800360c:	930c      	str	r3, [sp, #48]	@ 0x30
 800360e:	e7ba      	b.n	8003586 <_ZNK10__cxxabiv121__vmi_class_type_info12__do_dyncastEiNS_17__class_type_info10__sub_kindEPKS1_PKvS4_S6_RNS1_16__dyncast_resultE+0x16e>
 8003610:	7922      	ldrb	r2, [r4, #4]
 8003612:	f89d 1040 	ldrb.w	r1, [sp, #64]	@ 0x40
 8003616:	430a      	orrs	r2, r1
 8003618:	7122      	strb	r2, [r4, #4]
 800361a:	e7b2      	b.n	8003582 <_ZNK10__cxxabiv121__vmi_class_type_info12__do_dyncastEiNS_17__class_type_info10__sub_kindEPKS1_PKvS4_S6_RNS1_16__dyncast_resultE+0x16a>
 800361c:	2d03      	cmp	r5, #3
 800361e:	d953      	bls.n	80036c8 <_ZNK10__cxxabiv121__vmi_class_type_info12__do_dyncastEiNS_17__class_type_info10__sub_kindEPKS1_PKvS4_S6_RNS1_16__dyncast_resultE+0x2b0>
 8003620:	07e8      	lsls	r0, r5, #31
 8003622:	d43b      	bmi.n	800369c <_ZNK10__cxxabiv121__vmi_class_type_info12__do_dyncastEiNS_17__class_type_info10__sub_kindEPKS1_PKvS4_S6_RNS1_16__dyncast_resultE+0x284>
 8003624:	f085 0201 	eor.w	r2, r5, #1
 8003628:	b2d2      	uxtb	r2, r2
 800362a:	2a03      	cmp	r2, #3
 800362c:	d89b      	bhi.n	8003566 <_ZNK10__cxxabiv121__vmi_class_type_info12__do_dyncastEiNS_17__class_type_info10__sub_kindEPKS1_PKvS4_S6_RNS1_16__dyncast_resultE+0x14e>
 800362e:	f04f 0901 	mov.w	r9, #1
 8003632:	f8c4 8000 	str.w	r8, [r4]
 8003636:	f884 9006 	strb.w	r9, [r4, #6]
 800363a:	e7a2      	b.n	8003582 <_ZNK10__cxxabiv121__vmi_class_type_info12__do_dyncastEiNS_17__class_type_info10__sub_kindEPKS1_PKvS4_S6_RNS1_16__dyncast_resultE+0x16a>
 800363c:	9b05      	ldr	r3, [sp, #20]
 800363e:	468c      	mov	ip, r1
 8003640:	2b00      	cmp	r3, #0
 8003642:	f2c0 80a9 	blt.w	8003798 <_ZNK10__cxxabiv121__vmi_class_type_info12__do_dyncastEiNS_17__class_type_info10__sub_kindEPKS1_PKvS4_S6_RNS1_16__dyncast_resultE+0x380>
 8003646:	9a1e      	ldr	r2, [sp, #120]	@ 0x78
 8003648:	18cb      	adds	r3, r1, r3
 800364a:	429a      	cmp	r2, r3
 800364c:	d1c4      	bne.n	80035d8 <_ZNK10__cxxabiv121__vmi_class_type_info12__do_dyncastEiNS_17__class_type_info10__sub_kindEPKS1_PKvS4_S6_RNS1_16__dyncast_resultE+0x1c0>
 800364e:	f08a 0306 	eor.w	r3, sl, #6
 8003652:	b2db      	uxtb	r3, r3
 8003654:	2b03      	cmp	r3, #3
 8003656:	f200 80cb 	bhi.w	80037f0 <_ZNK10__cxxabiv121__vmi_class_type_info12__do_dyncastEiNS_17__class_type_info10__sub_kindEPKS1_PKvS4_S6_RNS1_16__dyncast_resultE+0x3d8>
 800365a:	2506      	movs	r5, #6
 800365c:	ea05 050a 	and.w	r5, r5, sl
 8003660:	b2ed      	uxtb	r5, r5
 8003662:	2d03      	cmp	r5, #3
 8003664:	f200 80ce 	bhi.w	8003804 <_ZNK10__cxxabiv121__vmi_class_type_info12__do_dyncastEiNS_17__class_type_info10__sub_kindEPKS1_PKvS4_S6_RNS1_16__dyncast_resultE+0x3ec>
 8003668:	f04f 0901 	mov.w	r9, #1
 800366c:	7963      	ldrb	r3, [r4, #5]
 800366e:	f8c4 8000 	str.w	r8, [r4]
 8003672:	f884 9006 	strb.w	r9, [r4, #6]
 8003676:	e784      	b.n	8003582 <_ZNK10__cxxabiv121__vmi_class_type_info12__do_dyncastEiNS_17__class_type_info10__sub_kindEPKS1_PKvS4_S6_RNS1_16__dyncast_resultE+0x16a>
 8003678:	f89d 2040 	ldrb.w	r2, [sp, #64]	@ 0x40
 800367c:	6021      	str	r1, [r4, #0]
 800367e:	7122      	strb	r2, [r4, #4]
 8003680:	b121      	cbz	r1, 800368c <_ZNK10__cxxabiv121__vmi_class_type_info12__do_dyncastEiNS_17__class_type_info10__sub_kindEPKS1_PKvS4_S6_RNS1_16__dyncast_resultE+0x274>
 8003682:	b14b      	cbz	r3, 8003698 <_ZNK10__cxxabiv121__vmi_class_type_info12__do_dyncastEiNS_17__class_type_info10__sub_kindEPKS1_PKvS4_S6_RNS1_16__dyncast_resultE+0x280>
 8003684:	9a0b      	ldr	r2, [sp, #44]	@ 0x2c
 8003686:	6892      	ldr	r2, [r2, #8]
 8003688:	07d5      	lsls	r5, r2, #31
 800368a:	d568      	bpl.n	800375e <_ZNK10__cxxabiv121__vmi_class_type_info12__do_dyncastEiNS_17__class_type_info10__sub_kindEPKS1_PKvS4_S6_RNS1_16__dyncast_resultE+0x346>
 800368c:	4681      	mov	r9, r0
 800368e:	e778      	b.n	8003582 <_ZNK10__cxxabiv121__vmi_class_type_info12__do_dyncastEiNS_17__class_type_info10__sub_kindEPKS1_PKvS4_S6_RNS1_16__dyncast_resultE+0x16a>
 8003690:	2800      	cmp	r0, #0
 8003692:	f43f af76 	beq.w	8003582 <_ZNK10__cxxabiv121__vmi_class_type_info12__do_dyncastEiNS_17__class_type_info10__sub_kindEPKS1_PKvS4_S6_RNS1_16__dyncast_resultE+0x16a>
 8003696:	e749      	b.n	800352c <_ZNK10__cxxabiv121__vmi_class_type_info12__do_dyncastEiNS_17__class_type_info10__sub_kindEPKS1_PKvS4_S6_RNS1_16__dyncast_resultE+0x114>
 8003698:	4681      	mov	r9, r0
 800369a:	e774      	b.n	8003586 <_ZNK10__cxxabiv121__vmi_class_type_info12__do_dyncastEiNS_17__class_type_info10__sub_kindEPKS1_PKvS4_S6_RNS1_16__dyncast_resultE+0x16e>
 800369c:	980b      	ldr	r0, [sp, #44]	@ 0x2c
 800369e:	6880      	ldr	r0, [r0, #8]
 80036a0:	0780      	lsls	r0, r0, #30
 80036a2:	d5bf      	bpl.n	8003624 <_ZNK10__cxxabiv121__vmi_class_type_info12__do_dyncastEiNS_17__class_type_info10__sub_kindEPKS1_PKvS4_S6_RNS1_16__dyncast_resultE+0x20c>
 80036a4:	9805      	ldr	r0, [sp, #20]
 80036a6:	2800      	cmp	r0, #0
 80036a8:	f2c0 8085 	blt.w	80037b6 <_ZNK10__cxxabiv121__vmi_class_type_info12__do_dyncastEiNS_17__class_type_info10__sub_kindEPKS1_PKvS4_S6_RNS1_16__dyncast_resultE+0x39e>
 80036ac:	9805      	ldr	r0, [sp, #20]
 80036ae:	4402      	add	r2, r0
 80036b0:	981e      	ldr	r0, [sp, #120]	@ 0x78
 80036b2:	4290      	cmp	r0, r2
 80036b4:	d1b6      	bne.n	8003624 <_ZNK10__cxxabiv121__vmi_class_type_info12__do_dyncastEiNS_17__class_type_info10__sub_kindEPKS1_PKvS4_S6_RNS1_16__dyncast_resultE+0x20c>
 80036b6:	f085 0306 	eor.w	r3, r5, #6
 80036ba:	b2db      	uxtb	r3, r3
 80036bc:	2b03      	cmp	r3, #3
 80036be:	f63f af52 	bhi.w	8003566 <_ZNK10__cxxabiv121__vmi_class_type_info12__do_dyncastEiNS_17__class_type_info10__sub_kindEPKS1_PKvS4_S6_RNS1_16__dyncast_resultE+0x14e>
 80036c2:	f04f 0a06 	mov.w	sl, #6
 80036c6:	e7c9      	b.n	800365c <_ZNK10__cxxabiv121__vmi_class_type_info12__do_dyncastEiNS_17__class_type_info10__sub_kindEPKS1_PKvS4_S6_RNS1_16__dyncast_resultE+0x244>
 80036c8:	9805      	ldr	r0, [sp, #20]
 80036ca:	2800      	cmp	r0, #0
 80036cc:	da49      	bge.n	8003762 <_ZNK10__cxxabiv121__vmi_class_type_info12__do_dyncastEiNS_17__class_type_info10__sub_kindEPKS1_PKvS4_S6_RNS1_16__dyncast_resultE+0x34a>
 80036ce:	3002      	adds	r0, #2
 80036d0:	d0ad      	beq.n	800362e <_ZNK10__cxxabiv121__vmi_class_type_info12__do_dyncastEiNS_17__class_type_info10__sub_kindEPKS1_PKvS4_S6_RNS1_16__dyncast_resultE+0x216>
 80036d2:	9b1e      	ldr	r3, [sp, #120]	@ 0x78
 80036d4:	9806      	ldr	r0, [sp, #24]
 80036d6:	9300      	str	r3, [sp, #0]
 80036d8:	6803      	ldr	r3, [r0, #0]
 80036da:	9905      	ldr	r1, [sp, #20]
 80036dc:	f8d3 a020 	ldr.w	sl, [r3, #32]
 80036e0:	9b1d      	ldr	r3, [sp, #116]	@ 0x74
 80036e2:	47d0      	blx	sl
 80036e4:	4682      	mov	sl, r0
 80036e6:	b96d      	cbnz	r5, 8003704 <_ZNK10__cxxabiv121__vmi_class_type_info12__do_dyncastEiNS_17__class_type_info10__sub_kindEPKS1_PKvS4_S6_RNS1_16__dyncast_resultE+0x2ec>
 80036e8:	2803      	cmp	r0, #3
 80036ea:	f240 8092 	bls.w	8003812 <_ZNK10__cxxabiv121__vmi_class_type_info12__do_dyncastEiNS_17__class_type_info10__sub_kindEPKS1_PKvS4_S6_RNS1_16__dyncast_resultE+0x3fa>
 80036ee:	f010 0f01 	tst.w	r0, #1
 80036f2:	d14a      	bne.n	800378a <_ZNK10__cxxabiv121__vmi_class_type_info12__do_dyncastEiNS_17__class_type_info10__sub_kindEPKS1_PKvS4_S6_RNS1_16__dyncast_resultE+0x372>
 80036f4:	f08a 0301 	eor.w	r3, sl, #1
 80036f8:	b2db      	uxtb	r3, r3
 80036fa:	2b03      	cmp	r3, #3
 80036fc:	d9b4      	bls.n	8003668 <_ZNK10__cxxabiv121__vmi_class_type_info12__do_dyncastEiNS_17__class_type_info10__sub_kindEPKS1_PKvS4_S6_RNS1_16__dyncast_resultE+0x250>
 80036fe:	f884 a006 	strb.w	sl, [r4, #6]
 8003702:	e017      	b.n	8003734 <_ZNK10__cxxabiv121__vmi_class_type_info12__do_dyncastEiNS_17__class_type_info10__sub_kindEPKS1_PKvS4_S6_RNS1_16__dyncast_resultE+0x31c>
 8003704:	ea85 0300 	eor.w	r3, r5, r0
 8003708:	b2db      	uxtb	r3, r3
 800370a:	2b03      	cmp	r3, #3
 800370c:	d9ac      	bls.n	8003668 <_ZNK10__cxxabiv121__vmi_class_type_info12__do_dyncastEiNS_17__class_type_info10__sub_kindEPKS1_PKvS4_S6_RNS1_16__dyncast_resultE+0x250>
 800370e:	4655      	mov	r5, sl
 8003710:	e72f      	b.n	8003572 <_ZNK10__cxxabiv121__vmi_class_type_info12__do_dyncastEiNS_17__class_type_info10__sub_kindEPKS1_PKvS4_S6_RNS1_16__dyncast_resultE+0x15a>
 8003712:	9b09      	ldr	r3, [sp, #36]	@ 0x24
 8003714:	f1b9 0f00 	cmp.w	r9, #0
 8003718:	f8c4 b000 	str.w	fp, [r4]
 800371c:	7123      	strb	r3, [r4, #4]
 800371e:	db2e      	blt.n	800377e <_ZNK10__cxxabiv121__vmi_class_type_info12__do_dyncastEiNS_17__class_type_info10__sub_kindEPKS1_PKvS4_S6_RNS1_16__dyncast_resultE+0x366>
 8003720:	9b1e      	ldr	r3, [sp, #120]	@ 0x78
 8003722:	44cb      	add	fp, r9
 8003724:	455b      	cmp	r3, fp
 8003726:	bf14      	ite	ne
 8003728:	f04f 0b01 	movne.w	fp, #1
 800372c:	f04f 0b06 	moveq.w	fp, #6
 8003730:	f884 b006 	strb.w	fp, [r4, #6]
 8003734:	f04f 0c00 	mov.w	ip, #0
 8003738:	4660      	mov	r0, ip
 800373a:	b013      	add	sp, #76	@ 0x4c
 800373c:	e8bd 8ff0 	ldmia.w	sp!, {r4, r5, r6, r7, r8, r9, sl, fp, pc}
 8003740:	991d      	ldr	r1, [sp, #116]	@ 0x74
 8003742:	980b      	ldr	r0, [sp, #44]	@ 0x2c
 8003744:	f7ff fdfa 	bl	800333c <_ZNKSt9type_info7__equalERKS_>
 8003748:	2800      	cmp	r0, #0
 800374a:	f43f ae79 	beq.w	8003440 <_ZNK10__cxxabiv121__vmi_class_type_info12__do_dyncastEiNS_17__class_type_info10__sub_kindEPKS1_PKvS4_S6_RNS1_16__dyncast_resultE+0x28>
 800374e:	9b09      	ldr	r3, [sp, #36]	@ 0x24
 8003750:	7163      	strb	r3, [r4, #5]
 8003752:	e7ef      	b.n	8003734 <_ZNK10__cxxabiv121__vmi_class_type_info12__do_dyncastEiNS_17__class_type_info10__sub_kindEPKS1_PKvS4_S6_RNS1_16__dyncast_resultE+0x31c>
 8003754:	f89d 3040 	ldrb.w	r3, [sp, #64]	@ 0x40
 8003758:	6021      	str	r1, [r4, #0]
 800375a:	7123      	strb	r3, [r4, #4]
 800375c:	71a5      	strb	r5, [r4, #6]
 800375e:	4684      	mov	ip, r0
 8003760:	e7ea      	b.n	8003738 <_ZNK10__cxxabiv121__vmi_class_type_info12__do_dyncastEiNS_17__class_type_info10__sub_kindEPKS1_PKvS4_S6_RNS1_16__dyncast_resultE+0x320>
 8003762:	9805      	ldr	r0, [sp, #20]
 8003764:	f8dd c078 	ldr.w	ip, [sp, #120]	@ 0x78
 8003768:	4402      	add	r2, r0
 800376a:	4594      	cmp	ip, r2
 800376c:	d047      	beq.n	80037fe <_ZNK10__cxxabiv121__vmi_class_type_info12__do_dyncastEiNS_17__class_type_info10__sub_kindEPKS1_PKvS4_S6_RNS1_16__dyncast_resultE+0x3e6>
 800376e:	2d00      	cmp	r5, #0
 8003770:	f47f af5d 	bne.w	800362e <_ZNK10__cxxabiv121__vmi_class_type_info12__do_dyncastEiNS_17__class_type_info10__sub_kindEPKS1_PKvS4_S6_RNS1_16__dyncast_resultE+0x216>
 8003774:	180a      	adds	r2, r1, r0
 8003776:	4594      	cmp	ip, r2
 8003778:	f47f af59 	bne.w	800362e <_ZNK10__cxxabiv121__vmi_class_type_info12__do_dyncastEiNS_17__class_type_info10__sub_kindEPKS1_PKvS4_S6_RNS1_16__dyncast_resultE+0x216>
 800377c:	e038      	b.n	80037f0 <_ZNK10__cxxabiv121__vmi_class_type_info12__do_dyncastEiNS_17__class_type_info10__sub_kindEPKS1_PKvS4_S6_RNS1_16__dyncast_resultE+0x3d8>
 800377e:	f119 0f02 	cmn.w	r9, #2
 8003782:	d1d7      	bne.n	8003734 <_ZNK10__cxxabiv121__vmi_class_type_info12__do_dyncastEiNS_17__class_type_info10__sub_kindEPKS1_PKvS4_S6_RNS1_16__dyncast_resultE+0x31c>
 8003784:	2301      	movs	r3, #1
 8003786:	71a3      	strb	r3, [r4, #6]
 8003788:	e7d4      	b.n	8003734 <_ZNK10__cxxabiv121__vmi_class_type_info12__do_dyncastEiNS_17__class_type_info10__sub_kindEPKS1_PKvS4_S6_RNS1_16__dyncast_resultE+0x31c>
 800378a:	9b0b      	ldr	r3, [sp, #44]	@ 0x2c
 800378c:	689b      	ldr	r3, [r3, #8]
 800378e:	079d      	lsls	r5, r3, #30
 8003790:	f57f af22 	bpl.w	80035d8 <_ZNK10__cxxabiv121__vmi_class_type_info12__do_dyncastEiNS_17__class_type_info10__sub_kindEPKS1_PKvS4_S6_RNS1_16__dyncast_resultE+0x1c0>
 8003794:	f8dd c03c 	ldr.w	ip, [sp, #60]	@ 0x3c
 8003798:	9b05      	ldr	r3, [sp, #20]
 800379a:	3302      	adds	r3, #2
 800379c:	f43f af1c 	beq.w	80035d8 <_ZNK10__cxxabiv121__vmi_class_type_info12__do_dyncastEiNS_17__class_type_info10__sub_kindEPKS1_PKvS4_S6_RNS1_16__dyncast_resultE+0x1c0>
 80037a0:	9b1e      	ldr	r3, [sp, #120]	@ 0x78
 80037a2:	9806      	ldr	r0, [sp, #24]
 80037a4:	9300      	str	r3, [sp, #0]
 80037a6:	6803      	ldr	r3, [r0, #0]
 80037a8:	4662      	mov	r2, ip
 80037aa:	6a1d      	ldr	r5, [r3, #32]
 80037ac:	9905      	ldr	r1, [sp, #20]
 80037ae:	9b1d      	ldr	r3, [sp, #116]	@ 0x74
 80037b0:	47a8      	blx	r5
 80037b2:	4605      	mov	r5, r0
 80037b4:	e6ce      	b.n	8003554 <_ZNK10__cxxabiv121__vmi_class_type_info12__do_dyncastEiNS_17__class_type_info10__sub_kindEPKS1_PKvS4_S6_RNS1_16__dyncast_resultE+0x13c>
 80037b6:	9805      	ldr	r0, [sp, #20]
 80037b8:	3002      	adds	r0, #2
 80037ba:	f43f af33 	beq.w	8003624 <_ZNK10__cxxabiv121__vmi_class_type_info12__do_dyncastEiNS_17__class_type_info10__sub_kindEPKS1_PKvS4_S6_RNS1_16__dyncast_resultE+0x20c>
 80037be:	9b1e      	ldr	r3, [sp, #120]	@ 0x78
 80037c0:	9806      	ldr	r0, [sp, #24]
 80037c2:	9300      	str	r3, [sp, #0]
 80037c4:	6803      	ldr	r3, [r0, #0]
 80037c6:	9905      	ldr	r1, [sp, #20]
 80037c8:	f8d3 9020 	ldr.w	r9, [r3, #32]
 80037cc:	9b1d      	ldr	r3, [sp, #116]	@ 0x74
 80037ce:	47c8      	blx	r9
 80037d0:	ea85 0300 	eor.w	r3, r5, r0
 80037d4:	b2db      	uxtb	r3, r3
 80037d6:	2b03      	cmp	r3, #3
 80037d8:	4682      	mov	sl, r0
 80037da:	f67f af3f 	bls.w	800365c <_ZNK10__cxxabiv121__vmi_class_type_info12__do_dyncastEiNS_17__class_type_info10__sub_kindEPKS1_PKvS4_S6_RNS1_16__dyncast_resultE+0x244>
 80037de:	e6c1      	b.n	8003564 <_ZNK10__cxxabiv121__vmi_class_type_info12__do_dyncastEiNS_17__class_type_info10__sub_kindEPKS1_PKvS4_S6_RNS1_16__dyncast_resultE+0x14c>
 80037e0:	9a05      	ldr	r2, [sp, #20]
 80037e2:	2a00      	cmp	r2, #0
 80037e4:	db18      	blt.n	8003818 <_ZNK10__cxxabiv121__vmi_class_type_info12__do_dyncastEiNS_17__class_type_info10__sub_kindEPKS1_PKvS4_S6_RNS1_16__dyncast_resultE+0x400>
 80037e6:	981e      	ldr	r0, [sp, #120]	@ 0x78
 80037e8:	188a      	adds	r2, r1, r2
 80037ea:	4290      	cmp	r0, r2
 80037ec:	f47f af1f 	bne.w	800362e <_ZNK10__cxxabiv121__vmi_class_type_info12__do_dyncastEiNS_17__class_type_info10__sub_kindEPKS1_PKvS4_S6_RNS1_16__dyncast_resultE+0x216>
 80037f0:	2306      	movs	r3, #6
 80037f2:	f89d 2040 	ldrb.w	r2, [sp, #64]	@ 0x40
 80037f6:	6021      	str	r1, [r4, #0]
 80037f8:	7122      	strb	r2, [r4, #4]
 80037fa:	71a3      	strb	r3, [r4, #6]
 80037fc:	e79a      	b.n	8003734 <_ZNK10__cxxabiv121__vmi_class_type_info12__do_dyncastEiNS_17__class_type_info10__sub_kindEPKS1_PKvS4_S6_RNS1_16__dyncast_resultE+0x31c>
 80037fe:	2306      	movs	r3, #6
 8003800:	71a3      	strb	r3, [r4, #6]
 8003802:	e797      	b.n	8003734 <_ZNK10__cxxabiv121__vmi_class_type_info12__do_dyncastEiNS_17__class_type_info10__sub_kindEPKS1_PKvS4_S6_RNS1_16__dyncast_resultE+0x31c>
 8003804:	2200      	movs	r2, #0
 8003806:	2302      	movs	r3, #2
 8003808:	f04f 0c01 	mov.w	ip, #1
 800380c:	6022      	str	r2, [r4, #0]
 800380e:	71a3      	strb	r3, [r4, #6]
 8003810:	e792      	b.n	8003738 <_ZNK10__cxxabiv121__vmi_class_type_info12__do_dyncastEiNS_17__class_type_info10__sub_kindEPKS1_PKvS4_S6_RNS1_16__dyncast_resultE+0x320>
 8003812:	f8dd c03c 	ldr.w	ip, [sp, #60]	@ 0x3c
 8003816:	e7c3      	b.n	80037a0 <_ZNK10__cxxabiv121__vmi_class_type_info12__do_dyncastEiNS_17__class_type_info10__sub_kindEPKS1_PKvS4_S6_RNS1_16__dyncast_resultE+0x388>
 8003818:	9a05      	ldr	r2, [sp, #20]
 800381a:	3202      	adds	r2, #2
 800381c:	d1c0      	bne.n	80037a0 <_ZNK10__cxxabiv121__vmi_class_type_info12__do_dyncastEiNS_17__class_type_info10__sub_kindEPKS1_PKvS4_S6_RNS1_16__dyncast_resultE+0x388>
 800381e:	e706      	b.n	800362e <_ZNK10__cxxabiv121__vmi_class_type_info12__do_dyncastEiNS_17__class_type_info10__sub_kindEPKS1_PKvS4_S6_RNS1_16__dyncast_resultE+0x216>

08003820 <_ZNK10__cxxabiv121__vmi_class_type_info11__do_upcastEPKNS_17__class_type_infoEPKvRNS1_15__upcast_resultE>:
 8003820:	e92d 4ff0 	stmdb	sp!, {r4, r5, r6, r7, r8, r9, sl, fp, lr}
 8003824:	b089      	sub	sp, #36	@ 0x24
 8003826:	4604      	mov	r4, r0
 8003828:	4691      	mov	r9, r2
 800382a:	4698      	mov	r8, r3
 800382c:	e9cd 1002 	strd	r1, r0, [sp, #8]
 8003830:	f7ff fcc2 	bl	80031b8 <_ZNK10__cxxabiv117__class_type_info11__do_upcastEPKS0_PKvRNS0_15__upcast_resultE>
 8003834:	2800      	cmp	r0, #0
 8003836:	d171      	bne.n	800391c <_ZNK10__cxxabiv121__vmi_class_type_info11__do_upcastEPKNS_17__class_type_infoEPKvRNS1_15__upcast_resultE+0xfc>
 8003838:	f8d8 3008 	ldr.w	r3, [r8, #8]
 800383c:	06da      	lsls	r2, r3, #27
 800383e:	9a03      	ldr	r2, [sp, #12]
 8003840:	bf48      	it	mi
 8003842:	68a3      	ldrmi	r3, [r4, #8]
 8003844:	68d4      	ldr	r4, [r2, #12]
 8003846:	1e66      	subs	r6, r4, #1
 8003848:	2c00      	cmp	r4, #0
 800384a:	d049      	beq.n	80038e0 <_ZNK10__cxxabiv121__vmi_class_type_info11__do_upcastEPKNS_17__class_type_infoEPKvRNS1_15__upcast_resultE+0xc0>
 800384c:	2500      	movs	r5, #0
 800384e:	9a03      	ldr	r2, [sp, #12]
 8003850:	eb02 04c4 	add.w	r4, r2, r4, lsl #3
 8003854:	f003 0201 	and.w	r2, r3, #1
 8003858:	e9cd 2300 	strd	r2, r3, [sp]
 800385c:	9b01      	ldr	r3, [sp, #4]
 800385e:	68e2      	ldr	r2, [r4, #12]
 8003860:	e9cd 3506 	strd	r3, r5, [sp, #24]
 8003864:	9b00      	ldr	r3, [sp, #0]
 8003866:	f002 0702 	and.w	r7, r2, #2
 800386a:	433b      	orrs	r3, r7
 800386c:	9504      	str	r5, [sp, #16]
 800386e:	f88d 5014 	strb.w	r5, [sp, #20]
 8003872:	f002 0a01 	and.w	sl, r2, #1
 8003876:	d02e      	beq.n	80038d6 <_ZNK10__cxxabiv121__vmi_class_type_info11__do_upcastEPKNS_17__class_type_infoEPKvRNS1_15__upcast_resultE+0xb6>
 8003878:	f1b9 0f00 	cmp.w	r9, #0
 800387c:	d038      	beq.n	80038f0 <_ZNK10__cxxabiv121__vmi_class_type_info11__do_upcastEPKNS_17__class_type_infoEPKvRNS1_15__upcast_resultE+0xd0>
 800387e:	1212      	asrs	r2, r2, #8
 8003880:	f1ba 0f00 	cmp.w	sl, #0
 8003884:	d002      	beq.n	800388c <_ZNK10__cxxabiv121__vmi_class_type_info11__do_upcastEPKNS_17__class_type_infoEPKvRNS1_15__upcast_resultE+0x6c>
 8003886:	f8d9 3000 	ldr.w	r3, [r9]
 800388a:	589a      	ldr	r2, [r3, r2]
 800388c:	444a      	add	r2, r9
 800388e:	68a0      	ldr	r0, [r4, #8]
 8003890:	ab04      	add	r3, sp, #16
 8003892:	6801      	ldr	r1, [r0, #0]
 8003894:	f8d1 b018 	ldr.w	fp, [r1, #24]
 8003898:	9902      	ldr	r1, [sp, #8]
 800389a:	47d8      	blx	fp
 800389c:	b1d8      	cbz	r0, 80038d6 <_ZNK10__cxxabiv121__vmi_class_type_info11__do_upcastEPKNS_17__class_type_infoEPKvRNS1_15__upcast_resultE+0xb6>
 800389e:	9b07      	ldr	r3, [sp, #28]
 80038a0:	2b08      	cmp	r3, #8
 80038a2:	d027      	beq.n	80038f4 <_ZNK10__cxxabiv121__vmi_class_type_info11__do_upcastEPKNS_17__class_type_infoEPKvRNS1_15__upcast_resultE+0xd4>
 80038a4:	f89d 3014 	ldrb.w	r3, [sp, #20]
 80038a8:	2b03      	cmp	r3, #3
 80038aa:	d904      	bls.n	80038b6 <_ZNK10__cxxabiv121__vmi_class_type_info11__do_upcastEPKNS_17__class_type_infoEPKvRNS1_15__upcast_resultE+0x96>
 80038ac:	b91f      	cbnz	r7, 80038b6 <_ZNK10__cxxabiv121__vmi_class_type_info11__do_upcastEPKNS_17__class_type_infoEPKvRNS1_15__upcast_resultE+0x96>
 80038ae:	f023 0302 	bic.w	r3, r3, #2
 80038b2:	f88d 3014 	strb.w	r3, [sp, #20]
 80038b6:	f8d8 100c 	ldr.w	r1, [r8, #12]
 80038ba:	b309      	cbz	r1, 8003900 <_ZNK10__cxxabiv121__vmi_class_type_info11__do_upcastEPKNS_17__class_type_infoEPKvRNS1_15__upcast_resultE+0xe0>
 80038bc:	f8d8 3000 	ldr.w	r3, [r8]
 80038c0:	9a04      	ldr	r2, [sp, #16]
 80038c2:	4293      	cmp	r3, r2
 80038c4:	d142      	bne.n	800394c <_ZNK10__cxxabiv121__vmi_class_type_info11__do_upcastEPKNS_17__class_type_infoEPKvRNS1_15__upcast_resultE+0x12c>
 80038c6:	b36b      	cbz	r3, 8003924 <_ZNK10__cxxabiv121__vmi_class_type_info11__do_upcastEPKNS_17__class_type_infoEPKvRNS1_15__upcast_resultE+0x104>
 80038c8:	f898 3004 	ldrb.w	r3, [r8, #4]
 80038cc:	f89d 2014 	ldrb.w	r2, [sp, #20]
 80038d0:	4313      	orrs	r3, r2
 80038d2:	f888 3004 	strb.w	r3, [r8, #4]
 80038d6:	3e01      	subs	r6, #1
 80038d8:	1c77      	adds	r7, r6, #1
 80038da:	f1a4 0408 	sub.w	r4, r4, #8
 80038de:	d1bd      	bne.n	800385c <_ZNK10__cxxabiv121__vmi_class_type_info11__do_upcastEPKNS_17__class_type_infoEPKvRNS1_15__upcast_resultE+0x3c>
 80038e0:	f898 0004 	ldrb.w	r0, [r8, #4]
 80038e4:	3800      	subs	r0, #0
 80038e6:	bf18      	it	ne
 80038e8:	2001      	movne	r0, #1
 80038ea:	b009      	add	sp, #36	@ 0x24
 80038ec:	e8bd 8ff0 	ldmia.w	sp!, {r4, r5, r6, r7, r8, r9, sl, fp, pc}
 80038f0:	464a      	mov	r2, r9
 80038f2:	e7cc      	b.n	800388e <_ZNK10__cxxabiv121__vmi_class_type_info11__do_upcastEPKNS_17__class_type_infoEPKvRNS1_15__upcast_resultE+0x6e>
 80038f4:	f1ba 0f00 	cmp.w	sl, #0
 80038f8:	d0d4      	beq.n	80038a4 <_ZNK10__cxxabiv121__vmi_class_type_info11__do_upcastEPKNS_17__class_type_infoEPKvRNS1_15__upcast_resultE+0x84>
 80038fa:	68a3      	ldr	r3, [r4, #8]
 80038fc:	9307      	str	r3, [sp, #28]
 80038fe:	e7d1      	b.n	80038a4 <_ZNK10__cxxabiv121__vmi_class_type_info11__do_upcastEPKNS_17__class_type_infoEPKvRNS1_15__upcast_resultE+0x84>
 8003900:	ab04      	add	r3, sp, #16
 8003902:	cb0f      	ldmia	r3, {r0, r1, r2, r3}
 8003904:	e888 000f 	stmia.w	r8, {r0, r1, r2, r3}
 8003908:	f898 3004 	ldrb.w	r3, [r8, #4]
 800390c:	2b03      	cmp	r3, #3
 800390e:	d905      	bls.n	800391c <_ZNK10__cxxabiv121__vmi_class_type_info11__do_upcastEPKNS_17__class_type_infoEPKvRNS1_15__upcast_resultE+0xfc>
 8003910:	0798      	lsls	r0, r3, #30
 8003912:	d514      	bpl.n	800393e <_ZNK10__cxxabiv121__vmi_class_type_info11__do_upcastEPKNS_17__class_type_infoEPKvRNS1_15__upcast_resultE+0x11e>
 8003914:	9b03      	ldr	r3, [sp, #12]
 8003916:	689b      	ldr	r3, [r3, #8]
 8003918:	07d9      	lsls	r1, r3, #31
 800391a:	d4dc      	bmi.n	80038d6 <_ZNK10__cxxabiv121__vmi_class_type_info11__do_upcastEPKNS_17__class_type_infoEPKvRNS1_15__upcast_resultE+0xb6>
 800391c:	2001      	movs	r0, #1
 800391e:	b009      	add	sp, #36	@ 0x24
 8003920:	e8bd 8ff0 	ldmia.w	sp!, {r4, r5, r6, r7, r8, r9, sl, fp, pc}
 8003924:	9807      	ldr	r0, [sp, #28]
 8003926:	2808      	cmp	r0, #8
 8003928:	d005      	beq.n	8003936 <_ZNK10__cxxabiv121__vmi_class_type_info11__do_upcastEPKNS_17__class_type_infoEPKvRNS1_15__upcast_resultE+0x116>
 800392a:	2908      	cmp	r1, #8
 800392c:	d003      	beq.n	8003936 <_ZNK10__cxxabiv121__vmi_class_type_info11__do_upcastEPKNS_17__class_type_infoEPKvRNS1_15__upcast_resultE+0x116>
 800392e:	f7ff fd05 	bl	800333c <_ZNKSt9type_info7__equalERKS_>
 8003932:	2800      	cmp	r0, #0
 8003934:	d1c8      	bne.n	80038c8 <_ZNK10__cxxabiv121__vmi_class_type_info11__do_upcastEPKNS_17__class_type_infoEPKvRNS1_15__upcast_resultE+0xa8>
 8003936:	2302      	movs	r3, #2
 8003938:	f888 3004 	strb.w	r3, [r8, #4]
 800393c:	e7ee      	b.n	800391c <_ZNK10__cxxabiv121__vmi_class_type_info11__do_upcastEPKNS_17__class_type_infoEPKvRNS1_15__upcast_resultE+0xfc>
 800393e:	07da      	lsls	r2, r3, #31
 8003940:	d5ec      	bpl.n	800391c <_ZNK10__cxxabiv121__vmi_class_type_info11__do_upcastEPKNS_17__class_type_infoEPKvRNS1_15__upcast_resultE+0xfc>
 8003942:	9b03      	ldr	r3, [sp, #12]
 8003944:	689b      	ldr	r3, [r3, #8]
 8003946:	079b      	lsls	r3, r3, #30
 8003948:	d4c5      	bmi.n	80038d6 <_ZNK10__cxxabiv121__vmi_class_type_info11__do_upcastEPKNS_17__class_type_infoEPKvRNS1_15__upcast_resultE+0xb6>
 800394a:	e7e7      	b.n	800391c <_ZNK10__cxxabiv121__vmi_class_type_info11__do_upcastEPKNS_17__class_type_infoEPKvRNS1_15__upcast_resultE+0xfc>
 800394c:	2200      	movs	r2, #0
 800394e:	2302      	movs	r3, #2
 8003950:	2001      	movs	r0, #1
 8003952:	f8c8 2000 	str.w	r2, [r8]
 8003956:	f888 3004 	strb.w	r3, [r8, #4]
 800395a:	e7e0      	b.n	800391e <_ZNK10__cxxabiv121__vmi_class_type_info11__do_upcastEPKNS_17__class_type_infoEPKvRNS1_15__upcast_resultE+0xfe>

0800395c <_ZN9__gnu_cxx15__concat_size_tEPcjj>:
 800395c:	e92d 43f8 	stmdb	sp!, {r3, r4, r5, r6, r7, r8, r9, lr}
 8003960:	af00      	add	r7, sp, #0
 8003962:	b084      	sub	sp, #16
 8003964:	f10d 090c 	add.w	r9, sp, #12
 8003968:	46e8      	mov	r8, sp
 800396a:	46ce      	mov	lr, r9
 800396c:	4e10      	ldr	r6, [pc, #64]	@ (80039b0 <_ZN9__gnu_cxx15__concat_size_tEPcjj+0x54>)
 800396e:	4d11      	ldr	r5, [pc, #68]	@ (80039b4 <_ZN9__gnu_cxx15__concat_size_tEPcjj+0x58>)
 8003970:	4614      	mov	r4, r2
 8003972:	fba5 c302 	umull	ip, r3, r5, r2
 8003976:	08db      	lsrs	r3, r3, #3
 8003978:	eb03 0c83 	add.w	ip, r3, r3, lsl #2
 800397c:	eba2 0c4c 	sub.w	ip, r2, ip, lsl #1
 8003980:	f816 c00c 	ldrb.w	ip, [r6, ip]
 8003984:	2c09      	cmp	r4, #9
 8003986:	461a      	mov	r2, r3
 8003988:	f80e cd01 	strb.w	ip, [lr, #-1]!
 800398c:	d8f0      	bhi.n	8003970 <_ZN9__gnu_cxx15__concat_size_tEPcjj+0x14>
 800398e:	eba9 090e 	sub.w	r9, r9, lr
 8003992:	4589      	cmp	r9, r1
 8003994:	d809      	bhi.n	80039aa <_ZN9__gnu_cxx15__concat_size_tEPcjj+0x4e>
 8003996:	f1c9 010c 	rsb	r1, r9, #12
 800399a:	464a      	mov	r2, r9
 800399c:	4441      	add	r1, r8
 800399e:	f001 fb9d 	bl	80050dc <memcpy>
 80039a2:	4648      	mov	r0, r9
 80039a4:	46bd      	mov	sp, r7
 80039a6:	e8bd 83f8 	ldmia.w	sp!, {r3, r4, r5, r6, r7, r8, r9, pc}
 80039aa:	f04f 39ff 	mov.w	r9, #4294967295	@ 0xffffffff
 80039ae:	e7f8      	b.n	80039a2 <_ZN9__gnu_cxx15__concat_size_tEPcjj+0x46>
 80039b0:	0800784c 	.word	0x0800784c
 80039b4:	cccccccd 	.word	0xcccccccd

080039b8 <_ZN9__gnu_cxx15__snprintf_liteEPcjPKcSt9__va_list>:
 80039b8:	e92d 41f0 	stmdb	sp!, {r4, r5, r6, r7, r8, lr}
 80039bc:	4607      	mov	r7, r0
 80039be:	7810      	ldrb	r0, [r2, #0]
 80039c0:	3901      	subs	r1, #1
 80039c2:	463c      	mov	r4, r7
 80039c4:	187e      	adds	r6, r7, r1
 80039c6:	b1a8      	cbz	r0, 80039f4 <_ZN9__gnu_cxx15__snprintf_liteEPcjPKcSt9__va_list+0x3c>
 80039c8:	4615      	mov	r5, r2
 80039ca:	e005      	b.n	80039d8 <_ZN9__gnu_cxx15__snprintf_liteEPcjPKcSt9__va_list+0x20>
 80039cc:	782a      	ldrb	r2, [r5, #0]
 80039ce:	3501      	adds	r5, #1
 80039d0:	f804 2b01 	strb.w	r2, [r4], #1
 80039d4:	7828      	ldrb	r0, [r5, #0]
 80039d6:	b160      	cbz	r0, 80039f2 <_ZN9__gnu_cxx15__snprintf_liteEPcjPKcSt9__va_list+0x3a>
 80039d8:	42a6      	cmp	r6, r4
 80039da:	d930      	bls.n	8003a3e <_ZN9__gnu_cxx15__snprintf_liteEPcjPKcSt9__va_list+0x86>
 80039dc:	2825      	cmp	r0, #37	@ 0x25
 80039de:	d1f5      	bne.n	80039cc <_ZN9__gnu_cxx15__snprintf_liteEPcjPKcSt9__va_list+0x14>
 80039e0:	786a      	ldrb	r2, [r5, #1]
 80039e2:	2a73      	cmp	r2, #115	@ 0x73
 80039e4:	d01a      	beq.n	8003a1c <_ZN9__gnu_cxx15__snprintf_liteEPcjPKcSt9__va_list+0x64>
 80039e6:	2a7a      	cmp	r2, #122	@ 0x7a
 80039e8:	d008      	beq.n	80039fc <_ZN9__gnu_cxx15__snprintf_liteEPcjPKcSt9__va_list+0x44>
 80039ea:	2a25      	cmp	r2, #37	@ 0x25
 80039ec:	d1ee      	bne.n	80039cc <_ZN9__gnu_cxx15__snprintf_liteEPcjPKcSt9__va_list+0x14>
 80039ee:	3501      	adds	r5, #1
 80039f0:	e7ed      	b.n	80039ce <_ZN9__gnu_cxx15__snprintf_liteEPcjPKcSt9__va_list+0x16>
 80039f2:	1be0      	subs	r0, r4, r7
 80039f4:	2300      	movs	r3, #0
 80039f6:	7023      	strb	r3, [r4, #0]
 80039f8:	e8bd 81f0 	ldmia.w	sp!, {r4, r5, r6, r7, r8, pc}
 80039fc:	78aa      	ldrb	r2, [r5, #2]
 80039fe:	2a75      	cmp	r2, #117	@ 0x75
 8003a00:	d1e4      	bne.n	80039cc <_ZN9__gnu_cxx15__snprintf_liteEPcjPKcSt9__va_list+0x14>
 8003a02:	4698      	mov	r8, r3
 8003a04:	4620      	mov	r0, r4
 8003a06:	f858 2b04 	ldr.w	r2, [r8], #4
 8003a0a:	1b31      	subs	r1, r6, r4
 8003a0c:	f7ff ffa6 	bl	800395c <_ZN9__gnu_cxx15__concat_size_tEPcjj>
 8003a10:	2800      	cmp	r0, #0
 8003a12:	dd14      	ble.n	8003a3e <_ZN9__gnu_cxx15__snprintf_liteEPcjPKcSt9__va_list+0x86>
 8003a14:	4643      	mov	r3, r8
 8003a16:	4404      	add	r4, r0
 8003a18:	3503      	adds	r5, #3
 8003a1a:	e7db      	b.n	80039d4 <_ZN9__gnu_cxx15__snprintf_liteEPcjPKcSt9__va_list+0x1c>
 8003a1c:	f853 1b04 	ldr.w	r1, [r3], #4
 8003a20:	780a      	ldrb	r2, [r1, #0]
 8003a22:	b152      	cbz	r2, 8003a3a <_ZN9__gnu_cxx15__snprintf_liteEPcjPKcSt9__va_list+0x82>
 8003a24:	f804 2b01 	strb.w	r2, [r4], #1
 8003a28:	f811 2f01 	ldrb.w	r2, [r1, #1]!
 8003a2c:	b12a      	cbz	r2, 8003a3a <_ZN9__gnu_cxx15__snprintf_liteEPcjPKcSt9__va_list+0x82>
 8003a2e:	42a6      	cmp	r6, r4
 8003a30:	d1f8      	bne.n	8003a24 <_ZN9__gnu_cxx15__snprintf_liteEPcjPKcSt9__va_list+0x6c>
 8003a32:	4631      	mov	r1, r6
 8003a34:	4638      	mov	r0, r7
 8003a36:	f7fc fbab 	bl	8000190 <_ZN9__gnu_cxx26__throw_insufficient_spaceEPKcS1_>
 8003a3a:	3502      	adds	r5, #2
 8003a3c:	e7ca      	b.n	80039d4 <_ZN9__gnu_cxx15__snprintf_liteEPcjPKcSt9__va_list+0x1c>
 8003a3e:	4621      	mov	r1, r4
 8003a40:	4638      	mov	r0, r7
 8003a42:	f7fc fba5 	bl	8000190 <_ZN9__gnu_cxx26__throw_insufficient_spaceEPKcS1_>
 8003a46:	bf00      	nop

08003a48 <_ZNKSt3pmr12_GLOBAL__N_110null_res_t11do_is_equalERKNS_15memory_resourceE>:
 8003a48:	1a08      	subs	r0, r1, r0
 8003a4a:	fab0 f080 	clz	r0, r0
 8003a4e:	0940      	lsrs	r0, r0, #5
 8003a50:	4770      	bx	lr
 8003a52:	bf00      	nop

08003a54 <_ZNSt3pmr12_GLOBAL__N_110null_res_t13do_deallocateEPvjj>:
 8003a54:	4770      	bx	lr
 8003a56:	bf00      	nop

08003a58 <_ZNSt3pmr12_GLOBAL__N_112newdel_res_tD1Ev>:
 8003a58:	4770      	bx	lr
 8003a5a:	bf00      	nop

08003a5c <_ZNSt3pmr12_GLOBAL__N_110null_res_tD1Ev>:
 8003a5c:	4770      	bx	lr
 8003a5e:	bf00      	nop

08003a60 <_ZNSt3pmr12_GLOBAL__N_113constant_initINS0_12newdel_res_tEED1Ev>:
 8003a60:	4770      	bx	lr
 8003a62:	bf00      	nop

08003a64 <_ZNSt3pmr12_GLOBAL__N_113constant_initINS0_10null_res_tEED1Ev>:
 8003a64:	4770      	bx	lr
 8003a66:	bf00      	nop

08003a68 <_ZNSt3pmr12_GLOBAL__N_113constant_initINS0_14atomic_mem_resEED1Ev>:
 8003a68:	4770      	bx	lr
 8003a6a:	bf00      	nop

08003a6c <_ZNSt3pmr12_GLOBAL__N_112newdel_res_tD0Ev>:
 8003a6c:	b510      	push	{r4, lr}
 8003a6e:	4604      	mov	r4, r0
 8003a70:	2104      	movs	r1, #4
 8003a72:	f7ff fbc5 	bl	8003200 <_ZdlPvj>
 8003a76:	4620      	mov	r0, r4
 8003a78:	bd10      	pop	{r4, pc}
 8003a7a:	bf00      	nop

08003a7c <_ZNSt3pmr12_GLOBAL__N_110null_res_tD0Ev>:
 8003a7c:	b510      	push	{r4, lr}
 8003a7e:	4604      	mov	r4, r0
 8003a80:	2104      	movs	r1, #4
 8003a82:	f7ff fbbd 	bl	8003200 <_ZdlPvj>
 8003a86:	4620      	mov	r0, r4
 8003a88:	bd10      	pop	{r4, pc}
 8003a8a:	bf00      	nop

08003a8c <_ZNSt3pmr12_GLOBAL__N_112newdel_res_t13do_deallocateEPvjj>:
 8003a8c:	4608      	mov	r0, r1
 8003a8e:	4611      	mov	r1, r2
 8003a90:	461a      	mov	r2, r3
 8003a92:	f000 b80d 	b.w	8003ab0 <_ZdlPvjSt11align_val_t>
 8003a96:	bf00      	nop

08003a98 <_ZNSt3pmr12_GLOBAL__N_112newdel_res_t11do_allocateEjj>:
 8003a98:	4608      	mov	r0, r1
 8003a9a:	4611      	mov	r1, r2
 8003a9c:	f000 b80c 	b.w	8003ab8 <_ZnwjSt11align_val_t>

08003aa0 <_ZNSt3pmr12_GLOBAL__N_110null_res_t11do_allocateEjj>:
 8003aa0:	b508      	push	{r3, lr}
 8003aa2:	f7fc fb07 	bl	80000b4 <_ZSt17__throw_bad_allocv>
 8003aa6:	bf00      	nop

08003aa8 <_ZNSt3pmr15memory_resourceD1Ev>:
 8003aa8:	4770      	bx	lr
 8003aaa:	bf00      	nop

08003aac <_ZdlPv>:
 8003aac:	f001 bb34 	b.w	8005118 <__malloc_free>

08003ab0 <_ZdlPvjSt11align_val_t>:
 8003ab0:	4611      	mov	r1, r2
 8003ab2:	f000 bb2d 	b.w	8004110 <_ZdlPvSt11align_val_t>
 8003ab6:	bf00      	nop

08003ab8 <_ZnwjSt11align_val_t>:
 8003ab8:	b538      	push	{r3, r4, r5, lr}
 8003aba:	1e4b      	subs	r3, r1, #1
 8003abc:	ea81 0203 	eor.w	r2, r1, r3
 8003ac0:	429a      	cmp	r2, r3
 8003ac2:	d910      	bls.n	8003ae6 <_ZnwjSt11align_val_t+0x2e>
 8003ac4:	2801      	cmp	r0, #1
 8003ac6:	bf38      	it	cc
 8003ac8:	2001      	movcc	r0, #1
 8003aca:	460d      	mov	r5, r1
 8003acc:	4604      	mov	r4, r0
 8003ace:	e003      	b.n	8003ad8 <_ZnwjSt11align_val_t+0x20>
 8003ad0:	f000 fb20 	bl	8004114 <_ZSt15get_new_handlerv>
 8003ad4:	b138      	cbz	r0, 8003ae6 <_ZnwjSt11align_val_t+0x2e>
 8003ad6:	4780      	blx	r0
 8003ad8:	4621      	mov	r1, r4
 8003ada:	4628      	mov	r0, r5
 8003adc:	f001 fbf0 	bl	80052c0 <aligned_alloc>
 8003ae0:	2800      	cmp	r0, #0
 8003ae2:	d0f5      	beq.n	8003ad0 <_ZnwjSt11align_val_t+0x18>
 8003ae4:	bd38      	pop	{r3, r4, r5, pc}
 8003ae6:	2004      	movs	r0, #4
 8003ae8:	f7ff f9d2 	bl	8002e90 <__wrap___cxa_allocate_exception>
 8003aec:	4b02      	ldr	r3, [pc, #8]	@ (8003af8 <_ZnwjSt11align_val_t+0x40>)
 8003aee:	4a03      	ldr	r2, [pc, #12]	@ (8003afc <_ZnwjSt11align_val_t+0x44>)
 8003af0:	4903      	ldr	r1, [pc, #12]	@ (8003b00 <_ZnwjSt11align_val_t+0x48>)
 8003af2:	6003      	str	r3, [r0, #0]
 8003af4:	f7ff f922 	bl	8002d3c <__wrap___cxa_throw>
 8003af8:	08007948 	.word	0x08007948
 8003afc:	080030d5 	.word	0x080030d5
 8003b00:	08007934 	.word	0x08007934

08003b04 <_ZNKSt11logic_error4whatEv>:
 8003b04:	6840      	ldr	r0, [r0, #4]
 8003b06:	4770      	bx	lr

08003b08 <_ZNSt11logic_errorD1Ev>:
 8003b08:	b510      	push	{r4, lr}
 8003b0a:	490d      	ldr	r1, [pc, #52]	@ (8003b40 <_ZNSt11logic_errorD1Ev+0x38>)
 8003b0c:	6843      	ldr	r3, [r0, #4]
 8003b0e:	4a0d      	ldr	r2, [pc, #52]	@ (8003b44 <_ZNSt11logic_errorD1Ev+0x3c>)
 8003b10:	4604      	mov	r4, r0
 8003b12:	b082      	sub	sp, #8
 8003b14:	6001      	str	r1, [r0, #0]
 8003b16:	f1a3 000c 	sub.w	r0, r3, #12
 8003b1a:	4290      	cmp	r0, r2
 8003b1c:	d105      	bne.n	8003b2a <_ZNSt11logic_errorD1Ev+0x22>
 8003b1e:	4620      	mov	r0, r4
 8003b20:	f7ff fb70 	bl	8003204 <_ZNSt9exceptionD1Ev>
 8003b24:	4620      	mov	r0, r4
 8003b26:	b002      	add	sp, #8
 8003b28:	bd10      	pop	{r4, pc}
 8003b2a:	f853 2c04 	ldr.w	r2, [r3, #-4]
 8003b2e:	1e51      	subs	r1, r2, #1
 8003b30:	2a00      	cmp	r2, #0
 8003b32:	f843 1c04 	str.w	r1, [r3, #-4]
 8003b36:	dcf2      	bgt.n	8003b1e <_ZNSt11logic_errorD1Ev+0x16>
 8003b38:	a901      	add	r1, sp, #4
 8003b3a:	f000 f967 	bl	8003e0c <_ZNSs4_Rep10_M_destroyERKSaIcE>
 8003b3e:	e7ee      	b.n	8003b1e <_ZNSt11logic_errorD1Ev+0x16>
 8003b40:	08007bc4 	.word	0x08007bc4
 8003b44:	200001b0 	.word	0x200001b0

08003b48 <_ZNSt12length_errorD1Ev>:
 8003b48:	b510      	push	{r4, lr}
 8003b4a:	490d      	ldr	r1, [pc, #52]	@ (8003b80 <_ZNSt12length_errorD1Ev+0x38>)
 8003b4c:	6843      	ldr	r3, [r0, #4]
 8003b4e:	4a0d      	ldr	r2, [pc, #52]	@ (8003b84 <_ZNSt12length_errorD1Ev+0x3c>)
 8003b50:	4604      	mov	r4, r0
 8003b52:	b082      	sub	sp, #8
 8003b54:	6001      	str	r1, [r0, #0]
 8003b56:	f1a3 000c 	sub.w	r0, r3, #12
 8003b5a:	4290      	cmp	r0, r2
 8003b5c:	d105      	bne.n	8003b6a <_ZNSt12length_errorD1Ev+0x22>
 8003b5e:	4620      	mov	r0, r4
 8003b60:	f7ff fb50 	bl	8003204 <_ZNSt9exceptionD1Ev>
 8003b64:	4620      	mov	r0, r4
 8003b66:	b002      	add	sp, #8
 8003b68:	bd10      	pop	{r4, pc}
 8003b6a:	f853 2c04 	ldr.w	r2, [r3, #-4]
 8003b6e:	1e51      	subs	r1, r2, #1
 8003b70:	2a00      	cmp	r2, #0
 8003b72:	f843 1c04 	str.w	r1, [r3, #-4]
 8003b76:	dcf2      	bgt.n	8003b5e <_ZNSt12length_errorD1Ev+0x16>
 8003b78:	a901      	add	r1, sp, #4
 8003b7a:	f000 f947 	bl	8003e0c <_ZNSs4_Rep10_M_destroyERKSaIcE>
 8003b7e:	e7ee      	b.n	8003b5e <_ZNSt12length_errorD1Ev+0x16>
 8003b80:	08007bc4 	.word	0x08007bc4
 8003b84:	200001b0 	.word	0x200001b0

08003b88 <_ZNSt12out_of_rangeD1Ev>:
 8003b88:	b510      	push	{r4, lr}
 8003b8a:	490d      	ldr	r1, [pc, #52]	@ (8003bc0 <_ZNSt12out_of_rangeD1Ev+0x38>)
 8003b8c:	6843      	ldr	r3, [r0, #4]
 8003b8e:	4a0d      	ldr	r2, [pc, #52]	@ (8003bc4 <_ZNSt12out_of_rangeD1Ev+0x3c>)
 8003b90:	4604      	mov	r4, r0
 8003b92:	b082      	sub	sp, #8
 8003b94:	6001      	str	r1, [r0, #0]
 8003b96:	f1a3 000c 	sub.w	r0, r3, #12
 8003b9a:	4290      	cmp	r0, r2
 8003b9c:	d105      	bne.n	8003baa <_ZNSt12out_of_rangeD1Ev+0x22>
 8003b9e:	4620      	mov	r0, r4
 8003ba0:	f7ff fb30 	bl	8003204 <_ZNSt9exceptionD1Ev>
 8003ba4:	4620      	mov	r0, r4
 8003ba6:	b002      	add	sp, #8
 8003ba8:	bd10      	pop	{r4, pc}
 8003baa:	f853 2c04 	ldr.w	r2, [r3, #-4]
 8003bae:	1e51      	subs	r1, r2, #1
 8003bb0:	2a00      	cmp	r2, #0
 8003bb2:	f843 1c04 	str.w	r1, [r3, #-4]
 8003bb6:	dcf2      	bgt.n	8003b9e <_ZNSt12out_of_rangeD1Ev+0x16>
 8003bb8:	a901      	add	r1, sp, #4
 8003bba:	f000 f927 	bl	8003e0c <_ZNSs4_Rep10_M_destroyERKSaIcE>
 8003bbe:	e7ee      	b.n	8003b9e <_ZNSt12out_of_rangeD1Ev+0x16>
 8003bc0:	08007bc4 	.word	0x08007bc4
 8003bc4:	200001b0 	.word	0x200001b0

08003bc8 <_ZNSt11logic_errorD0Ev>:
 8003bc8:	b510      	push	{r4, lr}
 8003bca:	490f      	ldr	r1, [pc, #60]	@ (8003c08 <_ZNSt11logic_errorD0Ev+0x40>)
 8003bcc:	6843      	ldr	r3, [r0, #4]
 8003bce:	4a0f      	ldr	r2, [pc, #60]	@ (8003c0c <_ZNSt11logic_errorD0Ev+0x44>)
 8003bd0:	4604      	mov	r4, r0
 8003bd2:	b082      	sub	sp, #8
 8003bd4:	6001      	str	r1, [r0, #0]
 8003bd6:	f1a3 000c 	sub.w	r0, r3, #12
 8003bda:	4290      	cmp	r0, r2
 8003bdc:	d108      	bne.n	8003bf0 <_ZNSt11logic_errorD0Ev+0x28>
 8003bde:	4620      	mov	r0, r4
 8003be0:	f7ff fb10 	bl	8003204 <_ZNSt9exceptionD1Ev>
 8003be4:	4620      	mov	r0, r4
 8003be6:	f7ff ff61 	bl	8003aac <_ZdlPv>
 8003bea:	4620      	mov	r0, r4
 8003bec:	b002      	add	sp, #8
 8003bee:	bd10      	pop	{r4, pc}
 8003bf0:	f853 2c04 	ldr.w	r2, [r3, #-4]
 8003bf4:	1e51      	subs	r1, r2, #1
 8003bf6:	2a00      	cmp	r2, #0
 8003bf8:	f843 1c04 	str.w	r1, [r3, #-4]
 8003bfc:	dcef      	bgt.n	8003bde <_ZNSt11logic_errorD0Ev+0x16>
 8003bfe:	a901      	add	r1, sp, #4
 8003c00:	f000 f904 	bl	8003e0c <_ZNSs4_Rep10_M_destroyERKSaIcE>
 8003c04:	e7eb      	b.n	8003bde <_ZNSt11logic_errorD0Ev+0x16>
 8003c06:	bf00      	nop
 8003c08:	08007bc4 	.word	0x08007bc4
 8003c0c:	200001b0 	.word	0x200001b0

08003c10 <_ZNSt12length_errorD0Ev>:
 8003c10:	b510      	push	{r4, lr}
 8003c12:	490f      	ldr	r1, [pc, #60]	@ (8003c50 <_ZNSt12length_errorD0Ev+0x40>)
 8003c14:	6843      	ldr	r3, [r0, #4]
 8003c16:	4a0f      	ldr	r2, [pc, #60]	@ (8003c54 <_ZNSt12length_errorD0Ev+0x44>)
 8003c18:	4604      	mov	r4, r0
 8003c1a:	b082      	sub	sp, #8
 8003c1c:	6001      	str	r1, [r0, #0]
 8003c1e:	f1a3 000c 	sub.w	r0, r3, #12
 8003c22:	4290      	cmp	r0, r2
 8003c24:	d108      	bne.n	8003c38 <_ZNSt12length_errorD0Ev+0x28>
 8003c26:	4620      	mov	r0, r4
 8003c28:	f7ff faec 	bl	8003204 <_ZNSt9exceptionD1Ev>
 8003c2c:	4620      	mov	r0, r4
 8003c2e:	f7ff ff3d 	bl	8003aac <_ZdlPv>
 8003c32:	4620      	mov	r0, r4
 8003c34:	b002      	add	sp, #8
 8003c36:	bd10      	pop	{r4, pc}
 8003c38:	f853 2c04 	ldr.w	r2, [r3, #-4]
 8003c3c:	1e51      	subs	r1, r2, #1
 8003c3e:	2a00      	cmp	r2, #0
 8003c40:	f843 1c04 	str.w	r1, [r3, #-4]
 8003c44:	dcef      	bgt.n	8003c26 <_ZNSt12length_errorD0Ev+0x16>
 8003c46:	a901      	add	r1, sp, #4
 8003c48:	f000 f8e0 	bl	8003e0c <_ZNSs4_Rep10_M_destroyERKSaIcE>
 8003c4c:	e7eb      	b.n	8003c26 <_ZNSt12length_errorD0Ev+0x16>
 8003c4e:	bf00      	nop
 8003c50:	08007bc4 	.word	0x08007bc4
 8003c54:	200001b0 	.word	0x200001b0

08003c58 <_ZNSt12out_of_rangeD0Ev>:
 8003c58:	b510      	push	{r4, lr}
 8003c5a:	490f      	ldr	r1, [pc, #60]	@ (8003c98 <_ZNSt12out_of_rangeD0Ev+0x40>)
 8003c5c:	6843      	ldr	r3, [r0, #4]
 8003c5e:	4a0f      	ldr	r2, [pc, #60]	@ (8003c9c <_ZNSt12out_of_rangeD0Ev+0x44>)
 8003c60:	4604      	mov	r4, r0
 8003c62:	b082      	sub	sp, #8
 8003c64:	6001      	str	r1, [r0, #0]
 8003c66:	f1a3 000c 	sub.w	r0, r3, #12
 8003c6a:	4290      	cmp	r0, r2
 8003c6c:	d108      	bne.n	8003c80 <_ZNSt12out_of_rangeD0Ev+0x28>
 8003c6e:	4620      	mov	r0, r4
 8003c70:	f7ff fac8 	bl	8003204 <_ZNSt9exceptionD1Ev>
 8003c74:	4620      	mov	r0, r4
 8003c76:	f7ff ff19 	bl	8003aac <_ZdlPv>
 8003c7a:	4620      	mov	r0, r4
 8003c7c:	b002      	add	sp, #8
 8003c7e:	bd10      	pop	{r4, pc}
 8003c80:	f853 2c04 	ldr.w	r2, [r3, #-4]
 8003c84:	1e51      	subs	r1, r2, #1
 8003c86:	2a00      	cmp	r2, #0
 8003c88:	f843 1c04 	str.w	r1, [r3, #-4]
 8003c8c:	dcef      	bgt.n	8003c6e <_ZNSt12out_of_rangeD0Ev+0x16>
 8003c8e:	a901      	add	r1, sp, #4
 8003c90:	f000 f8bc 	bl	8003e0c <_ZNSs4_Rep10_M_destroyERKSaIcE>
 8003c94:	e7eb      	b.n	8003c6e <_ZNSt12out_of_rangeD0Ev+0x16>
 8003c96:	bf00      	nop
 8003c98:	08007bc4 	.word	0x08007bc4
 8003c9c:	200001b0 	.word	0x200001b0

08003ca0 <_ZNSt11logic_errorC1EPKc>:
 8003ca0:	b5f0      	push	{r4, r5, r6, r7, lr}
 8003ca2:	4b1b      	ldr	r3, [pc, #108]	@ (8003d10 <_ZNSt11logic_errorC1EPKc+0x70>)
 8003ca4:	b083      	sub	sp, #12
 8003ca6:	4604      	mov	r4, r0
 8003ca8:	6003      	str	r3, [r0, #0]
 8003caa:	b371      	cbz	r1, 8003d0a <_ZNSt11logic_errorC1EPKc+0x6a>
 8003cac:	4608      	mov	r0, r1
 8003cae:	460d      	mov	r5, r1
 8003cb0:	f001 fa2a 	bl	8005108 <strlen>
 8003cb4:	4606      	mov	r6, r0
 8003cb6:	b1a8      	cbz	r0, 8003ce4 <_ZNSt11logic_errorC1EPKc+0x44>
 8003cb8:	2100      	movs	r1, #0
 8003cba:	aa01      	add	r2, sp, #4
 8003cbc:	f000 f87a 	bl	8003db4 <_ZNSs4_Rep9_S_createEjjRKSaIcE>
 8003cc0:	2e01      	cmp	r6, #1
 8003cc2:	4607      	mov	r7, r0
 8003cc4:	f100 030c 	add.w	r3, r0, #12
 8003cc8:	d011      	beq.n	8003cee <_ZNSt11logic_errorC1EPKc+0x4e>
 8003cca:	4618      	mov	r0, r3
 8003ccc:	4629      	mov	r1, r5
 8003cce:	4632      	mov	r2, r6
 8003cd0:	f001 fa04 	bl	80050dc <memcpy>
 8003cd4:	4603      	mov	r3, r0
 8003cd6:	4a0f      	ldr	r2, [pc, #60]	@ (8003d14 <_ZNSt11logic_errorC1EPKc+0x74>)
 8003cd8:	4297      	cmp	r7, r2
 8003cda:	d10b      	bne.n	8003cf4 <_ZNSt11logic_errorC1EPKc+0x54>
 8003cdc:	4620      	mov	r0, r4
 8003cde:	6063      	str	r3, [r4, #4]
 8003ce0:	b003      	add	sp, #12
 8003ce2:	bdf0      	pop	{r4, r5, r6, r7, pc}
 8003ce4:	4620      	mov	r0, r4
 8003ce6:	4b0c      	ldr	r3, [pc, #48]	@ (8003d18 <_ZNSt11logic_errorC1EPKc+0x78>)
 8003ce8:	6063      	str	r3, [r4, #4]
 8003cea:	b003      	add	sp, #12
 8003cec:	bdf0      	pop	{r4, r5, r6, r7, pc}
 8003cee:	782a      	ldrb	r2, [r5, #0]
 8003cf0:	7302      	strb	r2, [r0, #12]
 8003cf2:	e7f0      	b.n	8003cd6 <_ZNSt11logic_errorC1EPKc+0x36>
 8003cf4:	2200      	movs	r2, #0
 8003cf6:	603e      	str	r6, [r7, #0]
 8003cf8:	443e      	add	r6, r7
 8003cfa:	60ba      	str	r2, [r7, #8]
 8003cfc:	7332      	strb	r2, [r6, #12]
 8003cfe:	e7ed      	b.n	8003cdc <_ZNSt11logic_errorC1EPKc+0x3c>
 8003d00:	4620      	mov	r0, r4
 8003d02:	f7ff fa7f 	bl	8003204 <_ZNSt9exceptionD1Ev>
 8003d06:	f7ff f9a9 	bl	800305c <__wrap___cxa_end_cleanup>
 8003d0a:	4804      	ldr	r0, [pc, #16]	@ (8003d1c <_ZNSt11logic_errorC1EPKc+0x7c>)
 8003d0c:	f7fc f9e2 	bl	80000d4 <_ZSt19__throw_logic_errorPKc>
 8003d10:	08007bc4 	.word	0x08007bc4
 8003d14:	200001b0 	.word	0x200001b0
 8003d18:	200001bc 	.word	0x200001bc
 8003d1c:	08007858 	.word	0x08007858

08003d20 <_ZNSt12length_errorC1EPKc>:
 8003d20:	b510      	push	{r4, lr}
 8003d22:	4604      	mov	r4, r0
 8003d24:	f7ff ffbc 	bl	8003ca0 <_ZNSt11logic_errorC1EPKc>
 8003d28:	4b01      	ldr	r3, [pc, #4]	@ (8003d30 <_ZNSt12length_errorC1EPKc+0x10>)
 8003d2a:	4620      	mov	r0, r4
 8003d2c:	6023      	str	r3, [r4, #0]
 8003d2e:	bd10      	pop	{r4, pc}
 8003d30:	08007bd8 	.word	0x08007bd8

08003d34 <_ZNSt12out_of_rangeC1EPKc>:
 8003d34:	b510      	push	{r4, lr}
 8003d36:	4604      	mov	r4, r0
 8003d38:	f7ff ffb2 	bl	8003ca0 <_ZNSt11logic_errorC1EPKc>
 8003d3c:	4b01      	ldr	r3, [pc, #4]	@ (8003d44 <_ZNSt12out_of_rangeC1EPKc+0x10>)
 8003d3e:	4620      	mov	r0, r4
 8003d40:	6023      	str	r3, [r4, #0]
 8003d42:	bd10      	pop	{r4, pc}
 8003d44:	08007bec 	.word	0x08007bec

08003d48 <_ZNSt12__cow_stringC1EPKcj>:
 8003d48:	b5f0      	push	{r4, r5, r6, r7, lr}
 8003d4a:	4605      	mov	r5, r0
 8003d4c:	b083      	sub	sp, #12
 8003d4e:	b1e2      	cbz	r2, 8003d8a <_ZNSt12__cow_stringC1EPKcj+0x42>
 8003d50:	460e      	mov	r6, r1
 8003d52:	b329      	cbz	r1, 8003da0 <_ZNSt12__cow_stringC1EPKcj+0x58>
 8003d54:	4614      	mov	r4, r2
 8003d56:	4610      	mov	r0, r2
 8003d58:	2100      	movs	r1, #0
 8003d5a:	aa01      	add	r2, sp, #4
 8003d5c:	f000 f82a 	bl	8003db4 <_ZNSs4_Rep9_S_createEjjRKSaIcE>
 8003d60:	2c01      	cmp	r4, #1
 8003d62:	4607      	mov	r7, r0
 8003d64:	f100 030c 	add.w	r3, r0, #12
 8003d68:	d00c      	beq.n	8003d84 <_ZNSt12__cow_stringC1EPKcj+0x3c>
 8003d6a:	4618      	mov	r0, r3
 8003d6c:	4631      	mov	r1, r6
 8003d6e:	4622      	mov	r2, r4
 8003d70:	f001 f9b4 	bl	80050dc <memcpy>
 8003d74:	4603      	mov	r3, r0
 8003d76:	4a0c      	ldr	r2, [pc, #48]	@ (8003da8 <_ZNSt12__cow_stringC1EPKcj+0x60>)
 8003d78:	4297      	cmp	r7, r2
 8003d7a:	d10b      	bne.n	8003d94 <_ZNSt12__cow_stringC1EPKcj+0x4c>
 8003d7c:	4628      	mov	r0, r5
 8003d7e:	602b      	str	r3, [r5, #0]
 8003d80:	b003      	add	sp, #12
 8003d82:	bdf0      	pop	{r4, r5, r6, r7, pc}
 8003d84:	7832      	ldrb	r2, [r6, #0]
 8003d86:	7302      	strb	r2, [r0, #12]
 8003d88:	e7f5      	b.n	8003d76 <_ZNSt12__cow_stringC1EPKcj+0x2e>
 8003d8a:	4628      	mov	r0, r5
 8003d8c:	4b07      	ldr	r3, [pc, #28]	@ (8003dac <_ZNSt12__cow_stringC1EPKcj+0x64>)
 8003d8e:	602b      	str	r3, [r5, #0]
 8003d90:	b003      	add	sp, #12
 8003d92:	bdf0      	pop	{r4, r5, r6, r7, pc}
 8003d94:	2200      	movs	r2, #0
 8003d96:	603c      	str	r4, [r7, #0]
 8003d98:	443c      	add	r4, r7
 8003d9a:	60ba      	str	r2, [r7, #8]
 8003d9c:	7322      	strb	r2, [r4, #12]
 8003d9e:	e7ed      	b.n	8003d7c <_ZNSt12__cow_stringC1EPKcj+0x34>
 8003da0:	4803      	ldr	r0, [pc, #12]	@ (8003db0 <_ZNSt12__cow_stringC1EPKcj+0x68>)
 8003da2:	f7fc f997 	bl	80000d4 <_ZSt19__throw_logic_errorPKc>
 8003da6:	bf00      	nop
 8003da8:	200001b0 	.word	0x200001b0
 8003dac:	200001bc 	.word	0x200001bc
 8003db0:	08007858 	.word	0x08007858

08003db4 <_ZNSs4_Rep9_S_createEjjRKSaIcE>:
 8003db4:	4b13      	ldr	r3, [pc, #76]	@ (8003e04 <_ZNSs4_Rep9_S_createEjjRKSaIcE+0x50>)
 8003db6:	b510      	push	{r4, lr}
 8003db8:	4298      	cmp	r0, r3
 8003dba:	d81f      	bhi.n	8003dfc <_ZNSs4_Rep9_S_createEjjRKSaIcE+0x48>
 8003dbc:	4288      	cmp	r0, r1
 8003dbe:	4604      	mov	r4, r0
 8003dc0:	d914      	bls.n	8003dec <_ZNSs4_Rep9_S_createEjjRKSaIcE+0x38>
 8003dc2:	004a      	lsls	r2, r1, #1
 8003dc4:	4290      	cmp	r0, r2
 8003dc6:	bf38      	it	cc
 8003dc8:	4614      	movcc	r4, r2
 8003dca:	f104 021d 	add.w	r2, r4, #29
 8003dce:	f5b2 5f80 	cmp.w	r2, #4096	@ 0x1000
 8003dd2:	f104 000d 	add.w	r0, r4, #13
 8003dd6:	d90b      	bls.n	8003df0 <_ZNSs4_Rep9_S_createEjjRKSaIcE+0x3c>
 8003dd8:	42a1      	cmp	r1, r4
 8003dda:	d209      	bcs.n	8003df0 <_ZNSs4_Rep9_S_createEjjRKSaIcE+0x3c>
 8003ddc:	f504 5480 	add.w	r4, r4, #4096	@ 0x1000
 8003de0:	f3c2 020b 	ubfx	r2, r2, #0, #12
 8003de4:	1aa4      	subs	r4, r4, r2
 8003de6:	429c      	cmp	r4, r3
 8003de8:	bf28      	it	cs
 8003dea:	461c      	movcs	r4, r3
 8003dec:	f104 000d 	add.w	r0, r4, #13
 8003df0:	f000 f998 	bl	8004124 <_Znwj>
 8003df4:	2200      	movs	r2, #0
 8003df6:	e9c0 4201 	strd	r4, r2, [r0, #4]
 8003dfa:	bd10      	pop	{r4, pc}
 8003dfc:	4802      	ldr	r0, [pc, #8]	@ (8003e08 <_ZNSs4_Rep9_S_createEjjRKSaIcE+0x54>)
 8003dfe:	f7fc f981 	bl	8000104 <_ZSt20__throw_length_errorPKc>
 8003e02:	bf00      	nop
 8003e04:	3ffffffc 	.word	0x3ffffffc
 8003e08:	08007884 	.word	0x08007884

08003e0c <_ZNSs4_Rep10_M_destroyERKSaIcE>:
 8003e0c:	f7ff be4e 	b.w	8003aac <_ZdlPv>

08003e10 <_ZNSt7__cxx1112basic_stringIcSt11char_traitsIcESaIcEE9_M_createERjj>:
 8003e10:	6808      	ldr	r0, [r1, #0]
 8003e12:	b508      	push	{r3, lr}
 8003e14:	f1b0 4f80 	cmp.w	r0, #1073741824	@ 0x40000000
 8003e18:	d21d      	bcs.n	8003e56 <_ZNSt7__cxx1112basic_stringIcSt11char_traitsIcESaIcEE9_M_createERjj+0x46>
 8003e1a:	4290      	cmp	r0, r2
 8003e1c:	d904      	bls.n	8003e28 <_ZNSt7__cxx1112basic_stringIcSt11char_traitsIcESaIcEE9_M_createERjj+0x18>
 8003e1e:	ebb0 0f42 	cmp.w	r0, r2, lsl #1
 8003e22:	ea4f 0342 	mov.w	r3, r2, lsl #1
 8003e26:	d304      	bcc.n	8003e32 <_ZNSt7__cxx1112basic_stringIcSt11char_traitsIcESaIcEE9_M_createERjj+0x22>
 8003e28:	e8bd 4008 	ldmia.w	sp!, {r3, lr}
 8003e2c:	3001      	adds	r0, #1
 8003e2e:	f000 b979 	b.w	8004124 <_Znwj>
 8003e32:	f1b3 4f80 	cmp.w	r3, #1073741824	@ 0x40000000
 8003e36:	d308      	bcc.n	8003e4a <_ZNSt7__cxx1112basic_stringIcSt11char_traitsIcESaIcEE9_M_createERjj+0x3a>
 8003e38:	f06f 4340 	mvn.w	r3, #3221225472	@ 0xc0000000
 8003e3c:	f04f 4080 	mov.w	r0, #1073741824	@ 0x40000000
 8003e40:	600b      	str	r3, [r1, #0]
 8003e42:	e8bd 4008 	ldmia.w	sp!, {r3, lr}
 8003e46:	f000 b96d 	b.w	8004124 <_Znwj>
 8003e4a:	600b      	str	r3, [r1, #0]
 8003e4c:	1c58      	adds	r0, r3, #1
 8003e4e:	e8bd 4008 	ldmia.w	sp!, {r3, lr}
 8003e52:	f000 b967 	b.w	8004124 <_Znwj>
 8003e56:	4801      	ldr	r0, [pc, #4]	@ (8003e5c <_ZNSt7__cxx1112basic_stringIcSt11char_traitsIcESaIcEE9_M_createERjj+0x4c>)
 8003e58:	f7fc f954 	bl	8000104 <_ZSt20__throw_length_errorPKc>
 8003e5c:	0800789c 	.word	0x0800789c

08003e60 <_ZNSt7__cxx1112basic_stringIcSt11char_traitsIcESaIcEE10_M_disposeEv>:
 8003e60:	4603      	mov	r3, r0
 8003e62:	f853 0b08 	ldr.w	r0, [r3], #8
 8003e66:	4298      	cmp	r0, r3
 8003e68:	d001      	beq.n	8003e6e <_ZNSt7__cxx1112basic_stringIcSt11char_traitsIcESaIcEE10_M_disposeEv+0xe>
 8003e6a:	f7ff be1f 	b.w	8003aac <_ZdlPv>
 8003e6e:	4770      	bx	lr

08003e70 <_ZNSt7__cxx1112basic_stringIcSt11char_traitsIcESaIcEE7reserveEj>:
 8003e70:	b570      	push	{r4, r5, r6, lr}
 8003e72:	4605      	mov	r5, r0
 8003e74:	f855 3b08 	ldr.w	r3, [r5], #8
 8003e78:	b082      	sub	sp, #8
 8003e7a:	429d      	cmp	r5, r3
 8003e7c:	bf08      	it	eq
 8003e7e:	220f      	moveq	r2, #15
 8003e80:	9101      	str	r1, [sp, #4]
 8003e82:	bf18      	it	ne
 8003e84:	6882      	ldrne	r2, [r0, #8]
 8003e86:	9b01      	ldr	r3, [sp, #4]
 8003e88:	4604      	mov	r4, r0
 8003e8a:	4293      	cmp	r3, r2
 8003e8c:	d801      	bhi.n	8003e92 <_ZNSt7__cxx1112basic_stringIcSt11char_traitsIcESaIcEE7reserveEj+0x22>
 8003e8e:	b002      	add	sp, #8
 8003e90:	bd70      	pop	{r4, r5, r6, pc}
 8003e92:	a901      	add	r1, sp, #4
 8003e94:	f7ff ffbc 	bl	8003e10 <_ZNSt7__cxx1112basic_stringIcSt11char_traitsIcESaIcEE9_M_createERjj>
 8003e98:	6863      	ldr	r3, [r4, #4]
 8003e9a:	4606      	mov	r6, r0
 8003e9c:	6821      	ldr	r1, [r4, #0]
 8003e9e:	1c5a      	adds	r2, r3, #1
 8003ea0:	b173      	cbz	r3, 8003ec0 <_ZNSt7__cxx1112basic_stringIcSt11char_traitsIcESaIcEE7reserveEj+0x50>
 8003ea2:	b93a      	cbnz	r2, 8003eb4 <_ZNSt7__cxx1112basic_stringIcSt11char_traitsIcESaIcEE7reserveEj+0x44>
 8003ea4:	4608      	mov	r0, r1
 8003ea6:	f7ff fe01 	bl	8003aac <_ZdlPv>
 8003eaa:	9b01      	ldr	r3, [sp, #4]
 8003eac:	6026      	str	r6, [r4, #0]
 8003eae:	60a3      	str	r3, [r4, #8]
 8003eb0:	b002      	add	sp, #8
 8003eb2:	bd70      	pop	{r4, r5, r6, pc}
 8003eb4:	f001 f912 	bl	80050dc <memcpy>
 8003eb8:	6821      	ldr	r1, [r4, #0]
 8003eba:	428d      	cmp	r5, r1
 8003ebc:	d1f2      	bne.n	8003ea4 <_ZNSt7__cxx1112basic_stringIcSt11char_traitsIcESaIcEE7reserveEj+0x34>
 8003ebe:	e7f4      	b.n	8003eaa <_ZNSt7__cxx1112basic_stringIcSt11char_traitsIcESaIcEE7reserveEj+0x3a>
 8003ec0:	780b      	ldrb	r3, [r1, #0]
 8003ec2:	7003      	strb	r3, [r0, #0]
 8003ec4:	e7f8      	b.n	8003eb8 <_ZNSt7__cxx1112basic_stringIcSt11char_traitsIcESaIcEE7reserveEj+0x48>
 8003ec6:	bf00      	nop

08003ec8 <_ZNK12_GLOBAL__N_122generic_error_category4nameEv>:
 8003ec8:	4800      	ldr	r0, [pc, #0]	@ (8003ecc <_ZNK12_GLOBAL__N_122generic_error_category4nameEv+0x4>)
 8003eca:	4770      	bx	lr
 8003ecc:	080078b4 	.word	0x080078b4

08003ed0 <_ZNK12_GLOBAL__N_122generic_error_category10equivalentEiRKSt15error_condition>:
 8003ed0:	6813      	ldr	r3, [r2, #0]
 8003ed2:	4299      	cmp	r1, r3
 8003ed4:	d001      	beq.n	8003eda <_ZNK12_GLOBAL__N_122generic_error_category10equivalentEiRKSt15error_condition+0xa>
 8003ed6:	2000      	movs	r0, #0
 8003ed8:	4770      	bx	lr
 8003eda:	6853      	ldr	r3, [r2, #4]
 8003edc:	1a18      	subs	r0, r3, r0
 8003ede:	fab0 f080 	clz	r0, r0
 8003ee2:	0940      	lsrs	r0, r0, #5
 8003ee4:	4770      	bx	lr
 8003ee6:	bf00      	nop

08003ee8 <_ZN12_GLOBAL__N_122generic_error_categoryD1Ev>:
 8003ee8:	4770      	bx	lr
 8003eea:	bf00      	nop

08003eec <_ZNK12_GLOBAL__N_121system_error_category4nameEv>:
 8003eec:	4800      	ldr	r0, [pc, #0]	@ (8003ef0 <_ZNK12_GLOBAL__N_121system_error_category4nameEv+0x4>)
 8003eee:	4770      	bx	lr
 8003ef0:	080078bc 	.word	0x080078bc

08003ef4 <_ZNK12_GLOBAL__N_121system_error_category23default_error_conditionEi>:
 8003ef4:	2a74      	cmp	r2, #116	@ 0x74
 8003ef6:	b410      	push	{r4}
 8003ef8:	dc1a      	bgt.n	8003f30 <_ZNK12_GLOBAL__N_121system_error_category23default_error_conditionEi+0x3c>
 8003efa:	2a57      	cmp	r2, #87	@ 0x57
 8003efc:	dc0e      	bgt.n	8003f1c <_ZNK12_GLOBAL__N_121system_error_category23default_error_conditionEi+0x28>
 8003efe:	2a4d      	cmp	r2, #77	@ 0x4d
 8003f00:	dc12      	bgt.n	8003f28 <_ZNK12_GLOBAL__N_121system_error_category23default_error_conditionEi+0x34>
 8003f02:	2a3b      	cmp	r2, #59	@ 0x3b
 8003f04:	dc26      	bgt.n	8003f54 <_ZNK12_GLOBAL__N_121system_error_category23default_error_conditionEi+0x60>
 8003f06:	2a24      	cmp	r2, #36	@ 0x24
 8003f08:	dc1f      	bgt.n	8003f4a <_ZNK12_GLOBAL__N_121system_error_category23default_error_conditionEi+0x56>
 8003f0a:	2a0f      	cmp	r2, #15
 8003f0c:	dc01      	bgt.n	8003f12 <_ZNK12_GLOBAL__N_121system_error_category23default_error_conditionEi+0x1e>
 8003f0e:	2a0e      	cmp	r2, #14
 8003f10:	d80a      	bhi.n	8003f28 <_ZNK12_GLOBAL__N_121system_error_category23default_error_conditionEi+0x34>
 8003f12:	4b14      	ldr	r3, [pc, #80]	@ (8003f64 <_ZNK12_GLOBAL__N_121system_error_category23default_error_conditionEi+0x70>)
 8003f14:	e9c0 2300 	strd	r2, r3, [r0]
 8003f18:	bc10      	pop	{r4}
 8003f1a:	4770      	bx	lr
 8003f1c:	4b12      	ldr	r3, [pc, #72]	@ (8003f68 <_ZNK12_GLOBAL__N_121system_error_category23default_error_conditionEi+0x74>)
 8003f1e:	f1a2 0458 	sub.w	r4, r2, #88	@ 0x58
 8003f22:	40e3      	lsrs	r3, r4
 8003f24:	07dc      	lsls	r4, r3, #31
 8003f26:	d4f4      	bmi.n	8003f12 <_ZNK12_GLOBAL__N_121system_error_category23default_error_conditionEi+0x1e>
 8003f28:	e9c0 2100 	strd	r2, r1, [r0]
 8003f2c:	bc10      	pop	{r4}
 8003f2e:	4770      	bx	lr
 8003f30:	f1a2 0376 	sub.w	r3, r2, #118	@ 0x76
 8003f34:	2b18      	cmp	r3, #24
 8003f36:	d8f7      	bhi.n	8003f28 <_ZNK12_GLOBAL__N_121system_error_category23default_error_conditionEi+0x34>
 8003f38:	4c0c      	ldr	r4, [pc, #48]	@ (8003f6c <_ZNK12_GLOBAL__N_121system_error_category23default_error_conditionEi+0x78>)
 8003f3a:	fa24 f303 	lsr.w	r3, r4, r3
 8003f3e:	07db      	lsls	r3, r3, #31
 8003f40:	d5f2      	bpl.n	8003f28 <_ZNK12_GLOBAL__N_121system_error_category23default_error_conditionEi+0x34>
 8003f42:	4b08      	ldr	r3, [pc, #32]	@ (8003f64 <_ZNK12_GLOBAL__N_121system_error_category23default_error_conditionEi+0x70>)
 8003f44:	e9c0 2300 	strd	r2, r3, [r0]
 8003f48:	e7e6      	b.n	8003f18 <_ZNK12_GLOBAL__N_121system_error_category23default_error_conditionEi+0x24>
 8003f4a:	f1a2 032d 	sub.w	r3, r2, #45	@ 0x2d
 8003f4e:	2b01      	cmp	r3, #1
 8003f50:	d9df      	bls.n	8003f12 <_ZNK12_GLOBAL__N_121system_error_category23default_error_conditionEi+0x1e>
 8003f52:	e7e9      	b.n	8003f28 <_ZNK12_GLOBAL__N_121system_error_category23default_error_conditionEi+0x34>
 8003f54:	4b06      	ldr	r3, [pc, #24]	@ (8003f70 <_ZNK12_GLOBAL__N_121system_error_category23default_error_conditionEi+0x7c>)
 8003f56:	f1a2 043c 	sub.w	r4, r2, #60	@ 0x3c
 8003f5a:	40e3      	lsrs	r3, r4
 8003f5c:	07db      	lsls	r3, r3, #31
 8003f5e:	d5e3      	bpl.n	8003f28 <_ZNK12_GLOBAL__N_121system_error_category23default_error_conditionEi+0x34>
 8003f60:	e7d7      	b.n	8003f12 <_ZNK12_GLOBAL__N_121system_error_category23default_error_conditionEi+0x1e>
 8003f62:	bf00      	nop
 8003f64:	200000a0 	.word	0x200000a0
 8003f68:	1fbf009d 	.word	0x1fbf009d
 8003f6c:	01f107bf 	.word	0x01f107bf
 8003f70:	0002088f 	.word	0x0002088f

08003f74 <_ZN12_GLOBAL__N_121system_error_categoryD1Ev>:
 8003f74:	4770      	bx	lr
 8003f76:	bf00      	nop

08003f78 <_ZNKSt3_V214error_category23default_error_conditionEi>:
 8003f78:	e9c0 2100 	strd	r2, r1, [r0]
 8003f7c:	4770      	bx	lr
 8003f7e:	bf00      	nop

08003f80 <_ZNKSt3_V214error_category10equivalentERKSt10error_codei>:
 8003f80:	684b      	ldr	r3, [r1, #4]
 8003f82:	4283      	cmp	r3, r0
 8003f84:	d001      	beq.n	8003f8a <_ZNKSt3_V214error_category10equivalentERKSt10error_codei+0xa>
 8003f86:	2000      	movs	r0, #0
 8003f88:	4770      	bx	lr
 8003f8a:	6808      	ldr	r0, [r1, #0]
 8003f8c:	1a80      	subs	r0, r0, r2
 8003f8e:	fab0 f080 	clz	r0, r0
 8003f92:	0940      	lsrs	r0, r0, #5
 8003f94:	4770      	bx	lr
 8003f96:	bf00      	nop

08003f98 <_ZN12_GLOBAL__N_113constant_initINS_22generic_error_categoryEED1Ev>:
 8003f98:	4770      	bx	lr
 8003f9a:	bf00      	nop

08003f9c <_ZN12_GLOBAL__N_113constant_initINS_21system_error_categoryEED1Ev>:
 8003f9c:	4770      	bx	lr
 8003f9e:	bf00      	nop

08003fa0 <_ZNK12_GLOBAL__N_121system_error_category7messageB5cxx11Ei>:
 8003fa0:	e92d 43f0 	stmdb	sp!, {r4, r5, r6, r7, r8, r9, lr}
 8003fa4:	f04f 0800 	mov.w	r8, #0
 8003fa8:	f100 0308 	add.w	r3, r0, #8
 8003fac:	b085      	sub	sp, #20
 8003fae:	273c      	movs	r7, #60	@ 0x3c
 8003fb0:	4604      	mov	r4, r0
 8003fb2:	4691      	mov	r9, r2
 8003fb4:	e9c0 3800 	strd	r3, r8, [r0]
 8003fb8:	f880 8008 	strb.w	r8, [r0, #8]
 8003fbc:	e00b      	b.n	8003fd6 <_ZNK12_GLOBAL__N_121system_error_category7messageB5cxx11Ei+0x36>
 8003fbe:	782b      	ldrb	r3, [r5, #0]
 8003fc0:	b303      	cbz	r3, 8004004 <_ZNK12_GLOBAL__N_121system_error_category7messageB5cxx11Ei+0x64>
 8003fc2:	4628      	mov	r0, r5
 8003fc4:	f001 f8a0 	bl	8005108 <strlen>
 8003fc8:	4606      	mov	r6, r0
 8003fca:	6823      	ldr	r3, [r4, #0]
 8003fcc:	6066      	str	r6, [r4, #4]
 8003fce:	f803 8006 	strb.w	r8, [r3, r6]
 8003fd2:	6863      	ldr	r3, [r4, #4]
 8003fd4:	b993      	cbnz	r3, 8003ffc <_ZNK12_GLOBAL__N_121system_error_category7messageB5cxx11Ei+0x5c>
 8003fd6:	4639      	mov	r1, r7
 8003fd8:	4620      	mov	r0, r4
 8003fda:	f7ff ff49 	bl	8003e70 <_ZNSt7__cxx1112basic_stringIcSt11char_traitsIcESaIcEE7reserveEj>
 8003fde:	6825      	ldr	r5, [r4, #0]
 8003fe0:	463a      	mov	r2, r7
 8003fe2:	4629      	mov	r1, r5
 8003fe4:	4648      	mov	r0, r9
 8003fe6:	f885 8000 	strb.w	r8, [r5]
 8003fea:	f001 fa23 	bl	8005434 <__xpg_strerror_r>
 8003fee:	2800      	cmp	r0, #0
 8003ff0:	d0e7      	beq.n	8003fc2 <_ZNK12_GLOBAL__N_121system_error_category7messageB5cxx11Ei+0x22>
 8003ff2:	2822      	cmp	r0, #34	@ 0x22
 8003ff4:	d1e3      	bne.n	8003fbe <_ZNK12_GLOBAL__N_121system_error_category7messageB5cxx11Ei+0x1e>
 8003ff6:	2600      	movs	r6, #0
 8003ff8:	007f      	lsls	r7, r7, #1
 8003ffa:	e7e6      	b.n	8003fca <_ZNK12_GLOBAL__N_121system_error_category7messageB5cxx11Ei+0x2a>
 8003ffc:	4620      	mov	r0, r4
 8003ffe:	b005      	add	sp, #20
 8004000:	e8bd 83f0 	ldmia.w	sp!, {r4, r5, r6, r7, r8, r9, pc}
 8004004:	46ec      	mov	ip, sp
 8004006:	46ee      	mov	lr, sp
 8004008:	4b0b      	ldr	r3, [pc, #44]	@ (8004038 <_ZNK12_GLOBAL__N_121system_error_category7messageB5cxx11Ei+0x98>)
 800400a:	260d      	movs	r6, #13
 800400c:	cb0f      	ldmia	r3, {r0, r1, r2, r3}
 800400e:	e8ac 0007 	stmia.w	ip!, {r0, r1, r2}
 8004012:	f8ac 3000 	strh.w	r3, [ip]
 8004016:	e8be 0007 	ldmia.w	lr!, {r0, r1, r2}
 800401a:	732b      	strb	r3, [r5, #12]
 800401c:	6028      	str	r0, [r5, #0]
 800401e:	6069      	str	r1, [r5, #4]
 8004020:	60aa      	str	r2, [r5, #8]
 8004022:	e7d2      	b.n	8003fca <_ZNK12_GLOBAL__N_121system_error_category7messageB5cxx11Ei+0x2a>
 8004024:	4620      	mov	r0, r4
 8004026:	f7ff ff1b 	bl	8003e60 <_ZNSt7__cxx1112basic_stringIcSt11char_traitsIcESaIcEE10_M_disposeEv>
 800402a:	f7ff f817 	bl	800305c <__wrap___cxa_end_cleanup>
 800402e:	2300      	movs	r3, #0
 8004030:	6822      	ldr	r2, [r4, #0]
 8004032:	6063      	str	r3, [r4, #4]
 8004034:	7013      	strb	r3, [r2, #0]
 8004036:	e7f5      	b.n	8004024 <_ZNK12_GLOBAL__N_121system_error_category7messageB5cxx11Ei+0x84>
 8004038:	080078c4 	.word	0x080078c4

0800403c <_ZN12_GLOBAL__N_122generic_error_categoryD0Ev>:
 800403c:	b510      	push	{r4, lr}
 800403e:	4604      	mov	r4, r0
 8004040:	f7ff fd34 	bl	8003aac <_ZdlPv>
 8004044:	4620      	mov	r0, r4
 8004046:	bd10      	pop	{r4, pc}

08004048 <_ZN12_GLOBAL__N_121system_error_categoryD0Ev>:
 8004048:	b510      	push	{r4, lr}
 800404a:	4604      	mov	r4, r0
 800404c:	f7ff fd2e 	bl	8003aac <_ZdlPv>
 8004050:	4620      	mov	r0, r4
 8004052:	bd10      	pop	{r4, pc}

08004054 <_ZNKSt3_V214error_category10_M_messageB5cxx11Ei>:
 8004054:	b510      	push	{r4, lr}
 8004056:	4604      	mov	r4, r0
 8004058:	680b      	ldr	r3, [r1, #0]
 800405a:	b086      	sub	sp, #24
 800405c:	4668      	mov	r0, sp
 800405e:	691b      	ldr	r3, [r3, #16]
 8004060:	4798      	blx	r3
 8004062:	e9dd 1200 	ldrd	r1, r2, [sp]
 8004066:	4620      	mov	r0, r4
 8004068:	f7ff fe6e 	bl	8003d48 <_ZNSt12__cow_stringC1EPKcj>
 800406c:	9800      	ldr	r0, [sp, #0]
 800406e:	ab02      	add	r3, sp, #8
 8004070:	4298      	cmp	r0, r3
 8004072:	d001      	beq.n	8004078 <_ZNKSt3_V214error_category10_M_messageB5cxx11Ei+0x24>
 8004074:	f7ff fd1a 	bl	8003aac <_ZdlPv>
 8004078:	4620      	mov	r0, r4
 800407a:	b006      	add	sp, #24
 800407c:	bd10      	pop	{r4, pc}
 800407e:	4668      	mov	r0, sp
 8004080:	f7ff feee 	bl	8003e60 <_ZNSt7__cxx1112basic_stringIcSt11char_traitsIcESaIcEE10_M_disposeEv>
 8004084:	f7fe ffea 	bl	800305c <__wrap___cxa_end_cleanup>

08004088 <_ZNK12_GLOBAL__N_121system_error_category10equivalentEiRKSt15error_condition>:
 8004088:	2974      	cmp	r1, #116	@ 0x74
 800408a:	b410      	push	{r4}
 800408c:	dc19      	bgt.n	80040c2 <_ZNK12_GLOBAL__N_121system_error_category10equivalentEiRKSt15error_condition+0x3a>
 800408e:	2957      	cmp	r1, #87	@ 0x57
 8004090:	dc22      	bgt.n	80040d8 <_ZNK12_GLOBAL__N_121system_error_category10equivalentEiRKSt15error_condition+0x50>
 8004092:	294d      	cmp	r1, #77	@ 0x4d
 8004094:	dc08      	bgt.n	80040a8 <_ZNK12_GLOBAL__N_121system_error_category10equivalentEiRKSt15error_condition+0x20>
 8004096:	293b      	cmp	r1, #59	@ 0x3b
 8004098:	dc2a      	bgt.n	80040f0 <_ZNK12_GLOBAL__N_121system_error_category10equivalentEiRKSt15error_condition+0x68>
 800409a:	2924      	cmp	r1, #36	@ 0x24
 800409c:	dc23      	bgt.n	80040e6 <_ZNK12_GLOBAL__N_121system_error_category10equivalentEiRKSt15error_condition+0x5e>
 800409e:	290f      	cmp	r1, #15
 80040a0:	dc01      	bgt.n	80040a6 <_ZNK12_GLOBAL__N_121system_error_category10equivalentEiRKSt15error_condition+0x1e>
 80040a2:	290e      	cmp	r1, #14
 80040a4:	d800      	bhi.n	80040a8 <_ZNK12_GLOBAL__N_121system_error_category10equivalentEiRKSt15error_condition+0x20>
 80040a6:	4816      	ldr	r0, [pc, #88]	@ (8004100 <_ZNK12_GLOBAL__N_121system_error_category10equivalentEiRKSt15error_condition+0x78>)
 80040a8:	6853      	ldr	r3, [r2, #4]
 80040aa:	4283      	cmp	r3, r0
 80040ac:	d002      	beq.n	80040b4 <_ZNK12_GLOBAL__N_121system_error_category10equivalentEiRKSt15error_condition+0x2c>
 80040ae:	2000      	movs	r0, #0
 80040b0:	bc10      	pop	{r4}
 80040b2:	4770      	bx	lr
 80040b4:	6810      	ldr	r0, [r2, #0]
 80040b6:	bc10      	pop	{r4}
 80040b8:	1a40      	subs	r0, r0, r1
 80040ba:	fab0 f080 	clz	r0, r0
 80040be:	0940      	lsrs	r0, r0, #5
 80040c0:	4770      	bx	lr
 80040c2:	f1a1 0376 	sub.w	r3, r1, #118	@ 0x76
 80040c6:	2b18      	cmp	r3, #24
 80040c8:	d8ee      	bhi.n	80040a8 <_ZNK12_GLOBAL__N_121system_error_category10equivalentEiRKSt15error_condition+0x20>
 80040ca:	4c0e      	ldr	r4, [pc, #56]	@ (8004104 <_ZNK12_GLOBAL__N_121system_error_category10equivalentEiRKSt15error_condition+0x7c>)
 80040cc:	fa24 f303 	lsr.w	r3, r4, r3
 80040d0:	07db      	lsls	r3, r3, #31
 80040d2:	d5e9      	bpl.n	80040a8 <_ZNK12_GLOBAL__N_121system_error_category10equivalentEiRKSt15error_condition+0x20>
 80040d4:	480a      	ldr	r0, [pc, #40]	@ (8004100 <_ZNK12_GLOBAL__N_121system_error_category10equivalentEiRKSt15error_condition+0x78>)
 80040d6:	e7e7      	b.n	80040a8 <_ZNK12_GLOBAL__N_121system_error_category10equivalentEiRKSt15error_condition+0x20>
 80040d8:	4b0b      	ldr	r3, [pc, #44]	@ (8004108 <_ZNK12_GLOBAL__N_121system_error_category10equivalentEiRKSt15error_condition+0x80>)
 80040da:	f1a1 0458 	sub.w	r4, r1, #88	@ 0x58
 80040de:	40e3      	lsrs	r3, r4
 80040e0:	07dc      	lsls	r4, r3, #31
 80040e2:	d5e1      	bpl.n	80040a8 <_ZNK12_GLOBAL__N_121system_error_category10equivalentEiRKSt15error_condition+0x20>
 80040e4:	e7df      	b.n	80040a6 <_ZNK12_GLOBAL__N_121system_error_category10equivalentEiRKSt15error_condition+0x1e>
 80040e6:	f1a1 032d 	sub.w	r3, r1, #45	@ 0x2d
 80040ea:	2b01      	cmp	r3, #1
 80040ec:	d9db      	bls.n	80040a6 <_ZNK12_GLOBAL__N_121system_error_category10equivalentEiRKSt15error_condition+0x1e>
 80040ee:	e7db      	b.n	80040a8 <_ZNK12_GLOBAL__N_121system_error_category10equivalentEiRKSt15error_condition+0x20>
 80040f0:	4b06      	ldr	r3, [pc, #24]	@ (800410c <_ZNK12_GLOBAL__N_121system_error_category10equivalentEiRKSt15error_condition+0x84>)
 80040f2:	f1a1 043c 	sub.w	r4, r1, #60	@ 0x3c
 80040f6:	40e3      	lsrs	r3, r4
 80040f8:	07db      	lsls	r3, r3, #31
 80040fa:	d5d5      	bpl.n	80040a8 <_ZNK12_GLOBAL__N_121system_error_category10equivalentEiRKSt15error_condition+0x20>
 80040fc:	e7d3      	b.n	80040a6 <_ZNK12_GLOBAL__N_121system_error_category10equivalentEiRKSt15error_condition+0x1e>
 80040fe:	bf00      	nop
 8004100:	200000a0 	.word	0x200000a0
 8004104:	01f107bf 	.word	0x01f107bf
 8004108:	1fbf009d 	.word	0x1fbf009d
 800410c:	0002088f 	.word	0x0002088f

08004110 <_ZdlPvSt11align_val_t>:
 8004110:	f001 b802 	b.w	8005118 <__malloc_free>

08004114 <_ZSt15get_new_handlerv>:
 8004114:	4b02      	ldr	r3, [pc, #8]	@ (8004120 <_ZSt15get_new_handlerv+0xc>)
 8004116:	6818      	ldr	r0, [r3, #0]
 8004118:	f3bf 8f5b 	dmb	ish
 800411c:	4770      	bx	lr
 800411e:	bf00      	nop
 8004120:	200001c0 	.word	0x200001c0

08004124 <_Znwj>:
 8004124:	2801      	cmp	r0, #1
 8004126:	bf38      	it	cc
 8004128:	2001      	movcc	r0, #1
 800412a:	b510      	push	{r4, lr}
 800412c:	4604      	mov	r4, r0
 800412e:	4620      	mov	r0, r4
 8004130:	f001 f876 	bl	8005220 <__malloc_malloc>
 8004134:	b100      	cbz	r0, 8004138 <_Znwj+0x14>
 8004136:	bd10      	pop	{r4, pc}
 8004138:	f7ff ffec 	bl	8004114 <_ZSt15get_new_handlerv>
 800413c:	b108      	cbz	r0, 8004142 <_Znwj+0x1e>
 800413e:	4780      	blx	r0
 8004140:	e7f5      	b.n	800412e <_Znwj+0xa>
 8004142:	2004      	movs	r0, #4
 8004144:	f7fe fea4 	bl	8002e90 <__wrap___cxa_allocate_exception>
 8004148:	4b02      	ldr	r3, [pc, #8]	@ (8004154 <_Znwj+0x30>)
 800414a:	4a03      	ldr	r2, [pc, #12]	@ (8004158 <_Znwj+0x34>)
 800414c:	4903      	ldr	r1, [pc, #12]	@ (800415c <_Znwj+0x38>)
 800414e:	6003      	str	r3, [r0, #0]
 8004150:	f7fe fdf4 	bl	8002d3c <__wrap___cxa_throw>
 8004154:	08007948 	.word	0x08007948
 8004158:	080030d5 	.word	0x080030d5
 800415c:	08007934 	.word	0x08007934

08004160 <__aeabi_drsub>:
 8004160:	f081 4100 	eor.w	r1, r1, #2147483648	@ 0x80000000
 8004164:	e002      	b.n	800416c <__adddf3>
 8004166:	bf00      	nop

08004168 <__aeabi_dsub>:
 8004168:	f083 4300 	eor.w	r3, r3, #2147483648	@ 0x80000000

0800416c <__adddf3>:
 800416c:	b530      	push	{r4, r5, lr}
 800416e:	ea4f 0441 	mov.w	r4, r1, lsl #1
 8004172:	ea4f 0543 	mov.w	r5, r3, lsl #1
 8004176:	ea94 0f05 	teq	r4, r5
 800417a:	bf08      	it	eq
 800417c:	ea90 0f02 	teqeq	r0, r2
 8004180:	bf1f      	itttt	ne
 8004182:	ea54 0c00 	orrsne.w	ip, r4, r0
 8004186:	ea55 0c02 	orrsne.w	ip, r5, r2
 800418a:	ea7f 5c64 	mvnsne.w	ip, r4, asr #21
 800418e:	ea7f 5c65 	mvnsne.w	ip, r5, asr #21
 8004192:	f000 80e2 	beq.w	800435a <__adddf3+0x1ee>
 8004196:	ea4f 5454 	mov.w	r4, r4, lsr #21
 800419a:	ebd4 5555 	rsbs	r5, r4, r5, lsr #21
 800419e:	bfb8      	it	lt
 80041a0:	426d      	neglt	r5, r5
 80041a2:	dd0c      	ble.n	80041be <__adddf3+0x52>
 80041a4:	442c      	add	r4, r5
 80041a6:	ea80 0202 	eor.w	r2, r0, r2
 80041aa:	ea81 0303 	eor.w	r3, r1, r3
 80041ae:	ea82 0000 	eor.w	r0, r2, r0
 80041b2:	ea83 0101 	eor.w	r1, r3, r1
 80041b6:	ea80 0202 	eor.w	r2, r0, r2
 80041ba:	ea81 0303 	eor.w	r3, r1, r3
 80041be:	2d36      	cmp	r5, #54	@ 0x36
 80041c0:	bf88      	it	hi
 80041c2:	bd30      	pophi	{r4, r5, pc}
 80041c4:	f011 4f00 	tst.w	r1, #2147483648	@ 0x80000000
 80041c8:	ea4f 3101 	mov.w	r1, r1, lsl #12
 80041cc:	f44f 1c80 	mov.w	ip, #1048576	@ 0x100000
 80041d0:	ea4c 3111 	orr.w	r1, ip, r1, lsr #12
 80041d4:	d002      	beq.n	80041dc <__adddf3+0x70>
 80041d6:	4240      	negs	r0, r0
 80041d8:	eb61 0141 	sbc.w	r1, r1, r1, lsl #1
 80041dc:	f013 4f00 	tst.w	r3, #2147483648	@ 0x80000000
 80041e0:	ea4f 3303 	mov.w	r3, r3, lsl #12
 80041e4:	ea4c 3313 	orr.w	r3, ip, r3, lsr #12
 80041e8:	d002      	beq.n	80041f0 <__adddf3+0x84>
 80041ea:	4252      	negs	r2, r2
 80041ec:	eb63 0343 	sbc.w	r3, r3, r3, lsl #1
 80041f0:	ea94 0f05 	teq	r4, r5
 80041f4:	f000 80a7 	beq.w	8004346 <__adddf3+0x1da>
 80041f8:	f1a4 0401 	sub.w	r4, r4, #1
 80041fc:	f1d5 0e20 	rsbs	lr, r5, #32
 8004200:	db0d      	blt.n	800421e <__adddf3+0xb2>
 8004202:	fa02 fc0e 	lsl.w	ip, r2, lr
 8004206:	fa22 f205 	lsr.w	r2, r2, r5
 800420a:	1880      	adds	r0, r0, r2
 800420c:	f141 0100 	adc.w	r1, r1, #0
 8004210:	fa03 f20e 	lsl.w	r2, r3, lr
 8004214:	1880      	adds	r0, r0, r2
 8004216:	fa43 f305 	asr.w	r3, r3, r5
 800421a:	4159      	adcs	r1, r3
 800421c:	e00e      	b.n	800423c <__adddf3+0xd0>
 800421e:	f1a5 0520 	sub.w	r5, r5, #32
 8004222:	f10e 0e20 	add.w	lr, lr, #32
 8004226:	2a01      	cmp	r2, #1
 8004228:	fa03 fc0e 	lsl.w	ip, r3, lr
 800422c:	bf28      	it	cs
 800422e:	f04c 0c02 	orrcs.w	ip, ip, #2
 8004232:	fa43 f305 	asr.w	r3, r3, r5
 8004236:	18c0      	adds	r0, r0, r3
 8004238:	eb51 71e3 	adcs.w	r1, r1, r3, asr #31
 800423c:	f001 4500 	and.w	r5, r1, #2147483648	@ 0x80000000
 8004240:	d507      	bpl.n	8004252 <__adddf3+0xe6>
 8004242:	f04f 0e00 	mov.w	lr, #0
 8004246:	f1dc 0c00 	rsbs	ip, ip, #0
 800424a:	eb7e 0000 	sbcs.w	r0, lr, r0
 800424e:	eb6e 0101 	sbc.w	r1, lr, r1
 8004252:	f5b1 1f80 	cmp.w	r1, #1048576	@ 0x100000
 8004256:	d31b      	bcc.n	8004290 <__adddf3+0x124>
 8004258:	f5b1 1f00 	cmp.w	r1, #2097152	@ 0x200000
 800425c:	d30c      	bcc.n	8004278 <__adddf3+0x10c>
 800425e:	0849      	lsrs	r1, r1, #1
 8004260:	ea5f 0030 	movs.w	r0, r0, rrx
 8004264:	ea4f 0c3c 	mov.w	ip, ip, rrx
 8004268:	f104 0401 	add.w	r4, r4, #1
 800426c:	ea4f 5244 	mov.w	r2, r4, lsl #21
 8004270:	f512 0f80 	cmn.w	r2, #4194304	@ 0x400000
 8004274:	f080 809a 	bcs.w	80043ac <__adddf3+0x240>
 8004278:	f1bc 4f00 	cmp.w	ip, #2147483648	@ 0x80000000
 800427c:	bf08      	it	eq
 800427e:	ea5f 0c50 	movseq.w	ip, r0, lsr #1
 8004282:	f150 0000 	adcs.w	r0, r0, #0
 8004286:	eb41 5104 	adc.w	r1, r1, r4, lsl #20
 800428a:	ea41 0105 	orr.w	r1, r1, r5
 800428e:	bd30      	pop	{r4, r5, pc}
 8004290:	ea5f 0c4c 	movs.w	ip, ip, lsl #1
 8004294:	4140      	adcs	r0, r0
 8004296:	eb41 0101 	adc.w	r1, r1, r1
 800429a:	3c01      	subs	r4, #1
 800429c:	bf28      	it	cs
 800429e:	f5b1 1f80 	cmpcs.w	r1, #1048576	@ 0x100000
 80042a2:	d2e9      	bcs.n	8004278 <__adddf3+0x10c>
 80042a4:	f091 0f00 	teq	r1, #0
 80042a8:	bf04      	itt	eq
 80042aa:	4601      	moveq	r1, r0
 80042ac:	2000      	moveq	r0, #0
 80042ae:	fab1 f381 	clz	r3, r1
 80042b2:	bf08      	it	eq
 80042b4:	3320      	addeq	r3, #32
 80042b6:	f1a3 030b 	sub.w	r3, r3, #11
 80042ba:	f1b3 0220 	subs.w	r2, r3, #32
 80042be:	da0c      	bge.n	80042da <__adddf3+0x16e>
 80042c0:	320c      	adds	r2, #12
 80042c2:	dd08      	ble.n	80042d6 <__adddf3+0x16a>
 80042c4:	f102 0c14 	add.w	ip, r2, #20
 80042c8:	f1c2 020c 	rsb	r2, r2, #12
 80042cc:	fa01 f00c 	lsl.w	r0, r1, ip
 80042d0:	fa21 f102 	lsr.w	r1, r1, r2
 80042d4:	e00c      	b.n	80042f0 <__adddf3+0x184>
 80042d6:	f102 0214 	add.w	r2, r2, #20
 80042da:	bfd8      	it	le
 80042dc:	f1c2 0c20 	rsble	ip, r2, #32
 80042e0:	fa01 f102 	lsl.w	r1, r1, r2
 80042e4:	fa20 fc0c 	lsr.w	ip, r0, ip
 80042e8:	bfdc      	itt	le
 80042ea:	ea41 010c 	orrle.w	r1, r1, ip
 80042ee:	4090      	lslle	r0, r2
 80042f0:	1ae4      	subs	r4, r4, r3
 80042f2:	bfa2      	ittt	ge
 80042f4:	eb01 5104 	addge.w	r1, r1, r4, lsl #20
 80042f8:	4329      	orrge	r1, r5
 80042fa:	bd30      	popge	{r4, r5, pc}
 80042fc:	ea6f 0404 	mvn.w	r4, r4
 8004300:	3c1f      	subs	r4, #31
 8004302:	da1c      	bge.n	800433e <__adddf3+0x1d2>
 8004304:	340c      	adds	r4, #12
 8004306:	dc0e      	bgt.n	8004326 <__adddf3+0x1ba>
 8004308:	f104 0414 	add.w	r4, r4, #20
 800430c:	f1c4 0220 	rsb	r2, r4, #32
 8004310:	fa20 f004 	lsr.w	r0, r0, r4
 8004314:	fa01 f302 	lsl.w	r3, r1, r2
 8004318:	ea40 0003 	orr.w	r0, r0, r3
 800431c:	fa21 f304 	lsr.w	r3, r1, r4
 8004320:	ea45 0103 	orr.w	r1, r5, r3
 8004324:	bd30      	pop	{r4, r5, pc}
 8004326:	f1c4 040c 	rsb	r4, r4, #12
 800432a:	f1c4 0220 	rsb	r2, r4, #32
 800432e:	fa20 f002 	lsr.w	r0, r0, r2
 8004332:	fa01 f304 	lsl.w	r3, r1, r4
 8004336:	ea40 0003 	orr.w	r0, r0, r3
 800433a:	4629      	mov	r1, r5
 800433c:	bd30      	pop	{r4, r5, pc}
 800433e:	fa21 f004 	lsr.w	r0, r1, r4
 8004342:	4629      	mov	r1, r5
 8004344:	bd30      	pop	{r4, r5, pc}
 8004346:	f094 0f00 	teq	r4, #0
 800434a:	f483 1380 	eor.w	r3, r3, #1048576	@ 0x100000
 800434e:	bf06      	itte	eq
 8004350:	f481 1180 	eoreq.w	r1, r1, #1048576	@ 0x100000
 8004354:	3401      	addeq	r4, #1
 8004356:	3d01      	subne	r5, #1
 8004358:	e74e      	b.n	80041f8 <__adddf3+0x8c>
 800435a:	ea7f 5c64 	mvns.w	ip, r4, asr #21
 800435e:	bf18      	it	ne
 8004360:	ea7f 5c65 	mvnsne.w	ip, r5, asr #21
 8004364:	d029      	beq.n	80043ba <__adddf3+0x24e>
 8004366:	ea94 0f05 	teq	r4, r5
 800436a:	bf08      	it	eq
 800436c:	ea90 0f02 	teqeq	r0, r2
 8004370:	d005      	beq.n	800437e <__adddf3+0x212>
 8004372:	ea54 0c00 	orrs.w	ip, r4, r0
 8004376:	bf04      	itt	eq
 8004378:	4619      	moveq	r1, r3
 800437a:	4610      	moveq	r0, r2
 800437c:	bd30      	pop	{r4, r5, pc}
 800437e:	ea91 0f03 	teq	r1, r3
 8004382:	bf1e      	ittt	ne
 8004384:	2100      	movne	r1, #0
 8004386:	2000      	movne	r0, #0
 8004388:	bd30      	popne	{r4, r5, pc}
 800438a:	ea5f 5c54 	movs.w	ip, r4, lsr #21
 800438e:	d105      	bne.n	800439c <__adddf3+0x230>
 8004390:	0040      	lsls	r0, r0, #1
 8004392:	4149      	adcs	r1, r1
 8004394:	bf28      	it	cs
 8004396:	f041 4100 	orrcs.w	r1, r1, #2147483648	@ 0x80000000
 800439a:	bd30      	pop	{r4, r5, pc}
 800439c:	f514 0480 	adds.w	r4, r4, #4194304	@ 0x400000
 80043a0:	bf3c      	itt	cc
 80043a2:	f501 1180 	addcc.w	r1, r1, #1048576	@ 0x100000
 80043a6:	bd30      	popcc	{r4, r5, pc}
 80043a8:	f001 4500 	and.w	r5, r1, #2147483648	@ 0x80000000
 80043ac:	f045 41fe 	orr.w	r1, r5, #2130706432	@ 0x7f000000
 80043b0:	f441 0170 	orr.w	r1, r1, #15728640	@ 0xf00000
 80043b4:	f04f 0000 	mov.w	r0, #0
 80043b8:	bd30      	pop	{r4, r5, pc}
 80043ba:	ea7f 5c64 	mvns.w	ip, r4, asr #21
 80043be:	bf1a      	itte	ne
 80043c0:	4619      	movne	r1, r3
 80043c2:	4610      	movne	r0, r2
 80043c4:	ea7f 5c65 	mvnseq.w	ip, r5, asr #21
 80043c8:	bf1c      	itt	ne
 80043ca:	460b      	movne	r3, r1
 80043cc:	4602      	movne	r2, r0
 80043ce:	ea50 3401 	orrs.w	r4, r0, r1, lsl #12
 80043d2:	bf06      	itte	eq
 80043d4:	ea52 3503 	orrseq.w	r5, r2, r3, lsl #12
 80043d8:	ea91 0f03 	teqeq	r1, r3
 80043dc:	f441 2100 	orrne.w	r1, r1, #524288	@ 0x80000
 80043e0:	bd30      	pop	{r4, r5, pc}
 80043e2:	bf00      	nop

080043e4 <__aeabi_ui2d>:
 80043e4:	f090 0f00 	teq	r0, #0
 80043e8:	bf04      	itt	eq
 80043ea:	2100      	moveq	r1, #0
 80043ec:	4770      	bxeq	lr
 80043ee:	b530      	push	{r4, r5, lr}
 80043f0:	f44f 6480 	mov.w	r4, #1024	@ 0x400
 80043f4:	f104 0432 	add.w	r4, r4, #50	@ 0x32
 80043f8:	f04f 0500 	mov.w	r5, #0
 80043fc:	f04f 0100 	mov.w	r1, #0
 8004400:	e750      	b.n	80042a4 <__adddf3+0x138>
 8004402:	bf00      	nop

08004404 <__aeabi_i2d>:
 8004404:	f090 0f00 	teq	r0, #0
 8004408:	bf04      	itt	eq
 800440a:	2100      	moveq	r1, #0
 800440c:	4770      	bxeq	lr
 800440e:	b530      	push	{r4, r5, lr}
 8004410:	f44f 6480 	mov.w	r4, #1024	@ 0x400
 8004414:	f104 0432 	add.w	r4, r4, #50	@ 0x32
 8004418:	f010 4500 	ands.w	r5, r0, #2147483648	@ 0x80000000
 800441c:	bf48      	it	mi
 800441e:	4240      	negmi	r0, r0
 8004420:	f04f 0100 	mov.w	r1, #0
 8004424:	e73e      	b.n	80042a4 <__adddf3+0x138>
 8004426:	bf00      	nop

08004428 <__aeabi_f2d>:
 8004428:	0042      	lsls	r2, r0, #1
 800442a:	ea4f 01e2 	mov.w	r1, r2, asr #3
 800442e:	ea4f 0131 	mov.w	r1, r1, rrx
 8004432:	ea4f 7002 	mov.w	r0, r2, lsl #28
 8004436:	bf1f      	itttt	ne
 8004438:	f012 437f 	andsne.w	r3, r2, #4278190080	@ 0xff000000
 800443c:	f093 4f7f 	teqne	r3, #4278190080	@ 0xff000000
 8004440:	f081 5160 	eorne.w	r1, r1, #939524096	@ 0x38000000
 8004444:	4770      	bxne	lr
 8004446:	f032 427f 	bics.w	r2, r2, #4278190080	@ 0xff000000
 800444a:	bf08      	it	eq
 800444c:	4770      	bxeq	lr
 800444e:	f093 4f7f 	teq	r3, #4278190080	@ 0xff000000
 8004452:	bf04      	itt	eq
 8004454:	f441 2100 	orreq.w	r1, r1, #524288	@ 0x80000
 8004458:	4770      	bxeq	lr
 800445a:	b530      	push	{r4, r5, lr}
 800445c:	f44f 7460 	mov.w	r4, #896	@ 0x380
 8004460:	f001 4500 	and.w	r5, r1, #2147483648	@ 0x80000000
 8004464:	f021 4100 	bic.w	r1, r1, #2147483648	@ 0x80000000
 8004468:	e71c      	b.n	80042a4 <__adddf3+0x138>
 800446a:	bf00      	nop

0800446c <__aeabi_ul2d>:
 800446c:	ea50 0201 	orrs.w	r2, r0, r1
 8004470:	bf08      	it	eq
 8004472:	4770      	bxeq	lr
 8004474:	b530      	push	{r4, r5, lr}
 8004476:	f04f 0500 	mov.w	r5, #0
 800447a:	e00a      	b.n	8004492 <__aeabi_l2d+0x16>

0800447c <__aeabi_l2d>:
 800447c:	ea50 0201 	orrs.w	r2, r0, r1
 8004480:	bf08      	it	eq
 8004482:	4770      	bxeq	lr
 8004484:	b530      	push	{r4, r5, lr}
 8004486:	f011 4500 	ands.w	r5, r1, #2147483648	@ 0x80000000
 800448a:	d502      	bpl.n	8004492 <__aeabi_l2d+0x16>
 800448c:	4240      	negs	r0, r0
 800448e:	eb61 0141 	sbc.w	r1, r1, r1, lsl #1
 8004492:	f44f 6480 	mov.w	r4, #1024	@ 0x400
 8004496:	f104 0432 	add.w	r4, r4, #50	@ 0x32
 800449a:	ea5f 5c91 	movs.w	ip, r1, lsr #22
 800449e:	f43f aed8 	beq.w	8004252 <__adddf3+0xe6>
 80044a2:	f04f 0203 	mov.w	r2, #3
 80044a6:	ea5f 0cdc 	movs.w	ip, ip, lsr #3
 80044aa:	bf18      	it	ne
 80044ac:	3203      	addne	r2, #3
 80044ae:	ea5f 0cdc 	movs.w	ip, ip, lsr #3
 80044b2:	bf18      	it	ne
 80044b4:	3203      	addne	r2, #3
 80044b6:	eb02 02dc 	add.w	r2, r2, ip, lsr #3
 80044ba:	f1c2 0320 	rsb	r3, r2, #32
 80044be:	fa00 fc03 	lsl.w	ip, r0, r3
 80044c2:	fa20 f002 	lsr.w	r0, r0, r2
 80044c6:	fa01 fe03 	lsl.w	lr, r1, r3
 80044ca:	ea40 000e 	orr.w	r0, r0, lr
 80044ce:	fa21 f102 	lsr.w	r1, r1, r2
 80044d2:	4414      	add	r4, r2
 80044d4:	e6bd      	b.n	8004252 <__adddf3+0xe6>
 80044d6:	bf00      	nop

080044d8 <__aeabi_dmul>:
 80044d8:	b570      	push	{r4, r5, r6, lr}
 80044da:	f04f 0cff 	mov.w	ip, #255	@ 0xff
 80044de:	f44c 6ce0 	orr.w	ip, ip, #1792	@ 0x700
 80044e2:	ea1c 5411 	ands.w	r4, ip, r1, lsr #20
 80044e6:	bf1d      	ittte	ne
 80044e8:	ea1c 5513 	andsne.w	r5, ip, r3, lsr #20
 80044ec:	ea94 0f0c 	teqne	r4, ip
 80044f0:	ea95 0f0c 	teqne	r5, ip
 80044f4:	f000 f8de 	bleq	80046b4 <__aeabi_dmul+0x1dc>
 80044f8:	442c      	add	r4, r5
 80044fa:	ea81 0603 	eor.w	r6, r1, r3
 80044fe:	ea21 514c 	bic.w	r1, r1, ip, lsl #21
 8004502:	ea23 534c 	bic.w	r3, r3, ip, lsl #21
 8004506:	ea50 3501 	orrs.w	r5, r0, r1, lsl #12
 800450a:	bf18      	it	ne
 800450c:	ea52 3503 	orrsne.w	r5, r2, r3, lsl #12
 8004510:	f441 1180 	orr.w	r1, r1, #1048576	@ 0x100000
 8004514:	f443 1380 	orr.w	r3, r3, #1048576	@ 0x100000
 8004518:	d038      	beq.n	800458c <__aeabi_dmul+0xb4>
 800451a:	fba0 ce02 	umull	ip, lr, r0, r2
 800451e:	f04f 0500 	mov.w	r5, #0
 8004522:	fbe1 e502 	umlal	lr, r5, r1, r2
 8004526:	f006 4200 	and.w	r2, r6, #2147483648	@ 0x80000000
 800452a:	fbe0 e503 	umlal	lr, r5, r0, r3
 800452e:	f04f 0600 	mov.w	r6, #0
 8004532:	fbe1 5603 	umlal	r5, r6, r1, r3
 8004536:	f09c 0f00 	teq	ip, #0
 800453a:	bf18      	it	ne
 800453c:	f04e 0e01 	orrne.w	lr, lr, #1
 8004540:	f1a4 04ff 	sub.w	r4, r4, #255	@ 0xff
 8004544:	f5b6 7f00 	cmp.w	r6, #512	@ 0x200
 8004548:	f564 7440 	sbc.w	r4, r4, #768	@ 0x300
 800454c:	d204      	bcs.n	8004558 <__aeabi_dmul+0x80>
 800454e:	ea5f 0e4e 	movs.w	lr, lr, lsl #1
 8004552:	416d      	adcs	r5, r5
 8004554:	eb46 0606 	adc.w	r6, r6, r6
 8004558:	ea42 21c6 	orr.w	r1, r2, r6, lsl #11
 800455c:	ea41 5155 	orr.w	r1, r1, r5, lsr #21
 8004560:	ea4f 20c5 	mov.w	r0, r5, lsl #11
 8004564:	ea40 505e 	orr.w	r0, r0, lr, lsr #21
 8004568:	ea4f 2ece 	mov.w	lr, lr, lsl #11
 800456c:	f1b4 0cfd 	subs.w	ip, r4, #253	@ 0xfd
 8004570:	bf88      	it	hi
 8004572:	f5bc 6fe0 	cmphi.w	ip, #1792	@ 0x700
 8004576:	d81e      	bhi.n	80045b6 <__aeabi_dmul+0xde>
 8004578:	f1be 4f00 	cmp.w	lr, #2147483648	@ 0x80000000
 800457c:	bf08      	it	eq
 800457e:	ea5f 0e50 	movseq.w	lr, r0, lsr #1
 8004582:	f150 0000 	adcs.w	r0, r0, #0
 8004586:	eb41 5104 	adc.w	r1, r1, r4, lsl #20
 800458a:	bd70      	pop	{r4, r5, r6, pc}
 800458c:	f006 4600 	and.w	r6, r6, #2147483648	@ 0x80000000
 8004590:	ea46 0101 	orr.w	r1, r6, r1
 8004594:	ea40 0002 	orr.w	r0, r0, r2
 8004598:	ea81 0103 	eor.w	r1, r1, r3
 800459c:	ebb4 045c 	subs.w	r4, r4, ip, lsr #1
 80045a0:	bfc2      	ittt	gt
 80045a2:	ebd4 050c 	rsbsgt	r5, r4, ip
 80045a6:	ea41 5104 	orrgt.w	r1, r1, r4, lsl #20
 80045aa:	bd70      	popgt	{r4, r5, r6, pc}
 80045ac:	f441 1180 	orr.w	r1, r1, #1048576	@ 0x100000
 80045b0:	f04f 0e00 	mov.w	lr, #0
 80045b4:	3c01      	subs	r4, #1
 80045b6:	f300 80ab 	bgt.w	8004710 <__aeabi_dmul+0x238>
 80045ba:	f114 0f36 	cmn.w	r4, #54	@ 0x36
 80045be:	bfde      	ittt	le
 80045c0:	2000      	movle	r0, #0
 80045c2:	f001 4100 	andle.w	r1, r1, #2147483648	@ 0x80000000
 80045c6:	bd70      	pople	{r4, r5, r6, pc}
 80045c8:	f1c4 0400 	rsb	r4, r4, #0
 80045cc:	3c20      	subs	r4, #32
 80045ce:	da35      	bge.n	800463c <__aeabi_dmul+0x164>
 80045d0:	340c      	adds	r4, #12
 80045d2:	dc1b      	bgt.n	800460c <__aeabi_dmul+0x134>
 80045d4:	f104 0414 	add.w	r4, r4, #20
 80045d8:	f1c4 0520 	rsb	r5, r4, #32
 80045dc:	fa00 f305 	lsl.w	r3, r0, r5
 80045e0:	fa20 f004 	lsr.w	r0, r0, r4
 80045e4:	fa01 f205 	lsl.w	r2, r1, r5
 80045e8:	ea40 0002 	orr.w	r0, r0, r2
 80045ec:	f001 4200 	and.w	r2, r1, #2147483648	@ 0x80000000
 80045f0:	f021 4100 	bic.w	r1, r1, #2147483648	@ 0x80000000
 80045f4:	eb10 70d3 	adds.w	r0, r0, r3, lsr #31
 80045f8:	fa21 f604 	lsr.w	r6, r1, r4
 80045fc:	eb42 0106 	adc.w	r1, r2, r6
 8004600:	ea5e 0e43 	orrs.w	lr, lr, r3, lsl #1
 8004604:	bf08      	it	eq
 8004606:	ea20 70d3 	biceq.w	r0, r0, r3, lsr #31
 800460a:	bd70      	pop	{r4, r5, r6, pc}
 800460c:	f1c4 040c 	rsb	r4, r4, #12
 8004610:	f1c4 0520 	rsb	r5, r4, #32
 8004614:	fa00 f304 	lsl.w	r3, r0, r4
 8004618:	fa20 f005 	lsr.w	r0, r0, r5
 800461c:	fa01 f204 	lsl.w	r2, r1, r4
 8004620:	ea40 0002 	orr.w	r0, r0, r2
 8004624:	f001 4100 	and.w	r1, r1, #2147483648	@ 0x80000000
 8004628:	eb10 70d3 	adds.w	r0, r0, r3, lsr #31
 800462c:	f141 0100 	adc.w	r1, r1, #0
 8004630:	ea5e 0e43 	orrs.w	lr, lr, r3, lsl #1
 8004634:	bf08      	it	eq
 8004636:	ea20 70d3 	biceq.w	r0, r0, r3, lsr #31
 800463a:	bd70      	pop	{r4, r5, r6, pc}
 800463c:	f1c4 0520 	rsb	r5, r4, #32
 8004640:	fa00 f205 	lsl.w	r2, r0, r5
 8004644:	ea4e 0e02 	orr.w	lr, lr, r2
 8004648:	fa20 f304 	lsr.w	r3, r0, r4
 800464c:	fa01 f205 	lsl.w	r2, r1, r5
 8004650:	ea43 0302 	orr.w	r3, r3, r2
 8004654:	fa21 f004 	lsr.w	r0, r1, r4
 8004658:	f001 4100 	and.w	r1, r1, #2147483648	@ 0x80000000
 800465c:	fa21 f204 	lsr.w	r2, r1, r4
 8004660:	ea20 0002 	bic.w	r0, r0, r2
 8004664:	eb00 70d3 	add.w	r0, r0, r3, lsr #31
 8004668:	ea5e 0e43 	orrs.w	lr, lr, r3, lsl #1
 800466c:	bf08      	it	eq
 800466e:	ea20 70d3 	biceq.w	r0, r0, r3, lsr #31
 8004672:	bd70      	pop	{r4, r5, r6, pc}
 8004674:	f094 0f00 	teq	r4, #0
 8004678:	d10f      	bne.n	800469a <__aeabi_dmul+0x1c2>
 800467a:	f001 4600 	and.w	r6, r1, #2147483648	@ 0x80000000
 800467e:	0040      	lsls	r0, r0, #1
 8004680:	eb41 0101 	adc.w	r1, r1, r1
 8004684:	f411 1f80 	tst.w	r1, #1048576	@ 0x100000
 8004688:	bf08      	it	eq
 800468a:	3c01      	subeq	r4, #1
 800468c:	d0f7      	beq.n	800467e <__aeabi_dmul+0x1a6>
 800468e:	ea41 0106 	orr.w	r1, r1, r6
 8004692:	f095 0f00 	teq	r5, #0
 8004696:	bf18      	it	ne
 8004698:	4770      	bxne	lr
 800469a:	f003 4600 	and.w	r6, r3, #2147483648	@ 0x80000000
 800469e:	0052      	lsls	r2, r2, #1
 80046a0:	eb43 0303 	adc.w	r3, r3, r3
 80046a4:	f413 1f80 	tst.w	r3, #1048576	@ 0x100000
 80046a8:	bf08      	it	eq
 80046aa:	3d01      	subeq	r5, #1
 80046ac:	d0f7      	beq.n	800469e <__aeabi_dmul+0x1c6>
 80046ae:	ea43 0306 	orr.w	r3, r3, r6
 80046b2:	4770      	bx	lr
 80046b4:	ea94 0f0c 	teq	r4, ip
 80046b8:	ea0c 5513 	and.w	r5, ip, r3, lsr #20
 80046bc:	bf18      	it	ne
 80046be:	ea95 0f0c 	teqne	r5, ip
 80046c2:	d00c      	beq.n	80046de <__aeabi_dmul+0x206>
 80046c4:	ea50 0641 	orrs.w	r6, r0, r1, lsl #1
 80046c8:	bf18      	it	ne
 80046ca:	ea52 0643 	orrsne.w	r6, r2, r3, lsl #1
 80046ce:	d1d1      	bne.n	8004674 <__aeabi_dmul+0x19c>
 80046d0:	ea81 0103 	eor.w	r1, r1, r3
 80046d4:	f001 4100 	and.w	r1, r1, #2147483648	@ 0x80000000
 80046d8:	f04f 0000 	mov.w	r0, #0
 80046dc:	bd70      	pop	{r4, r5, r6, pc}
 80046de:	ea50 0641 	orrs.w	r6, r0, r1, lsl #1
 80046e2:	bf06      	itte	eq
 80046e4:	4610      	moveq	r0, r2
 80046e6:	4619      	moveq	r1, r3
 80046e8:	ea52 0643 	orrsne.w	r6, r2, r3, lsl #1
 80046ec:	d019      	beq.n	8004722 <__aeabi_dmul+0x24a>
 80046ee:	ea94 0f0c 	teq	r4, ip
 80046f2:	d102      	bne.n	80046fa <__aeabi_dmul+0x222>
 80046f4:	ea50 3601 	orrs.w	r6, r0, r1, lsl #12
 80046f8:	d113      	bne.n	8004722 <__aeabi_dmul+0x24a>
 80046fa:	ea95 0f0c 	teq	r5, ip
 80046fe:	d105      	bne.n	800470c <__aeabi_dmul+0x234>
 8004700:	ea52 3603 	orrs.w	r6, r2, r3, lsl #12
 8004704:	bf1c      	itt	ne
 8004706:	4610      	movne	r0, r2
 8004708:	4619      	movne	r1, r3
 800470a:	d10a      	bne.n	8004722 <__aeabi_dmul+0x24a>
 800470c:	ea81 0103 	eor.w	r1, r1, r3
 8004710:	f001 4100 	and.w	r1, r1, #2147483648	@ 0x80000000
 8004714:	f041 41fe 	orr.w	r1, r1, #2130706432	@ 0x7f000000
 8004718:	f441 0170 	orr.w	r1, r1, #15728640	@ 0xf00000
 800471c:	f04f 0000 	mov.w	r0, #0
 8004720:	bd70      	pop	{r4, r5, r6, pc}
 8004722:	f041 41fe 	orr.w	r1, r1, #2130706432	@ 0x7f000000
 8004726:	f441 0178 	orr.w	r1, r1, #16252928	@ 0xf80000
 800472a:	bd70      	pop	{r4, r5, r6, pc}

0800472c <__aeabi_ddiv>:
 800472c:	b570      	push	{r4, r5, r6, lr}
 800472e:	f04f 0cff 	mov.w	ip, #255	@ 0xff
 8004732:	f44c 6ce0 	orr.w	ip, ip, #1792	@ 0x700
 8004736:	ea1c 5411 	ands.w	r4, ip, r1, lsr #20
 800473a:	bf1d      	ittte	ne
 800473c:	ea1c 5513 	andsne.w	r5, ip, r3, lsr #20
 8004740:	ea94 0f0c 	teqne	r4, ip
 8004744:	ea95 0f0c 	teqne	r5, ip
 8004748:	f000 f8a7 	bleq	800489a <__aeabi_ddiv+0x16e>
 800474c:	eba4 0405 	sub.w	r4, r4, r5
 8004750:	ea81 0e03 	eor.w	lr, r1, r3
 8004754:	ea52 3503 	orrs.w	r5, r2, r3, lsl #12
 8004758:	ea4f 3101 	mov.w	r1, r1, lsl #12
 800475c:	f000 8088 	beq.w	8004870 <__aeabi_ddiv+0x144>
 8004760:	ea4f 3303 	mov.w	r3, r3, lsl #12
 8004764:	f04f 5580 	mov.w	r5, #268435456	@ 0x10000000
 8004768:	ea45 1313 	orr.w	r3, r5, r3, lsr #4
 800476c:	ea43 6312 	orr.w	r3, r3, r2, lsr #24
 8004770:	ea4f 2202 	mov.w	r2, r2, lsl #8
 8004774:	ea45 1511 	orr.w	r5, r5, r1, lsr #4
 8004778:	ea45 6510 	orr.w	r5, r5, r0, lsr #24
 800477c:	ea4f 2600 	mov.w	r6, r0, lsl #8
 8004780:	f00e 4100 	and.w	r1, lr, #2147483648	@ 0x80000000
 8004784:	429d      	cmp	r5, r3
 8004786:	bf08      	it	eq
 8004788:	4296      	cmpeq	r6, r2
 800478a:	f144 04fd 	adc.w	r4, r4, #253	@ 0xfd
 800478e:	f504 7440 	add.w	r4, r4, #768	@ 0x300
 8004792:	d202      	bcs.n	800479a <__aeabi_ddiv+0x6e>
 8004794:	085b      	lsrs	r3, r3, #1
 8004796:	ea4f 0232 	mov.w	r2, r2, rrx
 800479a:	1ab6      	subs	r6, r6, r2
 800479c:	eb65 0503 	sbc.w	r5, r5, r3
 80047a0:	085b      	lsrs	r3, r3, #1
 80047a2:	ea4f 0232 	mov.w	r2, r2, rrx
 80047a6:	f44f 1080 	mov.w	r0, #1048576	@ 0x100000
 80047aa:	f44f 2c00 	mov.w	ip, #524288	@ 0x80000
 80047ae:	ebb6 0e02 	subs.w	lr, r6, r2
 80047b2:	eb75 0e03 	sbcs.w	lr, r5, r3
 80047b6:	bf22      	ittt	cs
 80047b8:	1ab6      	subcs	r6, r6, r2
 80047ba:	4675      	movcs	r5, lr
 80047bc:	ea40 000c 	orrcs.w	r0, r0, ip
 80047c0:	085b      	lsrs	r3, r3, #1
 80047c2:	ea4f 0232 	mov.w	r2, r2, rrx
 80047c6:	ebb6 0e02 	subs.w	lr, r6, r2
 80047ca:	eb75 0e03 	sbcs.w	lr, r5, r3
 80047ce:	bf22      	ittt	cs
 80047d0:	1ab6      	subcs	r6, r6, r2
 80047d2:	4675      	movcs	r5, lr
 80047d4:	ea40 005c 	orrcs.w	r0, r0, ip, lsr #1
 80047d8:	085b      	lsrs	r3, r3, #1
 80047da:	ea4f 0232 	mov.w	r2, r2, rrx
 80047de:	ebb6 0e02 	subs.w	lr, r6, r2
 80047e2:	eb75 0e03 	sbcs.w	lr, r5, r3
 80047e6:	bf22      	ittt	cs
 80047e8:	1ab6      	subcs	r6, r6, r2
 80047ea:	4675      	movcs	r5, lr
 80047ec:	ea40 009c 	orrcs.w	r0, r0, ip, lsr #2
 80047f0:	085b      	lsrs	r3, r3, #1
 80047f2:	ea4f 0232 	mov.w	r2, r2, rrx
 80047f6:	ebb6 0e02 	subs.w	lr, r6, r2
 80047fa:	eb75 0e03 	sbcs.w	lr, r5, r3
 80047fe:	bf22      	ittt	cs
 8004800:	1ab6      	subcs	r6, r6, r2
 8004802:	4675      	movcs	r5, lr
 8004804:	ea40 00dc 	orrcs.w	r0, r0, ip, lsr #3
 8004808:	ea55 0e06 	orrs.w	lr, r5, r6
 800480c:	d018      	beq.n	8004840 <__aeabi_ddiv+0x114>
 800480e:	ea4f 1505 	mov.w	r5, r5, lsl #4
 8004812:	ea45 7516 	orr.w	r5, r5, r6, lsr #28
 8004816:	ea4f 1606 	mov.w	r6, r6, lsl #4
 800481a:	ea4f 03c3 	mov.w	r3, r3, lsl #3
 800481e:	ea43 7352 	orr.w	r3, r3, r2, lsr #29
 8004822:	ea4f 02c2 	mov.w	r2, r2, lsl #3
 8004826:	ea5f 1c1c 	movs.w	ip, ip, lsr #4
 800482a:	d1c0      	bne.n	80047ae <__aeabi_ddiv+0x82>
 800482c:	f411 1f80 	tst.w	r1, #1048576	@ 0x100000
 8004830:	d10b      	bne.n	800484a <__aeabi_ddiv+0x11e>
 8004832:	ea41 0100 	orr.w	r1, r1, r0
 8004836:	f04f 0000 	mov.w	r0, #0
 800483a:	f04f 4c00 	mov.w	ip, #2147483648	@ 0x80000000
 800483e:	e7b6      	b.n	80047ae <__aeabi_ddiv+0x82>
 8004840:	f411 1f80 	tst.w	r1, #1048576	@ 0x100000
 8004844:	bf04      	itt	eq
 8004846:	4301      	orreq	r1, r0
 8004848:	2000      	moveq	r0, #0
 800484a:	f1b4 0cfd 	subs.w	ip, r4, #253	@ 0xfd
 800484e:	bf88      	it	hi
 8004850:	f5bc 6fe0 	cmphi.w	ip, #1792	@ 0x700
 8004854:	f63f aeaf 	bhi.w	80045b6 <__aeabi_dmul+0xde>
 8004858:	ebb5 0c03 	subs.w	ip, r5, r3
 800485c:	bf04      	itt	eq
 800485e:	ebb6 0c02 	subseq.w	ip, r6, r2
 8004862:	ea5f 0c50 	movseq.w	ip, r0, lsr #1
 8004866:	f150 0000 	adcs.w	r0, r0, #0
 800486a:	eb41 5104 	adc.w	r1, r1, r4, lsl #20
 800486e:	bd70      	pop	{r4, r5, r6, pc}
 8004870:	f00e 4e00 	and.w	lr, lr, #2147483648	@ 0x80000000
 8004874:	ea4e 3111 	orr.w	r1, lr, r1, lsr #12
 8004878:	eb14 045c 	adds.w	r4, r4, ip, lsr #1
 800487c:	bfc2      	ittt	gt
 800487e:	ebd4 050c 	rsbsgt	r5, r4, ip
 8004882:	ea41 5104 	orrgt.w	r1, r1, r4, lsl #20
 8004886:	bd70      	popgt	{r4, r5, r6, pc}
 8004888:	f441 1180 	orr.w	r1, r1, #1048576	@ 0x100000
 800488c:	f04f 0e00 	mov.w	lr, #0
 8004890:	3c01      	subs	r4, #1
 8004892:	e690      	b.n	80045b6 <__aeabi_dmul+0xde>
 8004894:	ea45 0e06 	orr.w	lr, r5, r6
 8004898:	e68d      	b.n	80045b6 <__aeabi_dmul+0xde>
 800489a:	ea0c 5513 	and.w	r5, ip, r3, lsr #20
 800489e:	ea94 0f0c 	teq	r4, ip
 80048a2:	bf08      	it	eq
 80048a4:	ea95 0f0c 	teqeq	r5, ip
 80048a8:	f43f af3b 	beq.w	8004722 <__aeabi_dmul+0x24a>
 80048ac:	ea94 0f0c 	teq	r4, ip
 80048b0:	d10a      	bne.n	80048c8 <__aeabi_ddiv+0x19c>
 80048b2:	ea50 3401 	orrs.w	r4, r0, r1, lsl #12
 80048b6:	f47f af34 	bne.w	8004722 <__aeabi_dmul+0x24a>
 80048ba:	ea95 0f0c 	teq	r5, ip
 80048be:	f47f af25 	bne.w	800470c <__aeabi_dmul+0x234>
 80048c2:	4610      	mov	r0, r2
 80048c4:	4619      	mov	r1, r3
 80048c6:	e72c      	b.n	8004722 <__aeabi_dmul+0x24a>
 80048c8:	ea95 0f0c 	teq	r5, ip
 80048cc:	d106      	bne.n	80048dc <__aeabi_ddiv+0x1b0>
 80048ce:	ea52 3503 	orrs.w	r5, r2, r3, lsl #12
 80048d2:	f43f aefd 	beq.w	80046d0 <__aeabi_dmul+0x1f8>
 80048d6:	4610      	mov	r0, r2
 80048d8:	4619      	mov	r1, r3
 80048da:	e722      	b.n	8004722 <__aeabi_dmul+0x24a>
 80048dc:	ea50 0641 	orrs.w	r6, r0, r1, lsl #1
 80048e0:	bf18      	it	ne
 80048e2:	ea52 0643 	orrsne.w	r6, r2, r3, lsl #1
 80048e6:	f47f aec5 	bne.w	8004674 <__aeabi_dmul+0x19c>
 80048ea:	ea50 0441 	orrs.w	r4, r0, r1, lsl #1
 80048ee:	f47f af0d 	bne.w	800470c <__aeabi_dmul+0x234>
 80048f2:	ea52 0543 	orrs.w	r5, r2, r3, lsl #1
 80048f6:	f47f aeeb 	bne.w	80046d0 <__aeabi_dmul+0x1f8>
 80048fa:	e712      	b.n	8004722 <__aeabi_dmul+0x24a>

080048fc <__aeabi_d2uiz>:
 80048fc:	004a      	lsls	r2, r1, #1
 80048fe:	d211      	bcs.n	8004924 <__aeabi_d2uiz+0x28>
 8004900:	f512 1200 	adds.w	r2, r2, #2097152	@ 0x200000
 8004904:	d211      	bcs.n	800492a <__aeabi_d2uiz+0x2e>
 8004906:	d50d      	bpl.n	8004924 <__aeabi_d2uiz+0x28>
 8004908:	f46f 7378 	mvn.w	r3, #992	@ 0x3e0
 800490c:	ebb3 5262 	subs.w	r2, r3, r2, asr #21
 8004910:	d40e      	bmi.n	8004930 <__aeabi_d2uiz+0x34>
 8004912:	ea4f 23c1 	mov.w	r3, r1, lsl #11
 8004916:	f043 4300 	orr.w	r3, r3, #2147483648	@ 0x80000000
 800491a:	ea43 5350 	orr.w	r3, r3, r0, lsr #21
 800491e:	fa23 f002 	lsr.w	r0, r3, r2
 8004922:	4770      	bx	lr
 8004924:	f04f 0000 	mov.w	r0, #0
 8004928:	4770      	bx	lr
 800492a:	ea50 3001 	orrs.w	r0, r0, r1, lsl #12
 800492e:	d102      	bne.n	8004936 <__aeabi_d2uiz+0x3a>
 8004930:	f04f 30ff 	mov.w	r0, #4294967295	@ 0xffffffff
 8004934:	4770      	bx	lr
 8004936:	f04f 0000 	mov.w	r0, #0
 800493a:	4770      	bx	lr

0800493c <__aeabi_frsub>:
 800493c:	f080 4000 	eor.w	r0, r0, #2147483648	@ 0x80000000
 8004940:	e002      	b.n	8004948 <__addsf3>
 8004942:	bf00      	nop

08004944 <__aeabi_fsub>:
 8004944:	f081 4100 	eor.w	r1, r1, #2147483648	@ 0x80000000

08004948 <__addsf3>:
 8004948:	0042      	lsls	r2, r0, #1
 800494a:	bf1f      	itttt	ne
 800494c:	ea5f 0341 	movsne.w	r3, r1, lsl #1
 8004950:	ea92 0f03 	teqne	r2, r3
 8004954:	ea7f 6c22 	mvnsne.w	ip, r2, asr #24
 8004958:	ea7f 6c23 	mvnsne.w	ip, r3, asr #24
 800495c:	d06a      	beq.n	8004a34 <__addsf3+0xec>
 800495e:	ea4f 6212 	mov.w	r2, r2, lsr #24
 8004962:	ebd2 6313 	rsbs	r3, r2, r3, lsr #24
 8004966:	bfc1      	itttt	gt
 8004968:	18d2      	addgt	r2, r2, r3
 800496a:	4041      	eorgt	r1, r0
 800496c:	4048      	eorgt	r0, r1
 800496e:	4041      	eorgt	r1, r0
 8004970:	bfb8      	it	lt
 8004972:	425b      	neglt	r3, r3
 8004974:	2b19      	cmp	r3, #25
 8004976:	bf88      	it	hi
 8004978:	4770      	bxhi	lr
 800497a:	f010 4f00 	tst.w	r0, #2147483648	@ 0x80000000
 800497e:	f440 0000 	orr.w	r0, r0, #8388608	@ 0x800000
 8004982:	f020 407f 	bic.w	r0, r0, #4278190080	@ 0xff000000
 8004986:	bf18      	it	ne
 8004988:	4240      	negne	r0, r0
 800498a:	f011 4f00 	tst.w	r1, #2147483648	@ 0x80000000
 800498e:	f441 0100 	orr.w	r1, r1, #8388608	@ 0x800000
 8004992:	f021 417f 	bic.w	r1, r1, #4278190080	@ 0xff000000
 8004996:	bf18      	it	ne
 8004998:	4249      	negne	r1, r1
 800499a:	ea92 0f03 	teq	r2, r3
 800499e:	d03f      	beq.n	8004a20 <__addsf3+0xd8>
 80049a0:	f1a2 0201 	sub.w	r2, r2, #1
 80049a4:	fa41 fc03 	asr.w	ip, r1, r3
 80049a8:	eb10 000c 	adds.w	r0, r0, ip
 80049ac:	f1c3 0320 	rsb	r3, r3, #32
 80049b0:	fa01 f103 	lsl.w	r1, r1, r3
 80049b4:	f000 4300 	and.w	r3, r0, #2147483648	@ 0x80000000
 80049b8:	d502      	bpl.n	80049c0 <__addsf3+0x78>
 80049ba:	4249      	negs	r1, r1
 80049bc:	eb60 0040 	sbc.w	r0, r0, r0, lsl #1
 80049c0:	f5b0 0f00 	cmp.w	r0, #8388608	@ 0x800000
 80049c4:	d313      	bcc.n	80049ee <__addsf3+0xa6>
 80049c6:	f1b0 7f80 	cmp.w	r0, #16777216	@ 0x1000000
 80049ca:	d306      	bcc.n	80049da <__addsf3+0x92>
 80049cc:	0840      	lsrs	r0, r0, #1
 80049ce:	ea4f 0131 	mov.w	r1, r1, rrx
 80049d2:	f102 0201 	add.w	r2, r2, #1
 80049d6:	2afe      	cmp	r2, #254	@ 0xfe
 80049d8:	d251      	bcs.n	8004a7e <__addsf3+0x136>
 80049da:	f1b1 4f00 	cmp.w	r1, #2147483648	@ 0x80000000
 80049de:	eb40 50c2 	adc.w	r0, r0, r2, lsl #23
 80049e2:	bf08      	it	eq
 80049e4:	f020 0001 	biceq.w	r0, r0, #1
 80049e8:	ea40 0003 	orr.w	r0, r0, r3
 80049ec:	4770      	bx	lr
 80049ee:	0049      	lsls	r1, r1, #1
 80049f0:	eb40 0000 	adc.w	r0, r0, r0
 80049f4:	3a01      	subs	r2, #1
 80049f6:	bf28      	it	cs
 80049f8:	f5b0 0f00 	cmpcs.w	r0, #8388608	@ 0x800000
 80049fc:	d2ed      	bcs.n	80049da <__addsf3+0x92>
 80049fe:	fab0 fc80 	clz	ip, r0
 8004a02:	f1ac 0c08 	sub.w	ip, ip, #8
 8004a06:	ebb2 020c 	subs.w	r2, r2, ip
 8004a0a:	fa00 f00c 	lsl.w	r0, r0, ip
 8004a0e:	bfaa      	itet	ge
 8004a10:	eb00 50c2 	addge.w	r0, r0, r2, lsl #23
 8004a14:	4252      	neglt	r2, r2
 8004a16:	4318      	orrge	r0, r3
 8004a18:	bfbc      	itt	lt
 8004a1a:	40d0      	lsrlt	r0, r2
 8004a1c:	4318      	orrlt	r0, r3
 8004a1e:	4770      	bx	lr
 8004a20:	f092 0f00 	teq	r2, #0
 8004a24:	f481 0100 	eor.w	r1, r1, #8388608	@ 0x800000
 8004a28:	bf06      	itte	eq
 8004a2a:	f480 0000 	eoreq.w	r0, r0, #8388608	@ 0x800000
 8004a2e:	3201      	addeq	r2, #1
 8004a30:	3b01      	subne	r3, #1
 8004a32:	e7b5      	b.n	80049a0 <__addsf3+0x58>
 8004a34:	ea4f 0341 	mov.w	r3, r1, lsl #1
 8004a38:	ea7f 6c22 	mvns.w	ip, r2, asr #24
 8004a3c:	bf18      	it	ne
 8004a3e:	ea7f 6c23 	mvnsne.w	ip, r3, asr #24
 8004a42:	d021      	beq.n	8004a88 <__addsf3+0x140>
 8004a44:	ea92 0f03 	teq	r2, r3
 8004a48:	d004      	beq.n	8004a54 <__addsf3+0x10c>
 8004a4a:	f092 0f00 	teq	r2, #0
 8004a4e:	bf08      	it	eq
 8004a50:	4608      	moveq	r0, r1
 8004a52:	4770      	bx	lr
 8004a54:	ea90 0f01 	teq	r0, r1
 8004a58:	bf1c      	itt	ne
 8004a5a:	2000      	movne	r0, #0
 8004a5c:	4770      	bxne	lr
 8004a5e:	f012 4f7f 	tst.w	r2, #4278190080	@ 0xff000000
 8004a62:	d104      	bne.n	8004a6e <__addsf3+0x126>
 8004a64:	0040      	lsls	r0, r0, #1
 8004a66:	bf28      	it	cs
 8004a68:	f040 4000 	orrcs.w	r0, r0, #2147483648	@ 0x80000000
 8004a6c:	4770      	bx	lr
 8004a6e:	f112 7200 	adds.w	r2, r2, #33554432	@ 0x2000000
 8004a72:	bf3c      	itt	cc
 8004a74:	f500 0000 	addcc.w	r0, r0, #8388608	@ 0x800000
 8004a78:	4770      	bxcc	lr
 8004a7a:	f000 4300 	and.w	r3, r0, #2147483648	@ 0x80000000
 8004a7e:	f043 40fe 	orr.w	r0, r3, #2130706432	@ 0x7f000000
 8004a82:	f440 0000 	orr.w	r0, r0, #8388608	@ 0x800000
 8004a86:	4770      	bx	lr
 8004a88:	ea7f 6222 	mvns.w	r2, r2, asr #24
 8004a8c:	bf16      	itet	ne
 8004a8e:	4608      	movne	r0, r1
 8004a90:	ea7f 6323 	mvnseq.w	r3, r3, asr #24
 8004a94:	4601      	movne	r1, r0
 8004a96:	0242      	lsls	r2, r0, #9
 8004a98:	bf06      	itte	eq
 8004a9a:	ea5f 2341 	movseq.w	r3, r1, lsl #9
 8004a9e:	ea90 0f01 	teqeq	r0, r1
 8004aa2:	f440 0080 	orrne.w	r0, r0, #4194304	@ 0x400000
 8004aa6:	4770      	bx	lr

08004aa8 <__aeabi_ui2f>:
 8004aa8:	f04f 0300 	mov.w	r3, #0
 8004aac:	e004      	b.n	8004ab8 <__aeabi_i2f+0x8>
 8004aae:	bf00      	nop

08004ab0 <__aeabi_i2f>:
 8004ab0:	f010 4300 	ands.w	r3, r0, #2147483648	@ 0x80000000
 8004ab4:	bf48      	it	mi
 8004ab6:	4240      	negmi	r0, r0
 8004ab8:	ea5f 0c00 	movs.w	ip, r0
 8004abc:	bf08      	it	eq
 8004abe:	4770      	bxeq	lr
 8004ac0:	f043 4396 	orr.w	r3, r3, #1258291200	@ 0x4b000000
 8004ac4:	4601      	mov	r1, r0
 8004ac6:	f04f 0000 	mov.w	r0, #0
 8004aca:	e01c      	b.n	8004b06 <__aeabi_l2f+0x2a>

08004acc <__aeabi_ul2f>:
 8004acc:	ea50 0201 	orrs.w	r2, r0, r1
 8004ad0:	bf08      	it	eq
 8004ad2:	4770      	bxeq	lr
 8004ad4:	f04f 0300 	mov.w	r3, #0
 8004ad8:	e00a      	b.n	8004af0 <__aeabi_l2f+0x14>
 8004ada:	bf00      	nop

08004adc <__aeabi_l2f>:
 8004adc:	ea50 0201 	orrs.w	r2, r0, r1
 8004ae0:	bf08      	it	eq
 8004ae2:	4770      	bxeq	lr
 8004ae4:	f011 4300 	ands.w	r3, r1, #2147483648	@ 0x80000000
 8004ae8:	d502      	bpl.n	8004af0 <__aeabi_l2f+0x14>
 8004aea:	4240      	negs	r0, r0
 8004aec:	eb61 0141 	sbc.w	r1, r1, r1, lsl #1
 8004af0:	ea5f 0c01 	movs.w	ip, r1
 8004af4:	bf02      	ittt	eq
 8004af6:	4684      	moveq	ip, r0
 8004af8:	4601      	moveq	r1, r0
 8004afa:	2000      	moveq	r0, #0
 8004afc:	f043 43b6 	orr.w	r3, r3, #1526726656	@ 0x5b000000
 8004b00:	bf08      	it	eq
 8004b02:	f1a3 5380 	subeq.w	r3, r3, #268435456	@ 0x10000000
 8004b06:	f5a3 0300 	sub.w	r3, r3, #8388608	@ 0x800000
 8004b0a:	fabc f28c 	clz	r2, ip
 8004b0e:	3a08      	subs	r2, #8
 8004b10:	eba3 53c2 	sub.w	r3, r3, r2, lsl #23
 8004b14:	db10      	blt.n	8004b38 <__aeabi_l2f+0x5c>
 8004b16:	fa01 fc02 	lsl.w	ip, r1, r2
 8004b1a:	4463      	add	r3, ip
 8004b1c:	fa00 fc02 	lsl.w	ip, r0, r2
 8004b20:	f1c2 0220 	rsb	r2, r2, #32
 8004b24:	f1bc 4f00 	cmp.w	ip, #2147483648	@ 0x80000000
 8004b28:	fa20 f202 	lsr.w	r2, r0, r2
 8004b2c:	eb43 0002 	adc.w	r0, r3, r2
 8004b30:	bf08      	it	eq
 8004b32:	f020 0001 	biceq.w	r0, r0, #1
 8004b36:	4770      	bx	lr
 8004b38:	f102 0220 	add.w	r2, r2, #32
 8004b3c:	fa01 fc02 	lsl.w	ip, r1, r2
 8004b40:	f1c2 0220 	rsb	r2, r2, #32
 8004b44:	ea50 004c 	orrs.w	r0, r0, ip, lsl #1
 8004b48:	fa21 f202 	lsr.w	r2, r1, r2
 8004b4c:	eb43 0002 	adc.w	r0, r3, r2
 8004b50:	bf08      	it	eq
 8004b52:	ea20 70dc 	biceq.w	r0, r0, ip, lsr #31
 8004b56:	4770      	bx	lr

08004b58 <__aeabi_f2uiz>:
 8004b58:	0042      	lsls	r2, r0, #1
 8004b5a:	d20e      	bcs.n	8004b7a <__aeabi_f2uiz+0x22>
 8004b5c:	f1b2 4ffe 	cmp.w	r2, #2130706432	@ 0x7f000000
 8004b60:	d30b      	bcc.n	8004b7a <__aeabi_f2uiz+0x22>
 8004b62:	f04f 039e 	mov.w	r3, #158	@ 0x9e
 8004b66:	ebb3 6212 	subs.w	r2, r3, r2, lsr #24
 8004b6a:	d409      	bmi.n	8004b80 <__aeabi_f2uiz+0x28>
 8004b6c:	ea4f 2300 	mov.w	r3, r0, lsl #8
 8004b70:	f043 4300 	orr.w	r3, r3, #2147483648	@ 0x80000000
 8004b74:	fa23 f002 	lsr.w	r0, r3, r2
 8004b78:	4770      	bx	lr
 8004b7a:	f04f 0000 	mov.w	r0, #0
 8004b7e:	4770      	bx	lr
 8004b80:	f112 0f61 	cmn.w	r2, #97	@ 0x61
 8004b84:	d101      	bne.n	8004b8a <__aeabi_f2uiz+0x32>
 8004b86:	0242      	lsls	r2, r0, #9
 8004b88:	d102      	bne.n	8004b90 <__aeabi_f2uiz+0x38>
 8004b8a:	f04f 30ff 	mov.w	r0, #4294967295	@ 0xffffffff
 8004b8e:	4770      	bx	lr
 8004b90:	f04f 0000 	mov.w	r0, #0
 8004b94:	4770      	bx	lr
 8004b96:	bf00      	nop

08004b98 <__aeabi_fmul>:
 8004b98:	f04f 0cff 	mov.w	ip, #255	@ 0xff
 8004b9c:	ea1c 52d0 	ands.w	r2, ip, r0, lsr #23
 8004ba0:	bf1e      	ittt	ne
 8004ba2:	ea1c 53d1 	andsne.w	r3, ip, r1, lsr #23
 8004ba6:	ea92 0f0c 	teqne	r2, ip
 8004baa:	ea93 0f0c 	teqne	r3, ip
 8004bae:	d06f      	beq.n	8004c90 <__aeabi_fmul+0xf8>
 8004bb0:	441a      	add	r2, r3
 8004bb2:	ea80 0c01 	eor.w	ip, r0, r1
 8004bb6:	0240      	lsls	r0, r0, #9
 8004bb8:	bf18      	it	ne
 8004bba:	ea5f 2141 	movsne.w	r1, r1, lsl #9
 8004bbe:	d01e      	beq.n	8004bfe <__aeabi_fmul+0x66>
 8004bc0:	f04f 6300 	mov.w	r3, #134217728	@ 0x8000000
 8004bc4:	ea43 1050 	orr.w	r0, r3, r0, lsr #5
 8004bc8:	ea43 1151 	orr.w	r1, r3, r1, lsr #5
 8004bcc:	fba0 3101 	umull	r3, r1, r0, r1
 8004bd0:	f00c 4000 	and.w	r0, ip, #2147483648	@ 0x80000000
 8004bd4:	f5b1 0f00 	cmp.w	r1, #8388608	@ 0x800000
 8004bd8:	bf3e      	ittt	cc
 8004bda:	0049      	lslcc	r1, r1, #1
 8004bdc:	ea41 71d3 	orrcc.w	r1, r1, r3, lsr #31
 8004be0:	005b      	lslcc	r3, r3, #1
 8004be2:	ea40 0001 	orr.w	r0, r0, r1
 8004be6:	f162 027f 	sbc.w	r2, r2, #127	@ 0x7f
 8004bea:	2afd      	cmp	r2, #253	@ 0xfd
 8004bec:	d81d      	bhi.n	8004c2a <__aeabi_fmul+0x92>
 8004bee:	f1b3 4f00 	cmp.w	r3, #2147483648	@ 0x80000000
 8004bf2:	eb40 50c2 	adc.w	r0, r0, r2, lsl #23
 8004bf6:	bf08      	it	eq
 8004bf8:	f020 0001 	biceq.w	r0, r0, #1
 8004bfc:	4770      	bx	lr
 8004bfe:	f090 0f00 	teq	r0, #0
 8004c02:	f00c 4c00 	and.w	ip, ip, #2147483648	@ 0x80000000
 8004c06:	bf08      	it	eq
 8004c08:	0249      	lsleq	r1, r1, #9
 8004c0a:	ea4c 2050 	orr.w	r0, ip, r0, lsr #9
 8004c0e:	ea40 2051 	orr.w	r0, r0, r1, lsr #9
 8004c12:	3a7f      	subs	r2, #127	@ 0x7f
 8004c14:	bfc2      	ittt	gt
 8004c16:	f1d2 03ff 	rsbsgt	r3, r2, #255	@ 0xff
 8004c1a:	ea40 50c2 	orrgt.w	r0, r0, r2, lsl #23
 8004c1e:	4770      	bxgt	lr
 8004c20:	f440 0000 	orr.w	r0, r0, #8388608	@ 0x800000
 8004c24:	f04f 0300 	mov.w	r3, #0
 8004c28:	3a01      	subs	r2, #1
 8004c2a:	dc5d      	bgt.n	8004ce8 <__aeabi_fmul+0x150>
 8004c2c:	f112 0f19 	cmn.w	r2, #25
 8004c30:	bfdc      	itt	le
 8004c32:	f000 4000 	andle.w	r0, r0, #2147483648	@ 0x80000000
 8004c36:	4770      	bxle	lr
 8004c38:	f1c2 0200 	rsb	r2, r2, #0
 8004c3c:	0041      	lsls	r1, r0, #1
 8004c3e:	fa21 f102 	lsr.w	r1, r1, r2
 8004c42:	f1c2 0220 	rsb	r2, r2, #32
 8004c46:	fa00 fc02 	lsl.w	ip, r0, r2
 8004c4a:	ea5f 0031 	movs.w	r0, r1, rrx
 8004c4e:	f140 0000 	adc.w	r0, r0, #0
 8004c52:	ea53 034c 	orrs.w	r3, r3, ip, lsl #1
 8004c56:	bf08      	it	eq
 8004c58:	ea20 70dc 	biceq.w	r0, r0, ip, lsr #31
 8004c5c:	4770      	bx	lr
 8004c5e:	f092 0f00 	teq	r2, #0
 8004c62:	f000 4c00 	and.w	ip, r0, #2147483648	@ 0x80000000
 8004c66:	bf02      	ittt	eq
 8004c68:	0040      	lsleq	r0, r0, #1
 8004c6a:	f410 0f00 	tsteq.w	r0, #8388608	@ 0x800000
 8004c6e:	3a01      	subeq	r2, #1
 8004c70:	d0f9      	beq.n	8004c66 <__aeabi_fmul+0xce>
 8004c72:	ea40 000c 	orr.w	r0, r0, ip
 8004c76:	f093 0f00 	teq	r3, #0
 8004c7a:	f001 4c00 	and.w	ip, r1, #2147483648	@ 0x80000000
 8004c7e:	bf02      	ittt	eq
 8004c80:	0049      	lsleq	r1, r1, #1
 8004c82:	f411 0f00 	tsteq.w	r1, #8388608	@ 0x800000
 8004c86:	3b01      	subeq	r3, #1
 8004c88:	d0f9      	beq.n	8004c7e <__aeabi_fmul+0xe6>
 8004c8a:	ea41 010c 	orr.w	r1, r1, ip
 8004c8e:	e78f      	b.n	8004bb0 <__aeabi_fmul+0x18>
 8004c90:	ea0c 53d1 	and.w	r3, ip, r1, lsr #23
 8004c94:	ea92 0f0c 	teq	r2, ip
 8004c98:	bf18      	it	ne
 8004c9a:	ea93 0f0c 	teqne	r3, ip
 8004c9e:	d00a      	beq.n	8004cb6 <__aeabi_fmul+0x11e>
 8004ca0:	f030 4c00 	bics.w	ip, r0, #2147483648	@ 0x80000000
 8004ca4:	bf18      	it	ne
 8004ca6:	f031 4c00 	bicsne.w	ip, r1, #2147483648	@ 0x80000000
 8004caa:	d1d8      	bne.n	8004c5e <__aeabi_fmul+0xc6>
 8004cac:	ea80 0001 	eor.w	r0, r0, r1
 8004cb0:	f000 4000 	and.w	r0, r0, #2147483648	@ 0x80000000
 8004cb4:	4770      	bx	lr
 8004cb6:	f090 0f00 	teq	r0, #0
 8004cba:	bf17      	itett	ne
 8004cbc:	f090 4f00 	teqne	r0, #2147483648	@ 0x80000000
 8004cc0:	4608      	moveq	r0, r1
 8004cc2:	f091 0f00 	teqne	r1, #0
 8004cc6:	f091 4f00 	teqne	r1, #2147483648	@ 0x80000000
 8004cca:	d014      	beq.n	8004cf6 <__aeabi_fmul+0x15e>
 8004ccc:	ea92 0f0c 	teq	r2, ip
 8004cd0:	d101      	bne.n	8004cd6 <__aeabi_fmul+0x13e>
 8004cd2:	0242      	lsls	r2, r0, #9
 8004cd4:	d10f      	bne.n	8004cf6 <__aeabi_fmul+0x15e>
 8004cd6:	ea93 0f0c 	teq	r3, ip
 8004cda:	d103      	bne.n	8004ce4 <__aeabi_fmul+0x14c>
 8004cdc:	024b      	lsls	r3, r1, #9
 8004cde:	bf18      	it	ne
 8004ce0:	4608      	movne	r0, r1
 8004ce2:	d108      	bne.n	8004cf6 <__aeabi_fmul+0x15e>
 8004ce4:	ea80 0001 	eor.w	r0, r0, r1
 8004ce8:	f000 4000 	and.w	r0, r0, #2147483648	@ 0x80000000
 8004cec:	f040 40fe 	orr.w	r0, r0, #2130706432	@ 0x7f000000
 8004cf0:	f440 0000 	orr.w	r0, r0, #8388608	@ 0x800000
 8004cf4:	4770      	bx	lr
 8004cf6:	f040 40fe 	orr.w	r0, r0, #2130706432	@ 0x7f000000
 8004cfa:	f440 0040 	orr.w	r0, r0, #12582912	@ 0xc00000
 8004cfe:	4770      	bx	lr

08004d00 <__aeabi_fdiv>:
 8004d00:	f04f 0cff 	mov.w	ip, #255	@ 0xff
 8004d04:	ea1c 52d0 	ands.w	r2, ip, r0, lsr #23
 8004d08:	bf1e      	ittt	ne
 8004d0a:	ea1c 53d1 	andsne.w	r3, ip, r1, lsr #23
 8004d0e:	ea92 0f0c 	teqne	r2, ip
 8004d12:	ea93 0f0c 	teqne	r3, ip
 8004d16:	d069      	beq.n	8004dec <__aeabi_fdiv+0xec>
 8004d18:	eba2 0203 	sub.w	r2, r2, r3
 8004d1c:	ea80 0c01 	eor.w	ip, r0, r1
 8004d20:	0249      	lsls	r1, r1, #9
 8004d22:	ea4f 2040 	mov.w	r0, r0, lsl #9
 8004d26:	d037      	beq.n	8004d98 <__aeabi_fdiv+0x98>
 8004d28:	f04f 5380 	mov.w	r3, #268435456	@ 0x10000000
 8004d2c:	ea43 1111 	orr.w	r1, r3, r1, lsr #4
 8004d30:	ea43 1310 	orr.w	r3, r3, r0, lsr #4
 8004d34:	f00c 4000 	and.w	r0, ip, #2147483648	@ 0x80000000
 8004d38:	428b      	cmp	r3, r1
 8004d3a:	bf38      	it	cc
 8004d3c:	005b      	lslcc	r3, r3, #1
 8004d3e:	f142 027d 	adc.w	r2, r2, #125	@ 0x7d
 8004d42:	f44f 0c00 	mov.w	ip, #8388608	@ 0x800000
 8004d46:	428b      	cmp	r3, r1
 8004d48:	bf24      	itt	cs
 8004d4a:	1a5b      	subcs	r3, r3, r1
 8004d4c:	ea40 000c 	orrcs.w	r0, r0, ip
 8004d50:	ebb3 0f51 	cmp.w	r3, r1, lsr #1
 8004d54:	bf24      	itt	cs
 8004d56:	eba3 0351 	subcs.w	r3, r3, r1, lsr #1
 8004d5a:	ea40 005c 	orrcs.w	r0, r0, ip, lsr #1
 8004d5e:	ebb3 0f91 	cmp.w	r3, r1, lsr #2
 8004d62:	bf24      	itt	cs
 8004d64:	eba3 0391 	subcs.w	r3, r3, r1, lsr #2
 8004d68:	ea40 009c 	orrcs.w	r0, r0, ip, lsr #2
 8004d6c:	ebb3 0fd1 	cmp.w	r3, r1, lsr #3
 8004d70:	bf24      	itt	cs
 8004d72:	eba3 03d1 	subcs.w	r3, r3, r1, lsr #3
 8004d76:	ea40 00dc 	orrcs.w	r0, r0, ip, lsr #3
 8004d7a:	011b      	lsls	r3, r3, #4
 8004d7c:	bf18      	it	ne
 8004d7e:	ea5f 1c1c 	movsne.w	ip, ip, lsr #4
 8004d82:	d1e0      	bne.n	8004d46 <__aeabi_fdiv+0x46>
 8004d84:	2afd      	cmp	r2, #253	@ 0xfd
 8004d86:	f63f af50 	bhi.w	8004c2a <__aeabi_fmul+0x92>
 8004d8a:	428b      	cmp	r3, r1
 8004d8c:	eb40 50c2 	adc.w	r0, r0, r2, lsl #23
 8004d90:	bf08      	it	eq
 8004d92:	f020 0001 	biceq.w	r0, r0, #1
 8004d96:	4770      	bx	lr
 8004d98:	f00c 4c00 	and.w	ip, ip, #2147483648	@ 0x80000000
 8004d9c:	ea4c 2050 	orr.w	r0, ip, r0, lsr #9
 8004da0:	327f      	adds	r2, #127	@ 0x7f
 8004da2:	bfc2      	ittt	gt
 8004da4:	f1d2 03ff 	rsbsgt	r3, r2, #255	@ 0xff
 8004da8:	ea40 50c2 	orrgt.w	r0, r0, r2, lsl #23
 8004dac:	4770      	bxgt	lr
 8004dae:	f440 0000 	orr.w	r0, r0, #8388608	@ 0x800000
 8004db2:	f04f 0300 	mov.w	r3, #0
 8004db6:	3a01      	subs	r2, #1
 8004db8:	e737      	b.n	8004c2a <__aeabi_fmul+0x92>
 8004dba:	f092 0f00 	teq	r2, #0
 8004dbe:	f000 4c00 	and.w	ip, r0, #2147483648	@ 0x80000000
 8004dc2:	bf02      	ittt	eq
 8004dc4:	0040      	lsleq	r0, r0, #1
 8004dc6:	f410 0f00 	tsteq.w	r0, #8388608	@ 0x800000
 8004dca:	3a01      	subeq	r2, #1
 8004dcc:	d0f9      	beq.n	8004dc2 <__aeabi_fdiv+0xc2>
 8004dce:	ea40 000c 	orr.w	r0, r0, ip
 8004dd2:	f093 0f00 	teq	r3, #0
 8004dd6:	f001 4c00 	and.w	ip, r1, #2147483648	@ 0x80000000
 8004dda:	bf02      	ittt	eq
 8004ddc:	0049      	lsleq	r1, r1, #1
 8004dde:	f411 0f00 	tsteq.w	r1, #8388608	@ 0x800000
 8004de2:	3b01      	subeq	r3, #1
 8004de4:	d0f9      	beq.n	8004dda <__aeabi_fdiv+0xda>
 8004de6:	ea41 010c 	orr.w	r1, r1, ip
 8004dea:	e795      	b.n	8004d18 <__aeabi_fdiv+0x18>
 8004dec:	ea0c 53d1 	and.w	r3, ip, r1, lsr #23
 8004df0:	ea92 0f0c 	teq	r2, ip
 8004df4:	d108      	bne.n	8004e08 <__aeabi_fdiv+0x108>
 8004df6:	0242      	lsls	r2, r0, #9
 8004df8:	f47f af7d 	bne.w	8004cf6 <__aeabi_fmul+0x15e>
 8004dfc:	ea93 0f0c 	teq	r3, ip
 8004e00:	f47f af70 	bne.w	8004ce4 <__aeabi_fmul+0x14c>
 8004e04:	4608      	mov	r0, r1
 8004e06:	e776      	b.n	8004cf6 <__aeabi_fmul+0x15e>
 8004e08:	ea93 0f0c 	teq	r3, ip
 8004e0c:	d104      	bne.n	8004e18 <__aeabi_fdiv+0x118>
 8004e0e:	024b      	lsls	r3, r1, #9
 8004e10:	f43f af4c 	beq.w	8004cac <__aeabi_fmul+0x114>
 8004e14:	4608      	mov	r0, r1
 8004e16:	e76e      	b.n	8004cf6 <__aeabi_fmul+0x15e>
 8004e18:	f030 4c00 	bics.w	ip, r0, #2147483648	@ 0x80000000
 8004e1c:	bf18      	it	ne
 8004e1e:	f031 4c00 	bicsne.w	ip, r1, #2147483648	@ 0x80000000
 8004e22:	d1ca      	bne.n	8004dba <__aeabi_fdiv+0xba>
 8004e24:	f030 4200 	bics.w	r2, r0, #2147483648	@ 0x80000000
 8004e28:	f47f af5c 	bne.w	8004ce4 <__aeabi_fmul+0x14c>
 8004e2c:	f031 4300 	bics.w	r3, r1, #2147483648	@ 0x80000000
 8004e30:	f47f af3c 	bne.w	8004cac <__aeabi_fmul+0x114>
 8004e34:	e75f      	b.n	8004cf6 <__aeabi_fmul+0x15e>
 8004e36:	bf00      	nop

08004e38 <__gesf2>:
 8004e38:	f04f 3cff 	mov.w	ip, #4294967295	@ 0xffffffff
 8004e3c:	e006      	b.n	8004e4c <__cmpsf2+0x4>
 8004e3e:	bf00      	nop

08004e40 <__lesf2>:
 8004e40:	f04f 0c01 	mov.w	ip, #1
 8004e44:	e002      	b.n	8004e4c <__cmpsf2+0x4>
 8004e46:	bf00      	nop

08004e48 <__cmpsf2>:
 8004e48:	f04f 0c01 	mov.w	ip, #1
 8004e4c:	f84d cd04 	str.w	ip, [sp, #-4]!
 8004e50:	ea4f 0240 	mov.w	r2, r0, lsl #1
 8004e54:	ea4f 0341 	mov.w	r3, r1, lsl #1
 8004e58:	ea7f 6c22 	mvns.w	ip, r2, asr #24
 8004e5c:	bf18      	it	ne
 8004e5e:	ea7f 6c23 	mvnsne.w	ip, r3, asr #24
 8004e62:	d011      	beq.n	8004e88 <__cmpsf2+0x40>
 8004e64:	b001      	add	sp, #4
 8004e66:	ea52 0c53 	orrs.w	ip, r2, r3, lsr #1
 8004e6a:	bf18      	it	ne
 8004e6c:	ea90 0f01 	teqne	r0, r1
 8004e70:	bf58      	it	pl
 8004e72:	ebb2 0003 	subspl.w	r0, r2, r3
 8004e76:	bf88      	it	hi
 8004e78:	17c8      	asrhi	r0, r1, #31
 8004e7a:	bf38      	it	cc
 8004e7c:	ea6f 70e1 	mvncc.w	r0, r1, asr #31
 8004e80:	bf18      	it	ne
 8004e82:	f040 0001 	orrne.w	r0, r0, #1
 8004e86:	4770      	bx	lr
 8004e88:	ea7f 6c22 	mvns.w	ip, r2, asr #24
 8004e8c:	d102      	bne.n	8004e94 <__cmpsf2+0x4c>
 8004e8e:	ea5f 2c40 	movs.w	ip, r0, lsl #9
 8004e92:	d105      	bne.n	8004ea0 <__cmpsf2+0x58>
 8004e94:	ea7f 6c23 	mvns.w	ip, r3, asr #24
 8004e98:	d1e4      	bne.n	8004e64 <__cmpsf2+0x1c>
 8004e9a:	ea5f 2c41 	movs.w	ip, r1, lsl #9
 8004e9e:	d0e1      	beq.n	8004e64 <__cmpsf2+0x1c>
 8004ea0:	f85d 0b04 	ldr.w	r0, [sp], #4
 8004ea4:	4770      	bx	lr
 8004ea6:	bf00      	nop

08004ea8 <__aeabi_cfrcmple>:
 8004ea8:	4684      	mov	ip, r0
 8004eaa:	4608      	mov	r0, r1
 8004eac:	4661      	mov	r1, ip
 8004eae:	e7ff      	b.n	8004eb0 <__aeabi_cfcmpeq>

08004eb0 <__aeabi_cfcmpeq>:
 8004eb0:	b50f      	push	{r0, r1, r2, r3, lr}
 8004eb2:	f7ff ffc9 	bl	8004e48 <__cmpsf2>
 8004eb6:	2800      	cmp	r0, #0
 8004eb8:	bf48      	it	mi
 8004eba:	f110 0f00 	cmnmi.w	r0, #0
 8004ebe:	bd0f      	pop	{r0, r1, r2, r3, pc}

08004ec0 <__aeabi_fcmpeq>:
 8004ec0:	f84d ed08 	str.w	lr, [sp, #-8]!
 8004ec4:	f7ff fff4 	bl	8004eb0 <__aeabi_cfcmpeq>
 8004ec8:	bf0c      	ite	eq
 8004eca:	2001      	moveq	r0, #1
 8004ecc:	2000      	movne	r0, #0
 8004ece:	f85d fb08 	ldr.w	pc, [sp], #8
 8004ed2:	bf00      	nop

08004ed4 <__aeabi_fcmplt>:
 8004ed4:	f84d ed08 	str.w	lr, [sp, #-8]!
 8004ed8:	f7ff ffea 	bl	8004eb0 <__aeabi_cfcmpeq>
 8004edc:	bf34      	ite	cc
 8004ede:	2001      	movcc	r0, #1
 8004ee0:	2000      	movcs	r0, #0
 8004ee2:	f85d fb08 	ldr.w	pc, [sp], #8
 8004ee6:	bf00      	nop

08004ee8 <__aeabi_fcmple>:
 8004ee8:	f84d ed08 	str.w	lr, [sp, #-8]!
 8004eec:	f7ff ffe0 	bl	8004eb0 <__aeabi_cfcmpeq>
 8004ef0:	bf94      	ite	ls
 8004ef2:	2001      	movls	r0, #1
 8004ef4:	2000      	movhi	r0, #0
 8004ef6:	f85d fb08 	ldr.w	pc, [sp], #8
 8004efa:	bf00      	nop

08004efc <__aeabi_fcmpge>:
 8004efc:	f84d ed08 	str.w	lr, [sp, #-8]!
 8004f00:	f7ff ffd2 	bl	8004ea8 <__aeabi_cfrcmple>
 8004f04:	bf94      	ite	ls
 8004f06:	2001      	movls	r0, #1
 8004f08:	2000      	movhi	r0, #0
 8004f0a:	f85d fb08 	ldr.w	pc, [sp], #8
 8004f0e:	bf00      	nop

08004f10 <__aeabi_fcmpgt>:
 8004f10:	f84d ed08 	str.w	lr, [sp, #-8]!
 8004f14:	f7ff ffc8 	bl	8004ea8 <__aeabi_cfrcmple>
 8004f18:	bf34      	ite	cc
 8004f1a:	2001      	movcc	r0, #1
 8004f1c:	2000      	movcs	r0, #0
 8004f1e:	f85d fb08 	ldr.w	pc, [sp], #8
 8004f22:	bf00      	nop

08004f24 <__aeabi_fcmpun>:
 8004f24:	ea4f 0240 	mov.w	r2, r0, lsl #1
 8004f28:	ea4f 0341 	mov.w	r3, r1, lsl #1
 8004f2c:	ea7f 6c22 	mvns.w	ip, r2, asr #24
 8004f30:	d102      	bne.n	8004f38 <__aeabi_fcmpun+0x14>
 8004f32:	ea5f 2c40 	movs.w	ip, r0, lsl #9
 8004f36:	d108      	bne.n	8004f4a <__aeabi_fcmpun+0x26>
 8004f38:	ea7f 6c23 	mvns.w	ip, r3, asr #24
 8004f3c:	d102      	bne.n	8004f44 <__aeabi_fcmpun+0x20>
 8004f3e:	ea5f 2c41 	movs.w	ip, r1, lsl #9
 8004f42:	d102      	bne.n	8004f4a <__aeabi_fcmpun+0x26>
 8004f44:	f04f 0000 	mov.w	r0, #0
 8004f48:	4770      	bx	lr
 8004f4a:	f04f 0001 	mov.w	r0, #1
 8004f4e:	4770      	bx	lr

08004f50 <__aeabi_ldivmod>:
 8004f50:	b97b      	cbnz	r3, 8004f72 <__aeabi_ldivmod+0x22>
 8004f52:	b972      	cbnz	r2, 8004f72 <__aeabi_ldivmod+0x22>
 8004f54:	2900      	cmp	r1, #0
 8004f56:	bfbe      	ittt	lt
 8004f58:	2000      	movlt	r0, #0
 8004f5a:	f04f 4100 	movlt.w	r1, #2147483648	@ 0x80000000
 8004f5e:	e006      	blt.n	8004f6e <__aeabi_ldivmod+0x1e>
 8004f60:	bf08      	it	eq
 8004f62:	2800      	cmpeq	r0, #0
 8004f64:	bf1c      	itt	ne
 8004f66:	f06f 4100 	mvnne.w	r1, #2147483648	@ 0x80000000
 8004f6a:	f04f 30ff 	movne.w	r0, #4294967295	@ 0xffffffff
 8004f6e:	f002 b935 	b.w	80071dc <__aeabi_idiv0>
 8004f72:	f1ad 0c08 	sub.w	ip, sp, #8
 8004f76:	e96d ce04 	strd	ip, lr, [sp, #-16]!
 8004f7a:	2900      	cmp	r1, #0
 8004f7c:	db09      	blt.n	8004f92 <__aeabi_ldivmod+0x42>
 8004f7e:	2b00      	cmp	r3, #0
 8004f80:	db1a      	blt.n	8004fb8 <__aeabi_ldivmod+0x68>
 8004f82:	f001 ffb1 	bl	8006ee8 <__udivmoddi4>
 8004f86:	f8dd e004 	ldr.w	lr, [sp, #4]
 8004f8a:	e9dd 2302 	ldrd	r2, r3, [sp, #8]
 8004f8e:	b004      	add	sp, #16
 8004f90:	4770      	bx	lr
 8004f92:	4240      	negs	r0, r0
 8004f94:	eb61 0141 	sbc.w	r1, r1, r1, lsl #1
 8004f98:	2b00      	cmp	r3, #0
 8004f9a:	db1b      	blt.n	8004fd4 <__aeabi_ldivmod+0x84>
 8004f9c:	f001 ffa4 	bl	8006ee8 <__udivmoddi4>
 8004fa0:	f8dd e004 	ldr.w	lr, [sp, #4]
 8004fa4:	e9dd 2302 	ldrd	r2, r3, [sp, #8]
 8004fa8:	b004      	add	sp, #16
 8004faa:	4240      	negs	r0, r0
 8004fac:	eb61 0141 	sbc.w	r1, r1, r1, lsl #1
 8004fb0:	4252      	negs	r2, r2
 8004fb2:	eb63 0343 	sbc.w	r3, r3, r3, lsl #1
 8004fb6:	4770      	bx	lr
 8004fb8:	4252      	negs	r2, r2
 8004fba:	eb63 0343 	sbc.w	r3, r3, r3, lsl #1
 8004fbe:	f001 ff93 	bl	8006ee8 <__udivmoddi4>
 8004fc2:	f8dd e004 	ldr.w	lr, [sp, #4]
 8004fc6:	e9dd 2302 	ldrd	r2, r3, [sp, #8]
 8004fca:	b004      	add	sp, #16
 8004fcc:	4240      	negs	r0, r0
 8004fce:	eb61 0141 	sbc.w	r1, r1, r1, lsl #1
 8004fd2:	4770      	bx	lr
 8004fd4:	4252      	negs	r2, r2
 8004fd6:	eb63 0343 	sbc.w	r3, r3, r3, lsl #1
 8004fda:	f001 ff85 	bl	8006ee8 <__udivmoddi4>
 8004fde:	f8dd e004 	ldr.w	lr, [sp, #4]
 8004fe2:	e9dd 2302 	ldrd	r2, r3, [sp, #8]
 8004fe6:	b004      	add	sp, #16
 8004fe8:	4252      	negs	r2, r2
 8004fea:	eb63 0343 	sbc.w	r3, r3, r3, lsl #1
 8004fee:	4770      	bx	lr

08004ff0 <__aeabi_f2lz>:
 8004ff0:	b510      	push	{r4, lr}
 8004ff2:	2100      	movs	r1, #0
 8004ff4:	4604      	mov	r4, r0
 8004ff6:	f7ff ff6d 	bl	8004ed4 <__aeabi_fcmplt>
 8004ffa:	b920      	cbnz	r0, 8005006 <__aeabi_f2lz+0x16>
 8004ffc:	4620      	mov	r0, r4
 8004ffe:	e8bd 4010 	ldmia.w	sp!, {r4, lr}
 8005002:	f000 b809 	b.w	8005018 <__aeabi_f2ulz>
 8005006:	f104 4000 	add.w	r0, r4, #2147483648	@ 0x80000000
 800500a:	f000 f805 	bl	8005018 <__aeabi_f2ulz>
 800500e:	4240      	negs	r0, r0
 8005010:	eb61 0141 	sbc.w	r1, r1, r1, lsl #1
 8005014:	bd10      	pop	{r4, pc}
 8005016:	bf00      	nop

08005018 <__aeabi_f2ulz>:
 8005018:	b5d0      	push	{r4, r6, r7, lr}
 800501a:	f7ff fa05 	bl	8004428 <__aeabi_f2d>
 800501e:	2200      	movs	r2, #0
 8005020:	4b0b      	ldr	r3, [pc, #44]	@ (8005050 <__aeabi_f2ulz+0x38>)
 8005022:	4606      	mov	r6, r0
 8005024:	460f      	mov	r7, r1
 8005026:	f7ff fa57 	bl	80044d8 <__aeabi_dmul>
 800502a:	f7ff fc67 	bl	80048fc <__aeabi_d2uiz>
 800502e:	4604      	mov	r4, r0
 8005030:	f7ff f9d8 	bl	80043e4 <__aeabi_ui2d>
 8005034:	2200      	movs	r2, #0
 8005036:	4b07      	ldr	r3, [pc, #28]	@ (8005054 <__aeabi_f2ulz+0x3c>)
 8005038:	f7ff fa4e 	bl	80044d8 <__aeabi_dmul>
 800503c:	4602      	mov	r2, r0
 800503e:	460b      	mov	r3, r1
 8005040:	4630      	mov	r0, r6
 8005042:	4639      	mov	r1, r7
 8005044:	f7ff f890 	bl	8004168 <__aeabi_dsub>
 8005048:	f7ff fc58 	bl	80048fc <__aeabi_d2uiz>
 800504c:	4621      	mov	r1, r4
 800504e:	bdd0      	pop	{r4, r6, r7, pc}
 8005050:	3df00000 	.word	0x3df00000
 8005054:	41f00000 	.word	0x41f00000

08005058 <emutls_alloc>:
 8005058:	b570      	push	{r4, r5, r6, lr}
 800505a:	e9d0 6500 	ldrd	r6, r5, [r0]
 800505e:	2d04      	cmp	r5, #4
 8005060:	4604      	mov	r4, r0
 8005062:	d80f      	bhi.n	8005084 <emutls_alloc+0x2c>
 8005064:	1d30      	adds	r0, r6, #4
 8005066:	f000 f8db 	bl	8005220 <__malloc_malloc>
 800506a:	4603      	mov	r3, r0
 800506c:	b1f8      	cbz	r0, 80050ae <emutls_alloc+0x56>
 800506e:	68e1      	ldr	r1, [r4, #12]
 8005070:	3304      	adds	r3, #4
 8005072:	6000      	str	r0, [r0, #0]
 8005074:	4632      	mov	r2, r6
 8005076:	4618      	mov	r0, r3
 8005078:	b1a1      	cbz	r1, 80050a4 <emutls_alloc+0x4c>
 800507a:	f000 f82f 	bl	80050dc <memcpy>
 800507e:	4603      	mov	r3, r0
 8005080:	4618      	mov	r0, r3
 8005082:	bd70      	pop	{r4, r5, r6, pc}
 8005084:	19a8      	adds	r0, r5, r6
 8005086:	3003      	adds	r0, #3
 8005088:	f000 f8ca 	bl	8005220 <__malloc_malloc>
 800508c:	b178      	cbz	r0, 80050ae <emutls_alloc+0x56>
 800508e:	1ceb      	adds	r3, r5, #3
 8005090:	4403      	add	r3, r0
 8005092:	426d      	negs	r5, r5
 8005094:	402b      	ands	r3, r5
 8005096:	f843 0c04 	str.w	r0, [r3, #-4]
 800509a:	68e1      	ldr	r1, [r4, #12]
 800509c:	4632      	mov	r2, r6
 800509e:	4618      	mov	r0, r3
 80050a0:	2900      	cmp	r1, #0
 80050a2:	d1ea      	bne.n	800507a <emutls_alloc+0x22>
 80050a4:	f000 f828 	bl	80050f8 <memset>
 80050a8:	4603      	mov	r3, r0
 80050aa:	4618      	mov	r0, r3
 80050ac:	bd70      	pop	{r4, r5, r6, pc}
 80050ae:	f7fb f893 	bl	80001d8 <abort>
 80050b2:	bf00      	nop

080050b4 <__emutls_get_address>:
 80050b4:	6883      	ldr	r3, [r0, #8]
 80050b6:	b10b      	cbz	r3, 80050bc <__emutls_get_address+0x8>
 80050b8:	4618      	mov	r0, r3
 80050ba:	4770      	bx	lr
 80050bc:	b510      	push	{r4, lr}
 80050be:	4604      	mov	r4, r0
 80050c0:	f7ff ffca 	bl	8005058 <emutls_alloc>
 80050c4:	60a0      	str	r0, [r4, #8]
 80050c6:	bd10      	pop	{r4, pc}

080050c8 <strcmp>:
 80050c8:	f810 2b01 	ldrb.w	r2, [r0], #1
 80050cc:	f811 3b01 	ldrb.w	r3, [r1], #1
 80050d0:	2a01      	cmp	r2, #1
 80050d2:	bf28      	it	cs
 80050d4:	429a      	cmpcs	r2, r3
 80050d6:	d0f7      	beq.n	80050c8 <strcmp>
 80050d8:	1ad0      	subs	r0, r2, r3
 80050da:	4770      	bx	lr

080050dc <memcpy>:
 80050dc:	440a      	add	r2, r1
 80050de:	4291      	cmp	r1, r2
 80050e0:	f100 33ff 	add.w	r3, r0, #4294967295	@ 0xffffffff
 80050e4:	d100      	bne.n	80050e8 <memcpy+0xc>
 80050e6:	4770      	bx	lr
 80050e8:	b510      	push	{r4, lr}
 80050ea:	f811 4b01 	ldrb.w	r4, [r1], #1
 80050ee:	4291      	cmp	r1, r2
 80050f0:	f803 4f01 	strb.w	r4, [r3, #1]!
 80050f4:	d1f9      	bne.n	80050ea <memcpy+0xe>
 80050f6:	bd10      	pop	{r4, pc}

080050f8 <memset>:
 80050f8:	4603      	mov	r3, r0
 80050fa:	4402      	add	r2, r0
 80050fc:	4293      	cmp	r3, r2
 80050fe:	d100      	bne.n	8005102 <memset+0xa>
 8005100:	4770      	bx	lr
 8005102:	f803 1b01 	strb.w	r1, [r3], #1
 8005106:	e7f9      	b.n	80050fc <memset+0x4>

08005108 <strlen>:
 8005108:	4603      	mov	r3, r0
 800510a:	f813 2b01 	ldrb.w	r2, [r3], #1
 800510e:	2a00      	cmp	r2, #0
 8005110:	d1fb      	bne.n	800510a <strlen+0x2>
 8005112:	1a18      	subs	r0, r3, r0
 8005114:	3801      	subs	r0, #1
 8005116:	4770      	bx	lr

08005118 <__malloc_free>:
 8005118:	b510      	push	{r4, lr}
 800511a:	4604      	mov	r4, r0
 800511c:	b388      	cbz	r0, 8005182 <__malloc_free+0x6a>
 800511e:	2300      	movs	r3, #0
 8005120:	6003      	str	r3, [r0, #0]
 8005122:	4818      	ldr	r0, [pc, #96]	@ (8005184 <__malloc_free+0x6c>)
 8005124:	f000 f926 	bl	8005374 <__retarget_lock_acquire_recursive>
 8005128:	4a17      	ldr	r2, [pc, #92]	@ (8005188 <__malloc_free+0x70>)
 800512a:	6813      	ldr	r3, [r2, #0]
 800512c:	b913      	cbnz	r3, 8005134 <__malloc_free+0x1c>
 800512e:	6023      	str	r3, [r4, #0]
 8005130:	6014      	str	r4, [r2, #0]
 8005132:	e016      	b.n	8005162 <__malloc_free+0x4a>
 8005134:	429c      	cmp	r4, r3
 8005136:	d808      	bhi.n	800514a <__malloc_free+0x32>
 8005138:	d1f9      	bne.n	800512e <__malloc_free+0x16>
 800513a:	220c      	movs	r2, #12
 800513c:	4b13      	ldr	r3, [pc, #76]	@ (800518c <__malloc_free+0x74>)
 800513e:	601a      	str	r2, [r3, #0]
 8005140:	4810      	ldr	r0, [pc, #64]	@ (8005184 <__malloc_free+0x6c>)
 8005142:	e8bd 4010 	ldmia.w	sp!, {r4, lr}
 8005146:	f000 b916 	b.w	8005376 <__retarget_lock_release_recursive>
 800514a:	e953 0101 	ldrd	r0, r1, [r3, #-4]
 800514e:	181a      	adds	r2, r3, r0
 8005150:	4294      	cmp	r4, r2
 8005152:	d113      	bne.n	800517c <__malloc_free+0x64>
 8005154:	f854 2c04 	ldr.w	r2, [r4, #-4]
 8005158:	461c      	mov	r4, r3
 800515a:	4402      	add	r2, r0
 800515c:	f843 2c04 	str.w	r2, [r3, #-4]
 8005160:	460b      	mov	r3, r1
 8005162:	f854 1c04 	ldr.w	r1, [r4, #-4]
 8005166:	1862      	adds	r2, r4, r1
 8005168:	4293      	cmp	r3, r2
 800516a:	d1e9      	bne.n	8005140 <__malloc_free+0x28>
 800516c:	f853 2c04 	ldr.w	r2, [r3, #-4]
 8005170:	681b      	ldr	r3, [r3, #0]
 8005172:	440a      	add	r2, r1
 8005174:	f844 2c04 	str.w	r2, [r4, #-4]
 8005178:	6023      	str	r3, [r4, #0]
 800517a:	e7e1      	b.n	8005140 <__malloc_free+0x28>
 800517c:	461a      	mov	r2, r3
 800517e:	460b      	mov	r3, r1
 8005180:	e7d4      	b.n	800512c <__malloc_free+0x14>
 8005182:	bd10      	pop	{r4, pc}
 8005184:	200001d4 	.word	0x200001d4
 8005188:	200001cc 	.word	0x200001cc
 800518c:	200001d0 	.word	0x200001d0

08005190 <__malloc_sbrk_aligned>:
 8005190:	b5f8      	push	{r3, r4, r5, r6, r7, lr}
 8005192:	1e04      	subs	r4, r0, #0
 8005194:	da03      	bge.n	800519e <__malloc_sbrk_aligned+0xe>
 8005196:	f04f 36ff 	mov.w	r6, #4294967295	@ 0xffffffff
 800519a:	4630      	mov	r0, r6
 800519c:	bdf8      	pop	{r3, r4, r5, r6, r7, pc}
 800519e:	f000 f96f 	bl	8005480 <sbrk>
 80051a2:	1c43      	adds	r3, r0, #1
 80051a4:	d0f7      	beq.n	8005196 <__malloc_sbrk_aligned+0x6>
 80051a6:	f100 060b 	add.w	r6, r0, #11
 80051aa:	f026 0607 	bic.w	r6, r6, #7
 80051ae:	4f09      	ldr	r7, [pc, #36]	@ (80051d4 <__malloc_sbrk_aligned+0x44>)
 80051b0:	3e04      	subs	r6, #4
 80051b2:	4404      	add	r4, r0
 80051b4:	42b0      	cmp	r0, r6
 80051b6:	603c      	str	r4, [r7, #0]
 80051b8:	d007      	beq.n	80051ca <__malloc_sbrk_aligned+0x3a>
 80051ba:	1a35      	subs	r5, r6, r0
 80051bc:	4628      	mov	r0, r5
 80051be:	f000 f95f 	bl	8005480 <sbrk>
 80051c2:	4284      	cmp	r4, r0
 80051c4:	d1e7      	bne.n	8005196 <__malloc_sbrk_aligned+0x6>
 80051c6:	442c      	add	r4, r5
 80051c8:	603c      	str	r4, [r7, #0]
 80051ca:	687b      	ldr	r3, [r7, #4]
 80051cc:	2b00      	cmp	r3, #0
 80051ce:	d1e4      	bne.n	800519a <__malloc_sbrk_aligned+0xa>
 80051d0:	607e      	str	r6, [r7, #4]
 80051d2:	e7e2      	b.n	800519a <__malloc_sbrk_aligned+0xa>
 80051d4:	200001c4 	.word	0x200001c4

080051d8 <__malloc_grow_chunk>:
 80051d8:	b570      	push	{r4, r5, r6, lr}
 80051da:	f850 4c04 	ldr.w	r4, [r0, #-4]
 80051de:	4605      	mov	r5, r0
 80051e0:	1f23      	subs	r3, r4, #4
 80051e2:	4403      	add	r3, r0
 80051e4:	480d      	ldr	r0, [pc, #52]	@ (800521c <__malloc_grow_chunk+0x44>)
 80051e6:	6806      	ldr	r6, [r0, #0]
 80051e8:	429e      	cmp	r6, r3
 80051ea:	d115      	bne.n	8005218 <__malloc_grow_chunk+0x40>
 80051ec:	1b0c      	subs	r4, r1, r4
 80051ee:	2c08      	cmp	r4, #8
 80051f0:	bf38      	it	cc
 80051f2:	2408      	movcc	r4, #8
 80051f4:	4620      	mov	r0, r4
 80051f6:	f7ff ffcb 	bl	8005190 <__malloc_sbrk_aligned>
 80051fa:	4286      	cmp	r6, r0
 80051fc:	d106      	bne.n	800520c <__malloc_grow_chunk+0x34>
 80051fe:	2001      	movs	r0, #1
 8005200:	f855 3c04 	ldr.w	r3, [r5, #-4]
 8005204:	4423      	add	r3, r4
 8005206:	f845 3c04 	str.w	r3, [r5, #-4]
 800520a:	bd70      	pop	{r4, r5, r6, pc}
 800520c:	1c43      	adds	r3, r0, #1
 800520e:	d003      	beq.n	8005218 <__malloc_grow_chunk+0x40>
 8005210:	f840 4b04 	str.w	r4, [r0], #4
 8005214:	f7ff ff80 	bl	8005118 <__malloc_free>
 8005218:	2000      	movs	r0, #0
 800521a:	e7f6      	b.n	800520a <__malloc_grow_chunk+0x32>
 800521c:	200001c4 	.word	0x200001c4

08005220 <__malloc_malloc>:
 8005220:	f110 0f15 	cmn.w	r0, #21
 8005224:	b5f8      	push	{r3, r4, r5, r6, r7, lr}
 8005226:	d905      	bls.n	8005234 <__malloc_malloc+0x14>
 8005228:	220c      	movs	r2, #12
 800522a:	4b22      	ldr	r3, [pc, #136]	@ (80052b4 <__malloc_malloc+0x94>)
 800522c:	601a      	str	r2, [r3, #0]
 800522e:	2400      	movs	r4, #0
 8005230:	4620      	mov	r0, r4
 8005232:	bdf8      	pop	{r3, r4, r5, r6, r7, pc}
 8005234:	3007      	adds	r0, #7
 8005236:	f020 0707 	bic.w	r7, r0, #7
 800523a:	481f      	ldr	r0, [pc, #124]	@ (80052b8 <__malloc_malloc+0x98>)
 800523c:	f000 f89a 	bl	8005374 <__retarget_lock_acquire_recursive>
 8005240:	4e1e      	ldr	r6, [pc, #120]	@ (80052bc <__malloc_malloc+0x9c>)
 8005242:	f107 0508 	add.w	r5, r7, #8
 8005246:	6834      	ldr	r4, [r6, #0]
 8005248:	b964      	cbnz	r4, 8005264 <__malloc_malloc+0x44>
 800524a:	4628      	mov	r0, r5
 800524c:	f7ff ffa0 	bl	8005190 <__malloc_sbrk_aligned>
 8005250:	1c43      	adds	r3, r0, #1
 8005252:	4604      	mov	r4, r0
 8005254:	d12a      	bne.n	80052ac <__malloc_malloc+0x8c>
 8005256:	220c      	movs	r2, #12
 8005258:	4b16      	ldr	r3, [pc, #88]	@ (80052b4 <__malloc_malloc+0x94>)
 800525a:	4817      	ldr	r0, [pc, #92]	@ (80052b8 <__malloc_malloc+0x98>)
 800525c:	601a      	str	r2, [r3, #0]
 800525e:	f000 f88a 	bl	8005376 <__retarget_lock_release_recursive>
 8005262:	e7e4      	b.n	800522e <__malloc_malloc+0xe>
 8005264:	e954 3201 	ldrd	r3, r2, [r4, #-4]
 8005268:	42ab      	cmp	r3, r5
 800526a:	d314      	bcc.n	8005296 <__malloc_malloc+0x76>
 800526c:	1b5b      	subs	r3, r3, r5
 800526e:	2b07      	cmp	r3, #7
 8005270:	bf85      	ittet	hi
 8005272:	1961      	addhi	r1, r4, r5
 8005274:	f841 3c04 	strhi.w	r3, [r1, #-4]
 8005278:	6032      	strls	r2, [r6, #0]
 800527a:	5162      	strhi	r2, [r4, r5]
 800527c:	bf84      	itt	hi
 800527e:	6031      	strhi	r1, [r6, #0]
 8005280:	f844 5c04 	strhi.w	r5, [r4, #-4]
 8005284:	480c      	ldr	r0, [pc, #48]	@ (80052b8 <__malloc_malloc+0x98>)
 8005286:	f000 f876 	bl	8005376 <__retarget_lock_release_recursive>
 800528a:	2100      	movs	r1, #0
 800528c:	4620      	mov	r0, r4
 800528e:	1d3a      	adds	r2, r7, #4
 8005290:	f7ff ff32 	bl	80050f8 <memset>
 8005294:	e7cc      	b.n	8005230 <__malloc_malloc+0x10>
 8005296:	b93a      	cbnz	r2, 80052a8 <__malloc_malloc+0x88>
 8005298:	4629      	mov	r1, r5
 800529a:	4620      	mov	r0, r4
 800529c:	f7ff ff9c 	bl	80051d8 <__malloc_grow_chunk>
 80052a0:	b110      	cbz	r0, 80052a8 <__malloc_malloc+0x88>
 80052a2:	6823      	ldr	r3, [r4, #0]
 80052a4:	6033      	str	r3, [r6, #0]
 80052a6:	e7ed      	b.n	8005284 <__malloc_malloc+0x64>
 80052a8:	4626      	mov	r6, r4
 80052aa:	e7cc      	b.n	8005246 <__malloc_malloc+0x26>
 80052ac:	f844 5b04 	str.w	r5, [r4], #4
 80052b0:	e7e8      	b.n	8005284 <__malloc_malloc+0x64>
 80052b2:	bf00      	nop
 80052b4:	200001d0 	.word	0x200001d0
 80052b8:	200001d4 	.word	0x200001d4
 80052bc:	200001cc 	.word	0x200001cc

080052c0 <aligned_alloc>:
 80052c0:	1e43      	subs	r3, r0, #1
 80052c2:	4203      	tst	r3, r0
 80052c4:	b570      	push	{r4, r5, r6, lr}
 80052c6:	4604      	mov	r4, r0
 80052c8:	d005      	beq.n	80052d6 <aligned_alloc+0x16>
 80052ca:	2216      	movs	r2, #22
 80052cc:	4b21      	ldr	r3, [pc, #132]	@ (8005354 <aligned_alloc+0x94>)
 80052ce:	601a      	str	r2, [r3, #0]
 80052d0:	2600      	movs	r6, #0
 80052d2:	4630      	mov	r0, r6
 80052d4:	bd70      	pop	{r4, r5, r6, pc}
 80052d6:	2808      	cmp	r0, #8
 80052d8:	bf38      	it	cc
 80052da:	2408      	movcc	r4, #8
 80052dc:	f06f 0314 	mvn.w	r3, #20
 80052e0:	1b1b      	subs	r3, r3, r4
 80052e2:	428b      	cmp	r3, r1
 80052e4:	d202      	bcs.n	80052ec <aligned_alloc+0x2c>
 80052e6:	220c      	movs	r2, #12
 80052e8:	4b1a      	ldr	r3, [pc, #104]	@ (8005354 <aligned_alloc+0x94>)
 80052ea:	e7f0      	b.n	80052ce <aligned_alloc+0xe>
 80052ec:	2901      	cmp	r1, #1
 80052ee:	bf38      	it	cc
 80052f0:	2101      	movcc	r1, #1
 80052f2:	1dcd      	adds	r5, r1, #7
 80052f4:	f025 0507 	bic.w	r5, r5, #7
 80052f8:	f104 0008 	add.w	r0, r4, #8
 80052fc:	4428      	add	r0, r5
 80052fe:	f7ff ff8f 	bl	8005220 <__malloc_malloc>
 8005302:	2800      	cmp	r0, #0
 8005304:	d0e4      	beq.n	80052d0 <aligned_alloc+0x10>
 8005306:	1e66      	subs	r6, r4, #1
 8005308:	4263      	negs	r3, r4
 800530a:	4406      	add	r6, r0
 800530c:	401e      	ands	r6, r3
 800530e:	1a33      	subs	r3, r6, r0
 8005310:	d00d      	beq.n	800532e <aligned_alloc+0x6e>
 8005312:	f850 2c04 	ldr.w	r2, [r0, #-4]
 8005316:	2b07      	cmp	r3, #7
 8005318:	bf9c      	itt	ls
 800531a:	191b      	addls	r3, r3, r4
 800531c:	1936      	addls	r6, r6, r4
 800531e:	1ad2      	subs	r2, r2, r3
 8005320:	f846 2c04 	str.w	r2, [r6, #-4]
 8005324:	f840 3c04 	str.w	r3, [r0, #-4]
 8005328:	f7ff fef6 	bl	8005118 <__malloc_free>
 800532c:	4630      	mov	r0, r6
 800532e:	f105 0308 	add.w	r3, r5, #8
 8005332:	2b08      	cmp	r3, #8
 8005334:	bf38      	it	cc
 8005336:	2308      	movcc	r3, #8
 8005338:	f850 2c04 	ldr.w	r2, [r0, #-4]
 800533c:	1ad2      	subs	r2, r2, r3
 800533e:	2a07      	cmp	r2, #7
 8005340:	d9c7      	bls.n	80052d2 <aligned_alloc+0x12>
 8005342:	f840 3c04 	str.w	r3, [r0, #-4]
 8005346:	4418      	add	r0, r3
 8005348:	f840 2c04 	str.w	r2, [r0, #-4]
 800534c:	f7ff fee4 	bl	8005118 <__malloc_free>
 8005350:	e7bf      	b.n	80052d2 <aligned_alloc+0x12>
 8005352:	bf00      	nop
 8005354:	200001d0 	.word	0x200001d0

08005358 <__libc_init_array>:
 8005358:	b538      	push	{r3, r4, r5, lr}
 800535a:	4c04      	ldr	r4, [pc, #16]	@ (800536c <__libc_init_array+0x14>)
 800535c:	4d04      	ldr	r5, [pc, #16]	@ (8005370 <__libc_init_array+0x18>)
 800535e:	42ac      	cmp	r4, r5
 8005360:	d100      	bne.n	8005364 <__libc_init_array+0xc>
 8005362:	bd38      	pop	{r3, r4, r5, pc}
 8005364:	f854 3b04 	ldr.w	r3, [r4], #4
 8005368:	4798      	blx	r3
 800536a:	e7f8      	b.n	800535e <__libc_init_array+0x6>
 800536c:	080071e0 	.word	0x080071e0
 8005370:	080071f0 	.word	0x080071f0

08005374 <__retarget_lock_acquire_recursive>:
 8005374:	4770      	bx	lr

08005376 <__retarget_lock_release_recursive>:
 8005376:	4770      	bx	lr

08005378 <__cxa_atexit>:
 8005378:	460a      	mov	r2, r1
 800537a:	4601      	mov	r1, r0
 800537c:	2003      	movs	r0, #3
 800537e:	f000 b833 	b.w	80053e8 <_on_exit>
	...

08005384 <__call_exitprocs>:
 8005384:	b5f8      	push	{r3, r4, r5, r6, r7, lr}
 8005386:	2700      	movs	r7, #0
 8005388:	4815      	ldr	r0, [pc, #84]	@ (80053e0 <__call_exitprocs+0x5c>)
 800538a:	f7ff fff3 	bl	8005374 <__retarget_lock_acquire_recursive>
 800538e:	4a15      	ldr	r2, [pc, #84]	@ (80053e4 <__call_exitprocs+0x60>)
 8005390:	231f      	movs	r3, #31
 8005392:	4611      	mov	r1, r2
 8005394:	f892 417c 	ldrb.w	r4, [r2, #380]	@ 0x17c
 8005398:	b184      	cbz	r4, 80053bc <__call_exitprocs+0x38>
 800539a:	220c      	movs	r2, #12
 800539c:	4353      	muls	r3, r2
 800539e:	18ca      	adds	r2, r1, r3
 80053a0:	58cd      	ldr	r5, [r1, r3]
 80053a2:	6856      	ldr	r6, [r2, #4]
 80053a4:	50cf      	str	r7, [r1, r3]
 80053a6:	e9c2 7701 	strd	r7, r7, [r2, #4]
 80053aa:	480d      	ldr	r0, [pc, #52]	@ (80053e0 <__call_exitprocs+0x5c>)
 80053ac:	f7ff ffe3 	bl	8005376 <__retarget_lock_release_recursive>
 80053b0:	2c03      	cmp	r4, #3
 80053b2:	d8e9      	bhi.n	8005388 <__call_exitprocs+0x4>
 80053b4:	e8df f004 	tbb	[pc, r4]
 80053b8:	100e0a13 	.word	0x100e0a13
 80053bc:	3b01      	subs	r3, #1
 80053be:	1c58      	adds	r0, r3, #1
 80053c0:	f1a2 020c 	sub.w	r2, r2, #12
 80053c4:	d1e6      	bne.n	8005394 <__call_exitprocs+0x10>
 80053c6:	4625      	mov	r5, r4
 80053c8:	4626      	mov	r6, r4
 80053ca:	e7ee      	b.n	80053aa <__call_exitprocs+0x26>
 80053cc:	4631      	mov	r1, r6
 80053ce:	2000      	movs	r0, #0
 80053d0:	47a8      	blx	r5
 80053d2:	e7d9      	b.n	8005388 <__call_exitprocs+0x4>
 80053d4:	47a8      	blx	r5
 80053d6:	e7d7      	b.n	8005388 <__call_exitprocs+0x4>
 80053d8:	4630      	mov	r0, r6
 80053da:	47a8      	blx	r5
 80053dc:	e7d4      	b.n	8005388 <__call_exitprocs+0x4>
 80053de:	bdf8      	pop	{r3, r4, r5, r6, r7, pc}
 80053e0:	200001d4 	.word	0x200001d4
 80053e4:	200001d8 	.word	0x200001d8

080053e8 <_on_exit>:
 80053e8:	e92d 41f0 	stmdb	sp!, {r4, r5, r6, r7, r8, lr}
 80053ec:	4d0f      	ldr	r5, [pc, #60]	@ (800542c <_on_exit+0x44>)
 80053ee:	4606      	mov	r6, r0
 80053f0:	480f      	ldr	r0, [pc, #60]	@ (8005430 <_on_exit+0x48>)
 80053f2:	4690      	mov	r8, r2
 80053f4:	460f      	mov	r7, r1
 80053f6:	f7ff ffbd 	bl	8005374 <__retarget_lock_acquire_recursive>
 80053fa:	2300      	movs	r3, #0
 80053fc:	462a      	mov	r2, r5
 80053fe:	7a2c      	ldrb	r4, [r5, #8]
 8005400:	b964      	cbnz	r4, 800541c <_on_exit+0x34>
 8005402:	210c      	movs	r1, #12
 8005404:	434b      	muls	r3, r1
 8005406:	18d1      	adds	r1, r2, r3
 8005408:	50d7      	str	r7, [r2, r3]
 800540a:	f8c1 8004 	str.w	r8, [r1, #4]
 800540e:	720e      	strb	r6, [r1, #8]
 8005410:	4807      	ldr	r0, [pc, #28]	@ (8005430 <_on_exit+0x48>)
 8005412:	f7ff ffb0 	bl	8005376 <__retarget_lock_release_recursive>
 8005416:	4620      	mov	r0, r4
 8005418:	e8bd 81f0 	ldmia.w	sp!, {r4, r5, r6, r7, r8, pc}
 800541c:	3301      	adds	r3, #1
 800541e:	2b20      	cmp	r3, #32
 8005420:	f105 050c 	add.w	r5, r5, #12
 8005424:	d1eb      	bne.n	80053fe <_on_exit+0x16>
 8005426:	f04f 34ff 	mov.w	r4, #4294967295	@ 0xffffffff
 800542a:	e7f1      	b.n	8005410 <_on_exit+0x28>
 800542c:	200001d8 	.word	0x200001d8
 8005430:	200001d4 	.word	0x200001d4

08005434 <__xpg_strerror_r>:
 8005434:	b5f7      	push	{r0, r1, r2, r4, r5, r6, r7, lr}
 8005436:	2700      	movs	r7, #0
 8005438:	460e      	mov	r6, r1
 800543a:	4614      	mov	r4, r2
 800543c:	9701      	str	r7, [sp, #4]
 800543e:	b17a      	cbz	r2, 8005460 <__xpg_strerror_r+0x2c>
 8005440:	2101      	movs	r1, #1
 8005442:	aa01      	add	r2, sp, #4
 8005444:	f001 fa4e 	bl	80068e4 <_strerror_r>
 8005448:	4605      	mov	r5, r0
 800544a:	f7ff fe5d 	bl	8005108 <strlen>
 800544e:	42a0      	cmp	r0, r4
 8005450:	d309      	bcc.n	8005466 <__xpg_strerror_r+0x32>
 8005452:	3c01      	subs	r4, #1
 8005454:	4622      	mov	r2, r4
 8005456:	4629      	mov	r1, r5
 8005458:	4630      	mov	r0, r6
 800545a:	f7ff fe3f 	bl	80050dc <memcpy>
 800545e:	5537      	strb	r7, [r6, r4]
 8005460:	2022      	movs	r0, #34	@ 0x22
 8005462:	b003      	add	sp, #12
 8005464:	bdf0      	pop	{r4, r5, r6, r7, pc}
 8005466:	4629      	mov	r1, r5
 8005468:	4630      	mov	r0, r6
 800546a:	f001 fa05 	bl	8006878 <strcpy>
 800546e:	9801      	ldr	r0, [sp, #4]
 8005470:	2800      	cmp	r0, #0
 8005472:	d1f6      	bne.n	8005462 <__xpg_strerror_r+0x2e>
 8005474:	782b      	ldrb	r3, [r5, #0]
 8005476:	2b00      	cmp	r3, #0
 8005478:	bf08      	it	eq
 800547a:	2016      	moveq	r0, #22
 800547c:	e7f1      	b.n	8005462 <__xpg_strerror_r+0x2e>
	...

08005480 <sbrk>:
 8005480:	4603      	mov	r3, r0
 8005482:	490b      	ldr	r1, [pc, #44]	@ (80054b0 <sbrk+0x30>)
 8005484:	2b00      	cmp	r3, #0
 8005486:	b510      	push	{r4, lr}
 8005488:	6808      	ldr	r0, [r1, #0]
 800548a:	da0a      	bge.n	80054a2 <sbrk+0x22>
 800548c:	4a09      	ldr	r2, [pc, #36]	@ (80054b4 <sbrk+0x34>)
 800548e:	425c      	negs	r4, r3
 8005490:	1a82      	subs	r2, r0, r2
 8005492:	42a2      	cmp	r2, r4
 8005494:	d209      	bcs.n	80054aa <sbrk+0x2a>
 8005496:	220c      	movs	r2, #12
 8005498:	f04f 30ff 	mov.w	r0, #4294967295	@ 0xffffffff
 800549c:	4b06      	ldr	r3, [pc, #24]	@ (80054b8 <sbrk+0x38>)
 800549e:	601a      	str	r2, [r3, #0]
 80054a0:	bd10      	pop	{r4, pc}
 80054a2:	4a06      	ldr	r2, [pc, #24]	@ (80054bc <sbrk+0x3c>)
 80054a4:	1a12      	subs	r2, r2, r0
 80054a6:	429a      	cmp	r2, r3
 80054a8:	e7f4      	b.n	8005494 <sbrk+0x14>
 80054aa:	4403      	add	r3, r0
 80054ac:	600b      	str	r3, [r1, #0]
 80054ae:	e7f7      	b.n	80054a0 <sbrk+0x20>
 80054b0:	200000a4 	.word	0x200000a4
 80054b4:	200003d8 	.word	0x200003d8
 80054b8:	200001d0 	.word	0x200001d0
 80054bc:	20002400 	.word	0x20002400

080054c0 <arm_halt_isr>:
 80054c0:	e7fe      	b.n	80054c0 <arm_halt_isr>

080054c2 <arm_ignore_isr>:
 80054c2:	4770      	bx	lr

080054c4 <__ultoa_invert>:
 80054c4:	e92d 43f8 	stmdb	sp!, {r3, r4, r5, r6, r7, r8, r9, lr}
 80054c8:	4607      	mov	r7, r0
 80054ca:	4688      	mov	r8, r1
 80054cc:	4616      	mov	r6, r2
 80054ce:	f1c3 0937 	rsb	r9, r3, #55	@ 0x37
 80054d2:	fa5f f989 	uxtb.w	r9, r9
 80054d6:	f003 051f 	and.w	r5, r3, #31
 80054da:	4638      	mov	r0, r7
 80054dc:	4641      	mov	r1, r8
 80054de:	462a      	mov	r2, r5
 80054e0:	2300      	movs	r3, #0
 80054e2:	f001 fce9 	bl	8006eb8 <__aeabi_uldivmod>
 80054e6:	b2d4      	uxtb	r4, r2
 80054e8:	463a      	mov	r2, r7
 80054ea:	2c09      	cmp	r4, #9
 80054ec:	bf88      	it	hi
 80054ee:	444c      	addhi	r4, r9
 80054f0:	4643      	mov	r3, r8
 80054f2:	bf88      	it	hi
 80054f4:	b2e4      	uxtbhi	r4, r4
 80054f6:	42aa      	cmp	r2, r5
 80054f8:	f04f 0200 	mov.w	r2, #0
 80054fc:	f104 0430 	add.w	r4, r4, #48	@ 0x30
 8005500:	4193      	sbcs	r3, r2
 8005502:	4607      	mov	r7, r0
 8005504:	4688      	mov	r8, r1
 8005506:	f806 4b01 	strb.w	r4, [r6], #1
 800550a:	d2e6      	bcs.n	80054da <__ultoa_invert+0x16>
 800550c:	4630      	mov	r0, r6
 800550e:	e8bd 83f8 	ldmia.w	sp!, {r3, r4, r5, r6, r7, r8, r9, pc}
	...

08005514 <skip_to_arg>:
 8005514:	e92d 41f0 	stmdb	sp!, {r4, r5, r6, r7, r8, lr}
 8005518:	2601      	movs	r6, #1
 800551a:	42b2      	cmp	r2, r6
 800551c:	dc01      	bgt.n	8005522 <skip_to_arg+0xe>
 800551e:	e8bd 81f0 	ldmia.w	sp!, {r4, r5, r6, r7, r8, pc}
 8005522:	4607      	mov	r7, r0
 8005524:	463b      	mov	r3, r7
 8005526:	461f      	mov	r7, r3
 8005528:	f813 4b01 	ldrb.w	r4, [r3], #1
 800552c:	2c00      	cmp	r4, #0
 800552e:	d0f6      	beq.n	800551e <skip_to_arg+0xa>
 8005530:	2c25      	cmp	r4, #37	@ 0x25
 8005532:	d1f8      	bne.n	8005526 <skip_to_arg+0x12>
 8005534:	781d      	ldrb	r5, [r3, #0]
 8005536:	3702      	adds	r7, #2
 8005538:	2d25      	cmp	r5, #37	@ 0x25
 800553a:	d0f3      	beq.n	8005524 <skip_to_arg+0x10>
 800553c:	2300      	movs	r3, #0
 800553e:	469c      	mov	ip, r3
 8005540:	461c      	mov	r4, r3
 8005542:	f8df 80e8 	ldr.w	r8, [pc, #232]	@ 800562c <skip_to_arg+0x118>
 8005546:	2c1f      	cmp	r4, #31
 8005548:	d827      	bhi.n	800559a <skip_to_arg+0x86>
 800554a:	f1a5 0e20 	sub.w	lr, r5, #32
 800554e:	f1be 0f10 	cmp.w	lr, #16
 8005552:	d806      	bhi.n	8005562 <skip_to_arg+0x4e>
 8005554:	fa28 fe0e 	lsr.w	lr, r8, lr
 8005558:	f01e 0f01 	tst.w	lr, #1
 800555c:	d153      	bne.n	8005606 <skip_to_arg+0xf2>
 800555e:	2d2e      	cmp	r5, #46	@ 0x2e
 8005560:	d03c      	beq.n	80055dc <skip_to_arg+0xc8>
 8005562:	2d2e      	cmp	r5, #46	@ 0x2e
 8005564:	d827      	bhi.n	80055b6 <skip_to_arg+0xa2>
 8005566:	2d24      	cmp	r5, #36	@ 0x24
 8005568:	d033      	beq.n	80055d2 <skip_to_arg+0xbe>
 800556a:	2d2a      	cmp	r5, #42	@ 0x2a
 800556c:	d036      	beq.n	80055dc <skip_to_arg+0xc8>
 800556e:	f1bc 0f00 	cmp.w	ip, #0
 8005572:	d0d4      	beq.n	800551e <skip_to_arg+0xa>
 8005574:	45b4      	cmp	ip, r6
 8005576:	d1d5      	bne.n	8005524 <skip_to_arg+0x10>
 8005578:	f045 0720 	orr.w	r7, r5, #32
 800557c:	f1a7 0c65 	sub.w	ip, r7, #101	@ 0x65
 8005580:	f1bc 0f02 	cmp.w	ip, #2
 8005584:	680b      	ldr	r3, [r1, #0]
 8005586:	d901      	bls.n	800558c <skip_to_arg+0x78>
 8005588:	2f61      	cmp	r7, #97	@ 0x61
 800558a:	d142      	bne.n	8005612 <skip_to_arg+0xfe>
 800558c:	3307      	adds	r3, #7
 800558e:	f023 0307 	bic.w	r3, r3, #7
 8005592:	3308      	adds	r3, #8
 8005594:	600b      	str	r3, [r1, #0]
 8005596:	3601      	adds	r6, #1
 8005598:	e7bf      	b.n	800551a <skip_to_arg+0x6>
 800559a:	2c7f      	cmp	r4, #127	@ 0x7f
 800559c:	d9df      	bls.n	800555e <skip_to_arg+0x4a>
 800559e:	2d6c      	cmp	r5, #108	@ 0x6c
 80055a0:	d023      	beq.n	80055ea <skip_to_arg+0xd6>
 80055a2:	d81d      	bhi.n	80055e0 <skip_to_arg+0xcc>
 80055a4:	2d68      	cmp	r5, #104	@ 0x68
 80055a6:	d027      	beq.n	80055f8 <skip_to_arg+0xe4>
 80055a8:	2d6a      	cmp	r5, #106	@ 0x6a
 80055aa:	d001      	beq.n	80055b0 <skip_to_arg+0x9c>
 80055ac:	2d4c      	cmp	r5, #76	@ 0x4c
 80055ae:	d1de      	bne.n	800556e <skip_to_arg+0x5a>
 80055b0:	f444 7420 	orr.w	r4, r4, #640	@ 0x280
 80055b4:	e008      	b.n	80055c8 <skip_to_arg+0xb4>
 80055b6:	f1a5 0e30 	sub.w	lr, r5, #48	@ 0x30
 80055ba:	f1be 0f09 	cmp.w	lr, #9
 80055be:	d8ee      	bhi.n	800559e <skip_to_arg+0x8a>
 80055c0:	240a      	movs	r4, #10
 80055c2:	fb04 e303 	mla	r3, r4, r3, lr
 80055c6:	2420      	movs	r4, #32
 80055c8:	f817 5b01 	ldrb.w	r5, [r7], #1
 80055cc:	2d00      	cmp	r5, #0
 80055ce:	d1ba      	bne.n	8005546 <skip_to_arg+0x32>
 80055d0:	e7cd      	b.n	800556e <skip_to_arg+0x5a>
 80055d2:	f1bc 0f00 	cmp.w	ip, #0
 80055d6:	d018      	beq.n	800560a <skip_to_arg+0xf6>
 80055d8:	42b3      	cmp	r3, r6
 80055da:	d018      	beq.n	800560e <skip_to_arg+0xfa>
 80055dc:	2300      	movs	r3, #0
 80055de:	e7f3      	b.n	80055c8 <skip_to_arg+0xb4>
 80055e0:	2d74      	cmp	r5, #116	@ 0x74
 80055e2:	d0f1      	beq.n	80055c8 <skip_to_arg+0xb4>
 80055e4:	2d7a      	cmp	r5, #122	@ 0x7a
 80055e6:	d0ef      	beq.n	80055c8 <skip_to_arg+0xb4>
 80055e8:	e7c1      	b.n	800556e <skip_to_arg+0x5a>
 80055ea:	0625      	lsls	r5, r4, #24
 80055ec:	bf48      	it	mi
 80055ee:	f444 7400 	orrmi.w	r4, r4, #512	@ 0x200
 80055f2:	f044 0480 	orr.w	r4, r4, #128	@ 0x80
 80055f6:	e7e7      	b.n	80055c8 <skip_to_arg+0xb4>
 80055f8:	05e5      	lsls	r5, r4, #23
 80055fa:	bf48      	it	mi
 80055fc:	f444 7400 	orrmi.w	r4, r4, #512	@ 0x200
 8005600:	f444 7480 	orr.w	r4, r4, #256	@ 0x100
 8005604:	e7e0      	b.n	80055c8 <skip_to_arg+0xb4>
 8005606:	2400      	movs	r4, #0
 8005608:	e7de      	b.n	80055c8 <skip_to_arg+0xb4>
 800560a:	469c      	mov	ip, r3
 800560c:	e7e6      	b.n	80055dc <skip_to_arg+0xc8>
 800560e:	2563      	movs	r5, #99	@ 0x63
 8005610:	e7b2      	b.n	8005578 <skip_to_arg+0x64>
 8005612:	2d69      	cmp	r5, #105	@ 0x69
 8005614:	d002      	beq.n	800561c <skip_to_arg+0x108>
 8005616:	d807      	bhi.n	8005628 <skip_to_arg+0x114>
 8005618:	2d63      	cmp	r5, #99	@ 0x63
 800561a:	d003      	beq.n	8005624 <skip_to_arg+0x110>
 800561c:	0625      	lsls	r5, r4, #24
 800561e:	d501      	bpl.n	8005624 <skip_to_arg+0x110>
 8005620:	05a4      	lsls	r4, r4, #22
 8005622:	d4b3      	bmi.n	800558c <skip_to_arg+0x78>
 8005624:	3304      	adds	r3, #4
 8005626:	e7b5      	b.n	8005594 <skip_to_arg+0x80>
 8005628:	2d73      	cmp	r5, #115	@ 0x73
 800562a:	e7f6      	b.n	800561a <skip_to_arg+0x106>
 800562c:	00012889 	.word	0x00012889

08005630 <__d_vfprintf>:
 8005630:	e92d 4ff0 	stmdb	sp!, {r4, r5, r6, r7, r8, r9, sl, fp, lr}
 8005634:	7883      	ldrb	r3, [r0, #2]
 8005636:	b093      	sub	sp, #76	@ 0x4c
 8005638:	079c      	lsls	r4, r3, #30
 800563a:	4680      	mov	r8, r0
 800563c:	e9cd 1208 	strd	r1, r2, [sp, #32]
 8005640:	f8d0 9004 	ldr.w	r9, [r0, #4]
 8005644:	d515      	bpl.n	8005672 <__d_vfprintf+0x42>
 8005646:	460b      	mov	r3, r1
 8005648:	2500      	movs	r5, #0
 800564a:	920b      	str	r2, [sp, #44]	@ 0x2c
 800564c:	7818      	ldrb	r0, [r3, #0]
 800564e:	b190      	cbz	r0, 8005676 <__d_vfprintf+0x46>
 8005650:	2825      	cmp	r0, #37	@ 0x25
 8005652:	d014      	beq.n	800567e <__d_vfprintf+0x4e>
 8005654:	3301      	adds	r3, #1
 8005656:	9306      	str	r3, [sp, #24]
 8005658:	4641      	mov	r1, r8
 800565a:	47c8      	blx	r9
 800565c:	2800      	cmp	r0, #0
 800565e:	f105 0501 	add.w	r5, r5, #1
 8005662:	f280 83f5 	bge.w	8005e50 <__d_vfprintf+0x820>
 8005666:	f898 3002 	ldrb.w	r3, [r8, #2]
 800566a:	f043 0304 	orr.w	r3, r3, #4
 800566e:	f888 3002 	strb.w	r3, [r8, #2]
 8005672:	f04f 35ff 	mov.w	r5, #4294967295	@ 0xffffffff
 8005676:	4628      	mov	r0, r5
 8005678:	b013      	add	sp, #76	@ 0x4c
 800567a:	e8bd 8ff0 	ldmia.w	sp!, {r4, r5, r6, r7, r8, r9, sl, fp, pc}
 800567e:	f893 a001 	ldrb.w	sl, [r3, #1]
 8005682:	1c9a      	adds	r2, r3, #2
 8005684:	f1ba 0f25 	cmp.w	sl, #37	@ 0x25
 8005688:	9206      	str	r2, [sp, #24]
 800568a:	d0e5      	beq.n	8005658 <__d_vfprintf+0x28>
 800568c:	f04f 0b00 	mov.w	fp, #0
 8005690:	465e      	mov	r6, fp
 8005692:	465f      	mov	r7, fp
 8005694:	465c      	mov	r4, fp
 8005696:	2c1f      	cmp	r4, #31
 8005698:	d823      	bhi.n	80056e2 <__d_vfprintf+0xb2>
 800569a:	f1aa 0320 	sub.w	r3, sl, #32
 800569e:	2b10      	cmp	r3, #16
 80056a0:	d822      	bhi.n	80056e8 <__d_vfprintf+0xb8>
 80056a2:	e8df f003 	tbb	[pc, r3]
 80056a6:	2115      	.short	0x2115
 80056a8:	21211b21 	.word	0x21211b21
 80056ac:	21210b21 	.word	0x21210b21
 80056b0:	18211321 	.word	0x18211321
 80056b4:	2121      	.short	0x2121
 80056b6:	09          	.byte	0x09
 80056b7:	00          	.byte	0x00
 80056b8:	f044 0401 	orr.w	r4, r4, #1
 80056bc:	9b06      	ldr	r3, [sp, #24]
 80056be:	f813 ab01 	ldrb.w	sl, [r3], #1
 80056c2:	9306      	str	r3, [sp, #24]
 80056c4:	f1ba 0f00 	cmp.w	sl, #0
 80056c8:	d1e5      	bne.n	8005696 <__d_vfprintf+0x66>
 80056ca:	e01b      	b.n	8005704 <__d_vfprintf+0xd4>
 80056cc:	f044 0402 	orr.w	r4, r4, #2
 80056d0:	f044 0404 	orr.w	r4, r4, #4
 80056d4:	e7f2      	b.n	80056bc <__d_vfprintf+0x8c>
 80056d6:	f044 0408 	orr.w	r4, r4, #8
 80056da:	e7ef      	b.n	80056bc <__d_vfprintf+0x8c>
 80056dc:	f044 0410 	orr.w	r4, r4, #16
 80056e0:	e7ec      	b.n	80056bc <__d_vfprintf+0x8c>
 80056e2:	2c7f      	cmp	r4, #127	@ 0x7f
 80056e4:	f200 80f5 	bhi.w	80058d2 <__d_vfprintf+0x2a2>
 80056e8:	f1ba 0f2e 	cmp.w	sl, #46	@ 0x2e
 80056ec:	f000 80d2 	beq.w	8005894 <__d_vfprintf+0x264>
 80056f0:	f200 80ac 	bhi.w	800584c <__d_vfprintf+0x21c>
 80056f4:	f1ba 0f24 	cmp.w	sl, #36	@ 0x24
 80056f8:	f000 80d2 	beq.w	80058a0 <__d_vfprintf+0x270>
 80056fc:	f1ba 0f2a 	cmp.w	sl, #42	@ 0x2a
 8005700:	f000 80b3 	beq.w	800586a <__d_vfprintf+0x23a>
 8005704:	f1bb 0f00 	cmp.w	fp, #0
 8005708:	d006      	beq.n	8005718 <__d_vfprintf+0xe8>
 800570a:	9b09      	ldr	r3, [sp, #36]	@ 0x24
 800570c:	465a      	mov	r2, fp
 800570e:	9808      	ldr	r0, [sp, #32]
 8005710:	a90b      	add	r1, sp, #44	@ 0x2c
 8005712:	930b      	str	r3, [sp, #44]	@ 0x2c
 8005714:	f7ff fefe 	bl	8005514 <skip_to_arg>
 8005718:	2e00      	cmp	r6, #0
 800571a:	f04a 0320 	orr.w	r3, sl, #32
 800571e:	bfb8      	it	lt
 8005720:	f024 0440 	biclt.w	r4, r4, #64	@ 0x40
 8005724:	9304      	str	r3, [sp, #16]
 8005726:	f1a3 0365 	sub.w	r3, r3, #101	@ 0x65
 800572a:	bfbc      	itt	lt
 800572c:	2600      	movlt	r6, #0
 800572e:	b2a4      	uxthlt	r4, r4
 8005730:	2b02      	cmp	r3, #2
 8005732:	d904      	bls.n	800573e <__d_vfprintf+0x10e>
 8005734:	f04a 0320 	orr.w	r3, sl, #32
 8005738:	2b61      	cmp	r3, #97	@ 0x61
 800573a:	f040 8289 	bne.w	8005c50 <__d_vfprintf+0x620>
 800573e:	ea6f 0a0a 	mvn.w	sl, sl
 8005742:	f00a 0320 	and.w	r3, sl, #32
 8005746:	9307      	str	r3, [sp, #28]
 8005748:	9b0b      	ldr	r3, [sp, #44]	@ 0x2c
 800574a:	3307      	adds	r3, #7
 800574c:	f023 0307 	bic.w	r3, r3, #7
 8005750:	f103 0208 	add.w	r2, r3, #8
 8005754:	920b      	str	r2, [sp, #44]	@ 0x2c
 8005756:	9a04      	ldr	r2, [sp, #16]
 8005758:	e9d3 0100 	ldrd	r0, r1, [r3]
 800575c:	2a61      	cmp	r2, #97	@ 0x61
 800575e:	f004 0340 	and.w	r3, r4, #64	@ 0x40
 8005762:	f040 80e3 	bne.w	800592c <__d_vfprintf+0x2fc>
 8005766:	2b00      	cmp	r3, #0
 8005768:	bf08      	it	eq
 800576a:	f04f 36ff 	moveq.w	r6, #4294967295	@ 0xffffffff
 800576e:	9b07      	ldr	r3, [sp, #28]
 8005770:	aa0c      	add	r2, sp, #48	@ 0x30
 8005772:	9300      	str	r3, [sp, #0]
 8005774:	4633      	mov	r3, r6
 8005776:	f001 fae7 	bl	8006d48 <__dtox_engine>
 800577a:	3001      	adds	r0, #1
 800577c:	b2c3      	uxtb	r3, r0
 800577e:	42b3      	cmp	r3, r6
 8005780:	f04f 0c01 	mov.w	ip, #1
 8005784:	9303      	str	r3, [sp, #12]
 8005786:	bfa8      	it	ge
 8005788:	f103 36ff 	addge.w	r6, r3, #4294967295	@ 0xffffffff
 800578c:	2370      	movs	r3, #112	@ 0x70
 800578e:	e9cd 3c04 	strd	r3, ip, [sp, #16]
 8005792:	f8dd a030 	ldr.w	sl, [sp, #48]	@ 0x30
 8005796:	f444 54c0 	orr.w	r4, r4, #6144	@ 0x1800
 800579a:	f10a 0309 	add.w	r3, sl, #9
 800579e:	2b12      	cmp	r3, #18
 80057a0:	d90d      	bls.n	80057be <__d_vfprintf+0x18e>
 80057a2:	f10a 0363 	add.w	r3, sl, #99	@ 0x63
 80057a6:	2bc6      	cmp	r3, #198	@ 0xc6
 80057a8:	f240 80f2 	bls.w	8005990 <__d_vfprintf+0x360>
 80057ac:	f240 72ce 	movw	r2, #1998	@ 0x7ce
 80057b0:	f20a 33e7 	addw	r3, sl, #999	@ 0x3e7
 80057b4:	4293      	cmp	r3, r2
 80057b6:	bf8c      	ite	hi
 80057b8:	2304      	movhi	r3, #4
 80057ba:	2303      	movls	r3, #3
 80057bc:	9305      	str	r3, [sp, #20]
 80057be:	f89d 3034 	ldrb.w	r3, [sp, #52]	@ 0x34
 80057c2:	07d8      	lsls	r0, r3, #31
 80057c4:	f100 80e6 	bmi.w	8005994 <__d_vfprintf+0x364>
 80057c8:	07a2      	lsls	r2, r4, #30
 80057ca:	f100 80e6 	bmi.w	800599a <__d_vfprintf+0x36a>
 80057ce:	f3c4 0b80 	ubfx	fp, r4, #2, #1
 80057d2:	ea4f 1b4b 	mov.w	fp, fp, lsl #5
 80057d6:	fa5f fb8b 	uxtb.w	fp, fp
 80057da:	f013 0f0c 	tst.w	r3, #12
 80057de:	f000 80e8 	beq.w	80059b2 <__d_vfprintf+0x382>
 80057e2:	f1bb 0f00 	cmp.w	fp, #0
 80057e6:	bf0c      	ite	eq
 80057e8:	2303      	moveq	r3, #3
 80057ea:	2304      	movne	r3, #4
 80057ec:	42bb      	cmp	r3, r7
 80057ee:	da0e      	bge.n	800580e <__d_vfprintf+0x1de>
 80057f0:	0720      	lsls	r0, r4, #28
 80057f2:	eba7 0703 	sub.w	r7, r7, r3
 80057f6:	d40b      	bmi.n	8005810 <__d_vfprintf+0x1e0>
 80057f8:	442f      	add	r7, r5
 80057fa:	4641      	mov	r1, r8
 80057fc:	2020      	movs	r0, #32
 80057fe:	47c8      	blx	r9
 8005800:	2800      	cmp	r0, #0
 8005802:	f105 0501 	add.w	r5, r5, #1
 8005806:	f6ff af2e 	blt.w	8005666 <__d_vfprintf+0x36>
 800580a:	42af      	cmp	r7, r5
 800580c:	d1f5      	bne.n	80057fa <__d_vfprintf+0x1ca>
 800580e:	2700      	movs	r7, #0
 8005810:	f1bb 0f00 	cmp.w	fp, #0
 8005814:	d007      	beq.n	8005826 <__d_vfprintf+0x1f6>
 8005816:	4641      	mov	r1, r8
 8005818:	4658      	mov	r0, fp
 800581a:	47c8      	blx	r9
 800581c:	2800      	cmp	r0, #0
 800581e:	f105 0501 	add.w	r5, r5, #1
 8005822:	f6ff af20 	blt.w	8005666 <__d_vfprintf+0x36>
 8005826:	f89d 3034 	ldrb.w	r3, [sp, #52]	@ 0x34
 800582a:	4cad      	ldr	r4, [pc, #692]	@ (8005ae0 <__d_vfprintf+0x4b0>)
 800582c:	f013 0f08 	tst.w	r3, #8
 8005830:	4bac      	ldr	r3, [pc, #688]	@ (8005ae4 <__d_vfprintf+0x4b4>)
 8005832:	bf08      	it	eq
 8005834:	461c      	moveq	r4, r3
 8005836:	4626      	mov	r6, r4
 8005838:	4632      	mov	r2, r6
 800583a:	f816 0b01 	ldrb.w	r0, [r6], #1
 800583e:	2800      	cmp	r0, #0
 8005840:	f040 80ae 	bne.w	80059a0 <__d_vfprintf+0x370>
 8005844:	1b2c      	subs	r4, r5, r4
 8005846:	eb02 0b04 	add.w	fp, r2, r4
 800584a:	e179      	b.n	8005b40 <__d_vfprintf+0x510>
 800584c:	f1aa 0330 	sub.w	r3, sl, #48	@ 0x30
 8005850:	2b09      	cmp	r3, #9
 8005852:	d83e      	bhi.n	80058d2 <__d_vfprintf+0x2a2>
 8005854:	220a      	movs	r2, #10
 8005856:	f014 0f40 	tst.w	r4, #64	@ 0x40
 800585a:	bf12      	itee	ne
 800585c:	fb02 3606 	mlane	r6, r2, r6, r3
 8005860:	fb02 3707 	mlaeq	r7, r2, r7, r3
 8005864:	f044 0420 	orreq.w	r4, r4, #32
 8005868:	e728      	b.n	80056bc <__d_vfprintf+0x8c>
 800586a:	f1bb 0f00 	cmp.w	fp, #0
 800586e:	f47f af25 	bne.w	80056bc <__d_vfprintf+0x8c>
 8005872:	9a0b      	ldr	r2, [sp, #44]	@ 0x2c
 8005874:	0660      	lsls	r0, r4, #25
 8005876:	f852 3b04 	ldr.w	r3, [r2], #4
 800587a:	920b      	str	r2, [sp, #44]	@ 0x2c
 800587c:	d501      	bpl.n	8005882 <__d_vfprintf+0x252>
 800587e:	461e      	mov	r6, r3
 8005880:	e71c      	b.n	80056bc <__d_vfprintf+0x8c>
 8005882:	2b00      	cmp	r3, #0
 8005884:	bfa7      	ittee	ge
 8005886:	461f      	movge	r7, r3
 8005888:	f044 0420 	orrge.w	r4, r4, #32
 800588c:	425f      	neglt	r7, r3
 800588e:	f044 0428 	orrlt.w	r4, r4, #40	@ 0x28
 8005892:	e713      	b.n	80056bc <__d_vfprintf+0x8c>
 8005894:	0663      	lsls	r3, r4, #25
 8005896:	f53f aeee 	bmi.w	8005676 <__d_vfprintf+0x46>
 800589a:	f044 0440 	orr.w	r4, r4, #64	@ 0x40
 800589e:	e70d      	b.n	80056bc <__d_vfprintf+0x8c>
 80058a0:	f1bb 0f00 	cmp.w	fp, #0
 80058a4:	d03d      	beq.n	8005922 <__d_vfprintf+0x2f2>
 80058a6:	9b09      	ldr	r3, [sp, #36]	@ 0x24
 80058a8:	f014 0a40 	ands.w	sl, r4, #64	@ 0x40
 80058ac:	bf0c      	ite	eq
 80058ae:	463a      	moveq	r2, r7
 80058b0:	4632      	movne	r2, r6
 80058b2:	9808      	ldr	r0, [sp, #32]
 80058b4:	a90b      	add	r1, sp, #44	@ 0x2c
 80058b6:	930b      	str	r3, [sp, #44]	@ 0x2c
 80058b8:	f7ff fe2c 	bl	8005514 <skip_to_arg>
 80058bc:	9b0b      	ldr	r3, [sp, #44]	@ 0x2c
 80058be:	f853 2b04 	ldr.w	r2, [r3], #4
 80058c2:	930b      	str	r3, [sp, #44]	@ 0x2c
 80058c4:	f1ba 0f00 	cmp.w	sl, #0
 80058c8:	d001      	beq.n	80058ce <__d_vfprintf+0x29e>
 80058ca:	4616      	mov	r6, r2
 80058cc:	e6f6      	b.n	80056bc <__d_vfprintf+0x8c>
 80058ce:	4617      	mov	r7, r2
 80058d0:	e6f4      	b.n	80056bc <__d_vfprintf+0x8c>
 80058d2:	f1ba 0f6c 	cmp.w	sl, #108	@ 0x6c
 80058d6:	d016      	beq.n	8005906 <__d_vfprintf+0x2d6>
 80058d8:	d80c      	bhi.n	80058f4 <__d_vfprintf+0x2c4>
 80058da:	f1ba 0f68 	cmp.w	sl, #104	@ 0x68
 80058de:	d019      	beq.n	8005914 <__d_vfprintf+0x2e4>
 80058e0:	f1ba 0f6a 	cmp.w	sl, #106	@ 0x6a
 80058e4:	d003      	beq.n	80058ee <__d_vfprintf+0x2be>
 80058e6:	f1ba 0f4c 	cmp.w	sl, #76	@ 0x4c
 80058ea:	f47f af0b 	bne.w	8005704 <__d_vfprintf+0xd4>
 80058ee:	f444 7420 	orr.w	r4, r4, #640	@ 0x280
 80058f2:	e6e3      	b.n	80056bc <__d_vfprintf+0x8c>
 80058f4:	f1ba 0f74 	cmp.w	sl, #116	@ 0x74
 80058f8:	f43f aee0 	beq.w	80056bc <__d_vfprintf+0x8c>
 80058fc:	f1ba 0f7a 	cmp.w	sl, #122	@ 0x7a
 8005900:	f43f aedc 	beq.w	80056bc <__d_vfprintf+0x8c>
 8005904:	e6fe      	b.n	8005704 <__d_vfprintf+0xd4>
 8005906:	0620      	lsls	r0, r4, #24
 8005908:	bf48      	it	mi
 800590a:	f444 7400 	orrmi.w	r4, r4, #512	@ 0x200
 800590e:	f044 0480 	orr.w	r4, r4, #128	@ 0x80
 8005912:	e6d3      	b.n	80056bc <__d_vfprintf+0x8c>
 8005914:	05e3      	lsls	r3, r4, #23
 8005916:	bf48      	it	mi
 8005918:	f444 7400 	orrmi.w	r4, r4, #512	@ 0x200
 800591c:	f444 7480 	orr.w	r4, r4, #256	@ 0x100
 8005920:	e6cc      	b.n	80056bc <__d_vfprintf+0x8c>
 8005922:	465e      	mov	r6, fp
 8005924:	46bb      	mov	fp, r7
 8005926:	4634      	mov	r4, r6
 8005928:	4637      	mov	r7, r6
 800592a:	e6c7      	b.n	80056bc <__d_vfprintf+0x8c>
 800592c:	2b00      	cmp	r3, #0
 800592e:	9b04      	ldr	r3, [sp, #16]
 8005930:	bf08      	it	eq
 8005932:	2606      	moveq	r6, #6
 8005934:	2b65      	cmp	r3, #101	@ 0x65
 8005936:	d10f      	bne.n	8005958 <__d_vfprintf+0x328>
 8005938:	1c72      	adds	r2, r6, #1
 800593a:	b2d2      	uxtb	r2, r2
 800593c:	f444 5480 	orr.w	r4, r4, #4096	@ 0x1000
 8005940:	4613      	mov	r3, r2
 8005942:	2a11      	cmp	r2, #17
 8005944:	f04f 0e65 	mov.w	lr, #101	@ 0x65
 8005948:	f04f 0200 	mov.w	r2, #0
 800594c:	bf28      	it	cs
 800594e:	2311      	movcs	r3, #17
 8005950:	4694      	mov	ip, r2
 8005952:	f8cd e010 	str.w	lr, [sp, #16]
 8005956:	e007      	b.n	8005968 <__d_vfprintf+0x338>
 8005958:	9b04      	ldr	r3, [sp, #16]
 800595a:	2b66      	cmp	r3, #102	@ 0x66
 800595c:	d110      	bne.n	8005980 <__d_vfprintf+0x350>
 800595e:	46b4      	mov	ip, r6
 8005960:	2201      	movs	r2, #1
 8005962:	2311      	movs	r3, #17
 8005964:	f444 5400 	orr.w	r4, r4, #8192	@ 0x2000
 8005968:	e9cd 2c00 	strd	r2, ip, [sp]
 800596c:	aa0c      	add	r2, sp, #48	@ 0x30
 800596e:	f000 fbd3 	bl	8006118 <__dtoa_engine>
 8005972:	b2c3      	uxtb	r3, r0
 8005974:	9303      	str	r3, [sp, #12]
 8005976:	2302      	movs	r3, #2
 8005978:	f8dd a030 	ldr.w	sl, [sp, #48]	@ 0x30
 800597c:	9305      	str	r3, [sp, #20]
 800597e:	e70c      	b.n	800579a <__d_vfprintf+0x16a>
 8005980:	f016 02ff 	ands.w	r2, r6, #255	@ 0xff
 8005984:	d1dc      	bne.n	8005940 <__d_vfprintf+0x310>
 8005986:	2365      	movs	r3, #101	@ 0x65
 8005988:	4694      	mov	ip, r2
 800598a:	9304      	str	r3, [sp, #16]
 800598c:	2301      	movs	r3, #1
 800598e:	e7eb      	b.n	8005968 <__d_vfprintf+0x338>
 8005990:	2302      	movs	r3, #2
 8005992:	e713      	b.n	80057bc <__d_vfprintf+0x18c>
 8005994:	f04f 0b2d 	mov.w	fp, #45	@ 0x2d
 8005998:	e71f      	b.n	80057da <__d_vfprintf+0x1aa>
 800599a:	f04f 0b2b 	mov.w	fp, #43	@ 0x2b
 800599e:	e71c      	b.n	80057da <__d_vfprintf+0x1aa>
 80059a0:	9b07      	ldr	r3, [sp, #28]
 80059a2:	4641      	mov	r1, r8
 80059a4:	1ac0      	subs	r0, r0, r3
 80059a6:	b2c0      	uxtb	r0, r0
 80059a8:	47c8      	blx	r9
 80059aa:	2800      	cmp	r0, #0
 80059ac:	f6bf af44 	bge.w	8005838 <__d_vfprintf+0x208>
 80059b0:	e659      	b.n	8005666 <__d_vfprintf+0x36>
 80059b2:	f414 5f40 	tst.w	r4, #12288	@ 0x3000
 80059b6:	f040 8097 	bne.w	8005ae8 <__d_vfprintf+0x4b8>
 80059ba:	2e00      	cmp	r6, #0
 80059bc:	bf08      	it	eq
 80059be:	2601      	moveq	r6, #1
 80059c0:	9b03      	ldr	r3, [sp, #12]
 80059c2:	3348      	adds	r3, #72	@ 0x48
 80059c4:	446b      	add	r3, sp
 80059c6:	3b13      	subs	r3, #19
 80059c8:	9a03      	ldr	r2, [sp, #12]
 80059ca:	b11a      	cbz	r2, 80059d4 <__d_vfprintf+0x3a4>
 80059cc:	f813 2d01 	ldrb.w	r2, [r3, #-1]!
 80059d0:	2a30      	cmp	r2, #48	@ 0x30
 80059d2:	d076      	beq.n	8005ac2 <__d_vfprintf+0x492>
 80059d4:	f014 0f10 	tst.w	r4, #16
 80059d8:	9b03      	ldr	r3, [sp, #12]
 80059da:	bf18      	it	ne
 80059dc:	4633      	movne	r3, r6
 80059de:	f11a 0f04 	cmn.w	sl, #4
 80059e2:	db73      	blt.n	8005acc <__d_vfprintf+0x49c>
 80059e4:	45b2      	cmp	sl, r6
 80059e6:	da71      	bge.n	8005acc <__d_vfprintf+0x49c>
 80059e8:	4553      	cmp	r3, sl
 80059ea:	f444 5400 	orr.w	r4, r4, #8192	@ 0x2000
 80059ee:	dd7e      	ble.n	8005aee <__d_vfprintf+0x4be>
 80059f0:	f10a 0601 	add.w	r6, sl, #1
 80059f4:	1b9e      	subs	r6, r3, r6
 80059f6:	ea2a 73ea 	bic.w	r3, sl, sl, asr #31
 80059fa:	3301      	adds	r3, #1
 80059fc:	f1bb 0f00 	cmp.w	fp, #0
 8005a00:	d000      	beq.n	8005a04 <__d_vfprintf+0x3d4>
 8005a02:	3301      	adds	r3, #1
 8005a04:	2e00      	cmp	r6, #0
 8005a06:	d074      	beq.n	8005af2 <__d_vfprintf+0x4c2>
 8005a08:	1c72      	adds	r2, r6, #1
 8005a0a:	4413      	add	r3, r2
 8005a0c:	429f      	cmp	r7, r3
 8005a0e:	bfd4      	ite	le
 8005a10:	2700      	movle	r7, #0
 8005a12:	1aff      	subgt	r7, r7, r3
 8005a14:	f014 0f09 	tst.w	r4, #9
 8005a18:	d103      	bne.n	8005a22 <__d_vfprintf+0x3f2>
 8005a1a:	442f      	add	r7, r5
 8005a1c:	42bd      	cmp	r5, r7
 8005a1e:	d16c      	bne.n	8005afa <__d_vfprintf+0x4ca>
 8005a20:	2700      	movs	r7, #0
 8005a22:	f1bb 0f00 	cmp.w	fp, #0
 8005a26:	d007      	beq.n	8005a38 <__d_vfprintf+0x408>
 8005a28:	4641      	mov	r1, r8
 8005a2a:	4658      	mov	r0, fp
 8005a2c:	47c8      	blx	r9
 8005a2e:	2800      	cmp	r0, #0
 8005a30:	f105 0501 	add.w	r5, r5, #1
 8005a34:	f6ff ae17 	blt.w	8005666 <__d_vfprintf+0x36>
 8005a38:	0523      	lsls	r3, r4, #20
 8005a3a:	d511      	bpl.n	8005a60 <__d_vfprintf+0x430>
 8005a3c:	4641      	mov	r1, r8
 8005a3e:	2030      	movs	r0, #48	@ 0x30
 8005a40:	47c8      	blx	r9
 8005a42:	2800      	cmp	r0, #0
 8005a44:	f6ff ae0f 	blt.w	8005666 <__d_vfprintf+0x36>
 8005a48:	9b07      	ldr	r3, [sp, #28]
 8005a4a:	4641      	mov	r1, r8
 8005a4c:	f1c3 0078 	rsb	r0, r3, #120	@ 0x78
 8005a50:	f000 00f8 	and.w	r0, r0, #248	@ 0xf8
 8005a54:	47c8      	blx	r9
 8005a56:	2800      	cmp	r0, #0
 8005a58:	f105 0502 	add.w	r5, r5, #2
 8005a5c:	f6ff ae03 	blt.w	8005666 <__d_vfprintf+0x36>
 8005a60:	0720      	lsls	r0, r4, #28
 8005a62:	d404      	bmi.n	8005a6e <__d_vfprintf+0x43e>
 8005a64:	46ab      	mov	fp, r5
 8005a66:	197d      	adds	r5, r7, r5
 8005a68:	455d      	cmp	r5, fp
 8005a6a:	d14e      	bne.n	8005b0a <__d_vfprintf+0x4da>
 8005a6c:	2700      	movs	r7, #0
 8005a6e:	04a1      	lsls	r1, r4, #18
 8005a70:	d569      	bpl.n	8005b46 <__d_vfprintf+0x516>
 8005a72:	ea2a 73ea 	bic.w	r3, sl, sl, asr #31
 8005a76:	ebaa 0a03 	sub.w	sl, sl, r3
 8005a7a:	4276      	negs	r6, r6
 8005a7c:	9a03      	ldr	r2, [sp, #12]
 8005a7e:	3b01      	subs	r3, #1
 8005a80:	4592      	cmp	sl, r2
 8005a82:	bf3b      	ittet	cc
 8005a84:	aa0c      	addcc	r2, sp, #48	@ 0x30
 8005a86:	4452      	addcc	r2, sl
 8005a88:	2030      	movcs	r0, #48	@ 0x30
 8005a8a:	7950      	ldrbcc	r0, [r2, #5]
 8005a8c:	429e      	cmp	r6, r3
 8005a8e:	f105 0b01 	add.w	fp, r5, #1
 8005a92:	dc42      	bgt.n	8005b1a <__d_vfprintf+0x4ea>
 8005a94:	4641      	mov	r1, r8
 8005a96:	9304      	str	r3, [sp, #16]
 8005a98:	47c8      	blx	r9
 8005a9a:	2800      	cmp	r0, #0
 8005a9c:	9b04      	ldr	r3, [sp, #16]
 8005a9e:	f10a 0a01 	add.w	sl, sl, #1
 8005aa2:	f6ff ade0 	blt.w	8005666 <__d_vfprintf+0x36>
 8005aa6:	1c5a      	adds	r2, r3, #1
 8005aa8:	d109      	bne.n	8005abe <__d_vfprintf+0x48e>
 8005aaa:	4641      	mov	r1, r8
 8005aac:	202e      	movs	r0, #46	@ 0x2e
 8005aae:	9304      	str	r3, [sp, #16]
 8005ab0:	47c8      	blx	r9
 8005ab2:	2800      	cmp	r0, #0
 8005ab4:	f6ff add7 	blt.w	8005666 <__d_vfprintf+0x36>
 8005ab8:	9b04      	ldr	r3, [sp, #16]
 8005aba:	f105 0b02 	add.w	fp, r5, #2
 8005abe:	465d      	mov	r5, fp
 8005ac0:	e7dc      	b.n	8005a7c <__d_vfprintf+0x44c>
 8005ac2:	9a03      	ldr	r2, [sp, #12]
 8005ac4:	3a01      	subs	r2, #1
 8005ac6:	b2d2      	uxtb	r2, r2
 8005ac8:	9203      	str	r2, [sp, #12]
 8005aca:	e77d      	b.n	80059c8 <__d_vfprintf+0x398>
 8005acc:	1e5e      	subs	r6, r3, #1
 8005ace:	f414 6f00 	tst.w	r4, #2048	@ 0x800
 8005ad2:	bf14      	ite	ne
 8005ad4:	2305      	movne	r3, #5
 8005ad6:	2303      	moveq	r3, #3
 8005ad8:	9a05      	ldr	r2, [sp, #20]
 8005ada:	4413      	add	r3, r2
 8005adc:	e78e      	b.n	80059fc <__d_vfprintf+0x3cc>
 8005ade:	bf00      	nop
 8005ae0:	08007ce0 	.word	0x08007ce0
 8005ae4:	08007cdc 	.word	0x08007cdc
 8005ae8:	04a1      	lsls	r1, r4, #18
 8005aea:	d484      	bmi.n	80059f6 <__d_vfprintf+0x3c6>
 8005aec:	e7ef      	b.n	8005ace <__d_vfprintf+0x49e>
 8005aee:	2600      	movs	r6, #0
 8005af0:	e781      	b.n	80059f6 <__d_vfprintf+0x3c6>
 8005af2:	06e2      	lsls	r2, r4, #27
 8005af4:	bf48      	it	mi
 8005af6:	3301      	addmi	r3, #1
 8005af8:	e788      	b.n	8005a0c <__d_vfprintf+0x3dc>
 8005afa:	4641      	mov	r1, r8
 8005afc:	2020      	movs	r0, #32
 8005afe:	47c8      	blx	r9
 8005b00:	2800      	cmp	r0, #0
 8005b02:	f105 0501 	add.w	r5, r5, #1
 8005b06:	da89      	bge.n	8005a1c <__d_vfprintf+0x3ec>
 8005b08:	e5ad      	b.n	8005666 <__d_vfprintf+0x36>
 8005b0a:	4641      	mov	r1, r8
 8005b0c:	2030      	movs	r0, #48	@ 0x30
 8005b0e:	47c8      	blx	r9
 8005b10:	2800      	cmp	r0, #0
 8005b12:	f10b 0b01 	add.w	fp, fp, #1
 8005b16:	daa7      	bge.n	8005a68 <__d_vfprintf+0x438>
 8005b18:	e5a5      	b.n	8005666 <__d_vfprintf+0x36>
 8005b1a:	4641      	mov	r1, r8
 8005b1c:	9303      	str	r3, [sp, #12]
 8005b1e:	47c8      	blx	r9
 8005b20:	2800      	cmp	r0, #0
 8005b22:	f6ff ada0 	blt.w	8005666 <__d_vfprintf+0x36>
 8005b26:	06e6      	lsls	r6, r4, #27
 8005b28:	d50a      	bpl.n	8005b40 <__d_vfprintf+0x510>
 8005b2a:	9b03      	ldr	r3, [sp, #12]
 8005b2c:	3301      	adds	r3, #1
 8005b2e:	d107      	bne.n	8005b40 <__d_vfprintf+0x510>
 8005b30:	4641      	mov	r1, r8
 8005b32:	202e      	movs	r0, #46	@ 0x2e
 8005b34:	f105 0b02 	add.w	fp, r5, #2
 8005b38:	47c8      	blx	r9
 8005b3a:	2800      	cmp	r0, #0
 8005b3c:	f6ff ad93 	blt.w	8005666 <__d_vfprintf+0x36>
 8005b40:	465d      	mov	r5, fp
 8005b42:	445f      	add	r7, fp
 8005b44:	e216      	b.n	8005f74 <__d_vfprintf+0x944>
 8005b46:	4641      	mov	r1, r8
 8005b48:	f89d 0035 	ldrb.w	r0, [sp, #53]	@ 0x35
 8005b4c:	47c8      	blx	r9
 8005b4e:	2800      	cmp	r0, #0
 8005b50:	f6ff ad89 	blt.w	8005666 <__d_vfprintf+0x36>
 8005b54:	2e00      	cmp	r6, #0
 8005b56:	dd61      	ble.n	8005c1c <__d_vfprintf+0x5ec>
 8005b58:	4641      	mov	r1, r8
 8005b5a:	202e      	movs	r0, #46	@ 0x2e
 8005b5c:	47c8      	blx	r9
 8005b5e:	2800      	cmp	r0, #0
 8005b60:	f6ff ad81 	blt.w	8005666 <__d_vfprintf+0x36>
 8005b64:	2401      	movs	r4, #1
 8005b66:	ab0c      	add	r3, sp, #48	@ 0x30
 8005b68:	9a03      	ldr	r2, [sp, #12]
 8005b6a:	4641      	mov	r1, r8
 8005b6c:	42a2      	cmp	r2, r4
 8005b6e:	bfca      	itet	gt
 8005b70:	18e2      	addgt	r2, r4, r3
 8005b72:	2030      	movle	r0, #48	@ 0x30
 8005b74:	7950      	ldrbgt	r0, [r2, #5]
 8005b76:	47c8      	blx	r9
 8005b78:	2800      	cmp	r0, #0
 8005b7a:	46a3      	mov	fp, r4
 8005b7c:	f6ff ad73 	blt.w	8005666 <__d_vfprintf+0x36>
 8005b80:	3401      	adds	r4, #1
 8005b82:	42a6      	cmp	r6, r4
 8005b84:	ab0c      	add	r3, sp, #48	@ 0x30
 8005b86:	daef      	bge.n	8005b68 <__d_vfprintf+0x538>
 8005b88:	1cac      	adds	r4, r5, #2
 8005b8a:	445c      	add	r4, fp
 8005b8c:	9b04      	ldr	r3, [sp, #16]
 8005b8e:	9a07      	ldr	r2, [sp, #28]
 8005b90:	4641      	mov	r1, r8
 8005b92:	1a98      	subs	r0, r3, r2
 8005b94:	b2c0      	uxtb	r0, r0
 8005b96:	47c8      	blx	r9
 8005b98:	2800      	cmp	r0, #0
 8005b9a:	f6ff ad64 	blt.w	8005666 <__d_vfprintf+0x36>
 8005b9e:	f1ba 0f00 	cmp.w	sl, #0
 8005ba2:	bfb4      	ite	lt
 8005ba4:	202d      	movlt	r0, #45	@ 0x2d
 8005ba6:	202b      	movge	r0, #43	@ 0x2b
 8005ba8:	4641      	mov	r1, r8
 8005baa:	bfb8      	it	lt
 8005bac:	f1ca 0a00 	rsblt	sl, sl, #0
 8005bb0:	47c8      	blx	r9
 8005bb2:	2800      	cmp	r0, #0
 8005bb4:	f6ff ad57 	blt.w	8005666 <__d_vfprintf+0x36>
 8005bb8:	9b05      	ldr	r3, [sp, #20]
 8005bba:	2b04      	cmp	r3, #4
 8005bbc:	d13a      	bne.n	8005c34 <__d_vfprintf+0x604>
 8005bbe:	f44f 767a 	mov.w	r6, #1000	@ 0x3e8
 8005bc2:	fbba f5f6 	udiv	r5, sl, r6
 8005bc6:	f105 0030 	add.w	r0, r5, #48	@ 0x30
 8005bca:	4641      	mov	r1, r8
 8005bcc:	b2c0      	uxtb	r0, r0
 8005bce:	47c8      	blx	r9
 8005bd0:	2800      	cmp	r0, #0
 8005bd2:	f104 0403 	add.w	r4, r4, #3
 8005bd6:	f6ff ad46 	blt.w	8005666 <__d_vfprintf+0x36>
 8005bda:	fb06 aa15 	mls	sl, r6, r5, sl
 8005bde:	2664      	movs	r6, #100	@ 0x64
 8005be0:	fbba f5f6 	udiv	r5, sl, r6
 8005be4:	f105 0030 	add.w	r0, r5, #48	@ 0x30
 8005be8:	4641      	mov	r1, r8
 8005bea:	b2c0      	uxtb	r0, r0
 8005bec:	47c8      	blx	r9
 8005bee:	2800      	cmp	r0, #0
 8005bf0:	f104 0401 	add.w	r4, r4, #1
 8005bf4:	f6ff ad37 	blt.w	8005666 <__d_vfprintf+0x36>
 8005bf8:	fb06 aa15 	mls	sl, r6, r5, sl
 8005bfc:	260a      	movs	r6, #10
 8005bfe:	fbba f5f6 	udiv	r5, sl, r6
 8005c02:	f105 0030 	add.w	r0, r5, #48	@ 0x30
 8005c06:	4641      	mov	r1, r8
 8005c08:	b2c0      	uxtb	r0, r0
 8005c0a:	47c8      	blx	r9
 8005c0c:	2800      	cmp	r0, #0
 8005c0e:	f104 0401 	add.w	r4, r4, #1
 8005c12:	f6ff ad28 	blt.w	8005666 <__d_vfprintf+0x36>
 8005c16:	fb06 aa15 	mls	sl, r6, r5, sl
 8005c1a:	e012      	b.n	8005c42 <__d_vfprintf+0x612>
 8005c1c:	06e4      	lsls	r4, r4, #27
 8005c1e:	d401      	bmi.n	8005c24 <__d_vfprintf+0x5f4>
 8005c20:	1c6c      	adds	r4, r5, #1
 8005c22:	e7b3      	b.n	8005b8c <__d_vfprintf+0x55c>
 8005c24:	4641      	mov	r1, r8
 8005c26:	202e      	movs	r0, #46	@ 0x2e
 8005c28:	47c8      	blx	r9
 8005c2a:	2800      	cmp	r0, #0
 8005c2c:	f105 0402 	add.w	r4, r5, #2
 8005c30:	daac      	bge.n	8005b8c <__d_vfprintf+0x55c>
 8005c32:	e518      	b.n	8005666 <__d_vfprintf+0x36>
 8005c34:	9b05      	ldr	r3, [sp, #20]
 8005c36:	3402      	adds	r4, #2
 8005c38:	2b03      	cmp	r3, #3
 8005c3a:	d0d0      	beq.n	8005bde <__d_vfprintf+0x5ae>
 8005c3c:	9b05      	ldr	r3, [sp, #20]
 8005c3e:	2b01      	cmp	r3, #1
 8005c40:	d1dc      	bne.n	8005bfc <__d_vfprintf+0x5cc>
 8005c42:	f10a 0030 	add.w	r0, sl, #48	@ 0x30
 8005c46:	4641      	mov	r1, r8
 8005c48:	f104 0b01 	add.w	fp, r4, #1
 8005c4c:	b2c0      	uxtb	r0, r0
 8005c4e:	e773      	b.n	8005b38 <__d_vfprintf+0x508>
 8005c50:	f1aa 0363 	sub.w	r3, sl, #99	@ 0x63
 8005c54:	2b12      	cmp	r3, #18
 8005c56:	f200 80e5 	bhi.w	8005e24 <__d_vfprintf+0x7f4>
 8005c5a:	e8df f013 	tbh	[pc, r3, lsl #1]
 8005c5e:	0013      	.short	0x0013
 8005c60:	00e30054 	.word	0x00e30054
 8005c64:	00e300e3 	.word	0x00e300e3
 8005c68:	005400e3 	.word	0x005400e3
 8005c6c:	00e300e3 	.word	0x00e300e3
 8005c70:	00e300e3 	.word	0x00e300e3
 8005c74:	00fc00e3 	.word	0x00fc00e3
 8005c78:	00e300dd 	.word	0x00e300dd
 8005c7c:	002900e3 	.word	0x002900e3
 8005c80:	00ab00e3 	.word	0x00ab00e3
 8005c84:	2601      	movs	r6, #1
 8005c86:	9b0b      	ldr	r3, [sp, #44]	@ 0x2c
 8005c88:	f10d 0a30 	add.w	sl, sp, #48	@ 0x30
 8005c8c:	1d1a      	adds	r2, r3, #4
 8005c8e:	681b      	ldr	r3, [r3, #0]
 8005c90:	920b      	str	r2, [sp, #44]	@ 0x2c
 8005c92:	f88d 3030 	strb.w	r3, [sp, #48]	@ 0x30
 8005c96:	0720      	lsls	r0, r4, #28
 8005c98:	d52c      	bpl.n	8005cf4 <__d_vfprintf+0x6c4>
 8005c9a:	4654      	mov	r4, sl
 8005c9c:	eb0a 0b06 	add.w	fp, sl, r6
 8005ca0:	455c      	cmp	r4, fp
 8005ca2:	d129      	bne.n	8005cf8 <__d_vfprintf+0x6c8>
 8005ca4:	eba5 0a0a 	sub.w	sl, r5, sl
 8005ca8:	eb04 0b0a 	add.w	fp, r4, sl
 8005cac:	1bbf      	subs	r7, r7, r6
 8005cae:	e747      	b.n	8005b40 <__d_vfprintf+0x510>
 8005cb0:	9b0b      	ldr	r3, [sp, #44]	@ 0x2c
 8005cb2:	1d1a      	adds	r2, r3, #4
 8005cb4:	920b      	str	r2, [sp, #44]	@ 0x2c
 8005cb6:	f8d3 a000 	ldr.w	sl, [r3]
 8005cba:	4ba9      	ldr	r3, [pc, #676]	@ (8005f60 <__d_vfprintf+0x930>)
 8005cbc:	f1ba 0f00 	cmp.w	sl, #0
 8005cc0:	bf08      	it	eq
 8005cc2:	469a      	moveq	sl, r3
 8005cc4:	f014 0f40 	tst.w	r4, #64	@ 0x40
 8005cc8:	bf14      	ite	ne
 8005cca:	4631      	movne	r1, r6
 8005ccc:	f04f 31ff 	moveq.w	r1, #4294967295	@ 0xffffffff
 8005cd0:	4650      	mov	r0, sl
 8005cd2:	f001 f82d 	bl	8006d30 <strnlen>
 8005cd6:	4606      	mov	r6, r0
 8005cd8:	e7dd      	b.n	8005c96 <__d_vfprintf+0x666>
 8005cda:	4641      	mov	r1, r8
 8005cdc:	2020      	movs	r0, #32
 8005cde:	47c8      	blx	r9
 8005ce0:	2800      	cmp	r0, #0
 8005ce2:	f6ff acc0 	blt.w	8005666 <__d_vfprintf+0x36>
 8005ce6:	3c01      	subs	r4, #1
 8005ce8:	42a6      	cmp	r6, r4
 8005cea:	d3f6      	bcc.n	8005cda <__d_vfprintf+0x6aa>
 8005cec:	442f      	add	r7, r5
 8005cee:	1b3d      	subs	r5, r7, r4
 8005cf0:	4627      	mov	r7, r4
 8005cf2:	e7d2      	b.n	8005c9a <__d_vfprintf+0x66a>
 8005cf4:	463c      	mov	r4, r7
 8005cf6:	e7f7      	b.n	8005ce8 <__d_vfprintf+0x6b8>
 8005cf8:	4641      	mov	r1, r8
 8005cfa:	f814 0b01 	ldrb.w	r0, [r4], #1
 8005cfe:	47c8      	blx	r9
 8005d00:	2800      	cmp	r0, #0
 8005d02:	dacd      	bge.n	8005ca0 <__d_vfprintf+0x670>
 8005d04:	e4af      	b.n	8005666 <__d_vfprintf+0x36>
 8005d06:	0621      	lsls	r1, r4, #24
 8005d08:	9b0b      	ldr	r3, [sp, #44]	@ 0x2c
 8005d0a:	d532      	bpl.n	8005d72 <__d_vfprintf+0x742>
 8005d0c:	05a2      	lsls	r2, r4, #22
 8005d0e:	d52b      	bpl.n	8005d68 <__d_vfprintf+0x738>
 8005d10:	3307      	adds	r3, #7
 8005d12:	f023 0307 	bic.w	r3, r3, #7
 8005d16:	f103 0208 	add.w	r2, r3, #8
 8005d1a:	920b      	str	r2, [sp, #44]	@ 0x2c
 8005d1c:	e9d3 0100 	ldrd	r0, r1, [r3]
 8005d20:	f024 0b10 	bic.w	fp, r4, #16
 8005d24:	2900      	cmp	r1, #0
 8005d26:	fa1f fb8b 	uxth.w	fp, fp
 8005d2a:	da32      	bge.n	8005d92 <__d_vfprintf+0x762>
 8005d2c:	4240      	negs	r0, r0
 8005d2e:	eb61 0141 	sbc.w	r1, r1, r1, lsl #1
 8005d32:	f44b 6b80 	orr.w	fp, fp, #1024	@ 0x400
 8005d36:	230a      	movs	r3, #10
 8005d38:	ac0c      	add	r4, sp, #48	@ 0x30
 8005d3a:	4622      	mov	r2, r4
 8005d3c:	f7ff fbc2 	bl	80054c4 <__ultoa_invert>
 8005d40:	f01b 0f40 	tst.w	fp, #64	@ 0x40
 8005d44:	eba0 0204 	sub.w	r2, r0, r4
 8005d48:	f000 809c 	beq.w	8005e84 <__d_vfprintf+0x854>
 8005d4c:	f02b 0301 	bic.w	r3, fp, #1
 8005d50:	4296      	cmp	r6, r2
 8005d52:	b29b      	uxth	r3, r3
 8005d54:	f340 809f 	ble.w	8005e96 <__d_vfprintf+0x866>
 8005d58:	f1ba 0f00 	cmp.w	sl, #0
 8005d5c:	f040 809d 	bne.w	8005e9a <__d_vfprintf+0x86a>
 8005d60:	f02b 0311 	bic.w	r3, fp, #17
 8005d64:	b29b      	uxth	r3, r3
 8005d66:	e01f      	b.n	8005da8 <__d_vfprintf+0x778>
 8005d68:	1d1a      	adds	r2, r3, #4
 8005d6a:	6818      	ldr	r0, [r3, #0]
 8005d6c:	920b      	str	r2, [sp, #44]	@ 0x2c
 8005d6e:	17c1      	asrs	r1, r0, #31
 8005d70:	e7d6      	b.n	8005d20 <__d_vfprintf+0x6f0>
 8005d72:	1d1a      	adds	r2, r3, #4
 8005d74:	05e0      	lsls	r0, r4, #23
 8005d76:	6819      	ldr	r1, [r3, #0]
 8005d78:	920b      	str	r2, [sp, #44]	@ 0x2c
 8005d7a:	d401      	bmi.n	8005d80 <__d_vfprintf+0x750>
 8005d7c:	4608      	mov	r0, r1
 8005d7e:	e7f6      	b.n	8005d6e <__d_vfprintf+0x73e>
 8005d80:	05a2      	lsls	r2, r4, #22
 8005d82:	bf4b      	itete	mi
 8005d84:	b248      	sxtbmi	r0, r1
 8005d86:	b208      	sxthpl	r0, r1
 8005d88:	f341 11c0 	sbfxmi	r1, r1, #7, #1
 8005d8c:	f341 31c0 	sbfxpl	r1, r1, #15, #1
 8005d90:	e7c6      	b.n	8005d20 <__d_vfprintf+0x6f0>
 8005d92:	ea50 0301 	orrs.w	r3, r0, r1
 8005d96:	d1ce      	bne.n	8005d36 <__d_vfprintf+0x706>
 8005d98:	0663      	lsls	r3, r4, #25
 8005d9a:	d5cc      	bpl.n	8005d36 <__d_vfprintf+0x706>
 8005d9c:	2e00      	cmp	r6, #0
 8005d9e:	d1ca      	bne.n	8005d36 <__d_vfprintf+0x706>
 8005da0:	4632      	mov	r2, r6
 8005da2:	f024 0411 	bic.w	r4, r4, #17
 8005da6:	b2a3      	uxth	r3, r4
 8005da8:	4634      	mov	r4, r6
 8005daa:	f240 4106 	movw	r1, #1030	@ 0x406
 8005dae:	420b      	tst	r3, r1
 8005db0:	d16f      	bne.n	8005e92 <__d_vfprintf+0x862>
 8005db2:	e026      	b.n	8005e02 <__d_vfprintf+0x7d2>
 8005db4:	230a      	movs	r3, #10
 8005db6:	f024 0410 	bic.w	r4, r4, #16
 8005dba:	b2a4      	uxth	r4, r4
 8005dbc:	f014 0c80 	ands.w	ip, r4, #128	@ 0x80
 8005dc0:	9a0b      	ldr	r2, [sp, #44]	@ 0x2c
 8005dc2:	d04c      	beq.n	8005e5e <__d_vfprintf+0x82e>
 8005dc4:	f414 7100 	ands.w	r1, r4, #512	@ 0x200
 8005dc8:	bf15      	itete	ne
 8005dca:	3207      	addne	r2, #7
 8005dcc:	1d10      	addeq	r0, r2, #4
 8005dce:	f022 0207 	bicne.w	r2, r2, #7
 8005dd2:	900b      	streq	r0, [sp, #44]	@ 0x2c
 8005dd4:	bf0f      	iteee	eq
 8005dd6:	6810      	ldreq	r0, [r2, #0]
 8005dd8:	f102 0108 	addne.w	r1, r2, #8
 8005ddc:	910b      	strne	r1, [sp, #44]	@ 0x2c
 8005dde:	e9d2 0100 	ldrdne	r0, r1, [r2]
 8005de2:	ea50 0201 	orrs.w	r2, r0, r1
 8005de6:	d147      	bne.n	8005e78 <__d_vfprintf+0x848>
 8005de8:	f024 0b16 	bic.w	fp, r4, #22
 8005dec:	0662      	lsls	r2, r4, #25
 8005dee:	fa1f fb8b 	uxth.w	fp, fp
 8005df2:	d545      	bpl.n	8005e80 <__d_vfprintf+0x850>
 8005df4:	2e00      	cmp	r6, #0
 8005df6:	d143      	bne.n	8005e80 <__d_vfprintf+0x850>
 8005df8:	f024 0417 	bic.w	r4, r4, #23
 8005dfc:	b2a3      	uxth	r3, r4
 8005dfe:	4632      	mov	r2, r6
 8005e00:	4634      	mov	r4, r6
 8005e02:	0719      	lsls	r1, r3, #28
 8005e04:	d45f      	bmi.n	8005ec6 <__d_vfprintf+0x896>
 8005e06:	07d9      	lsls	r1, r3, #31
 8005e08:	d504      	bpl.n	8005e14 <__d_vfprintf+0x7e4>
 8005e0a:	42a7      	cmp	r7, r4
 8005e0c:	dd72      	ble.n	8005ef4 <__d_vfprintf+0x8c4>
 8005e0e:	1b3c      	subs	r4, r7, r4
 8005e10:	18a6      	adds	r6, r4, r2
 8005e12:	463c      	mov	r4, r7
 8005e14:	46a3      	mov	fp, r4
 8005e16:	e050      	b.n	8005eba <__d_vfprintf+0x88a>
 8005e18:	2310      	movs	r3, #16
 8005e1a:	f04f 0a78 	mov.w	sl, #120	@ 0x78
 8005e1e:	f044 0410 	orr.w	r4, r4, #16
 8005e22:	e7cb      	b.n	8005dbc <__d_vfprintf+0x78c>
 8005e24:	f04a 0320 	orr.w	r3, sl, #32
 8005e28:	2b78      	cmp	r3, #120	@ 0x78
 8005e2a:	d104      	bne.n	8005e36 <__d_vfprintf+0x806>
 8005e2c:	f1ca 0378 	rsb	r3, sl, #120	@ 0x78
 8005e30:	f043 0310 	orr.w	r3, r3, #16
 8005e34:	e7c2      	b.n	8005dbc <__d_vfprintf+0x78c>
 8005e36:	4641      	mov	r1, r8
 8005e38:	2025      	movs	r0, #37	@ 0x25
 8005e3a:	47c8      	blx	r9
 8005e3c:	2800      	cmp	r0, #0
 8005e3e:	f6ff ac12 	blt.w	8005666 <__d_vfprintf+0x36>
 8005e42:	4641      	mov	r1, r8
 8005e44:	4650      	mov	r0, sl
 8005e46:	47c8      	blx	r9
 8005e48:	2800      	cmp	r0, #0
 8005e4a:	f6ff ac0c 	blt.w	8005666 <__d_vfprintf+0x36>
 8005e4e:	3502      	adds	r5, #2
 8005e50:	9b06      	ldr	r3, [sp, #24]
 8005e52:	f7ff bbfb 	b.w	800564c <__d_vfprintf+0x1c>
 8005e56:	2308      	movs	r3, #8
 8005e58:	f04f 0a00 	mov.w	sl, #0
 8005e5c:	e7ae      	b.n	8005dbc <__d_vfprintf+0x78c>
 8005e5e:	1d11      	adds	r1, r2, #4
 8005e60:	910b      	str	r1, [sp, #44]	@ 0x2c
 8005e62:	f414 7180 	ands.w	r1, r4, #256	@ 0x100
 8005e66:	6810      	ldr	r0, [r2, #0]
 8005e68:	d0bb      	beq.n	8005de2 <__d_vfprintf+0x7b2>
 8005e6a:	f414 7100 	ands.w	r1, r4, #512	@ 0x200
 8005e6e:	bf1a      	itte	ne
 8005e70:	4661      	movne	r1, ip
 8005e72:	b2c0      	uxtbne	r0, r0
 8005e74:	b280      	uxtheq	r0, r0
 8005e76:	e7b4      	b.n	8005de2 <__d_vfprintf+0x7b2>
 8005e78:	f024 0406 	bic.w	r4, r4, #6
 8005e7c:	fa1f fb84 	uxth.w	fp, r4
 8005e80:	ac0c      	add	r4, sp, #48	@ 0x30
 8005e82:	e75a      	b.n	8005d3a <__d_vfprintf+0x70a>
 8005e84:	4614      	mov	r4, r2
 8005e86:	465b      	mov	r3, fp
 8005e88:	06d9      	lsls	r1, r3, #27
 8005e8a:	d58e      	bpl.n	8005daa <__d_vfprintf+0x77a>
 8005e8c:	f1ba 0f00 	cmp.w	sl, #0
 8005e90:	d105      	bne.n	8005e9e <__d_vfprintf+0x86e>
 8005e92:	3401      	adds	r4, #1
 8005e94:	e7b5      	b.n	8005e02 <__d_vfprintf+0x7d2>
 8005e96:	4614      	mov	r4, r2
 8005e98:	e7f6      	b.n	8005e88 <__d_vfprintf+0x858>
 8005e9a:	4634      	mov	r4, r6
 8005e9c:	e7f4      	b.n	8005e88 <__d_vfprintf+0x858>
 8005e9e:	3402      	adds	r4, #2
 8005ea0:	e7af      	b.n	8005e02 <__d_vfprintf+0x7d2>
 8005ea2:	4641      	mov	r1, r8
 8005ea4:	2020      	movs	r0, #32
 8005ea6:	e9cd 3203 	strd	r3, r2, [sp, #12]
 8005eaa:	47c8      	blx	r9
 8005eac:	2800      	cmp	r0, #0
 8005eae:	f6ff abda 	blt.w	8005666 <__d_vfprintf+0x36>
 8005eb2:	e9dd 3203 	ldrd	r3, r2, [sp, #12]
 8005eb6:	f10b 0b01 	add.w	fp, fp, #1
 8005eba:	455f      	cmp	r7, fp
 8005ebc:	dcf1      	bgt.n	8005ea2 <__d_vfprintf+0x872>
 8005ebe:	1b2c      	subs	r4, r5, r4
 8005ec0:	eb04 050b 	add.w	r5, r4, fp
 8005ec4:	465c      	mov	r4, fp
 8005ec6:	06d9      	lsls	r1, r3, #27
 8005ec8:	d516      	bpl.n	8005ef8 <__d_vfprintf+0x8c8>
 8005eca:	4641      	mov	r1, r8
 8005ecc:	2030      	movs	r0, #48	@ 0x30
 8005ece:	9203      	str	r2, [sp, #12]
 8005ed0:	47c8      	blx	r9
 8005ed2:	2800      	cmp	r0, #0
 8005ed4:	f6ff abc7 	blt.w	8005666 <__d_vfprintf+0x36>
 8005ed8:	9a03      	ldr	r2, [sp, #12]
 8005eda:	f1ba 0f00 	cmp.w	sl, #0
 8005ede:	d031      	beq.n	8005f44 <__d_vfprintf+0x914>
 8005ee0:	4641      	mov	r1, r8
 8005ee2:	4650      	mov	r0, sl
 8005ee4:	3502      	adds	r5, #2
 8005ee6:	47c8      	blx	r9
 8005ee8:	2800      	cmp	r0, #0
 8005eea:	9a03      	ldr	r2, [sp, #12]
 8005eec:	f6ff abbb 	blt.w	8005666 <__d_vfprintf+0x36>
 8005ef0:	442e      	add	r6, r5
 8005ef2:	e01c      	b.n	8005f2e <__d_vfprintf+0x8fe>
 8005ef4:	4616      	mov	r6, r2
 8005ef6:	e78d      	b.n	8005e14 <__d_vfprintf+0x7e4>
 8005ef8:	f240 4106 	movw	r1, #1030	@ 0x406
 8005efc:	420b      	tst	r3, r1
 8005efe:	d0f7      	beq.n	8005ef0 <__d_vfprintf+0x8c0>
 8005f00:	f013 0f02 	tst.w	r3, #2
 8005f04:	bf14      	ite	ne
 8005f06:	202b      	movne	r0, #43	@ 0x2b
 8005f08:	2020      	moveq	r0, #32
 8005f0a:	f413 6f80 	tst.w	r3, #1024	@ 0x400
 8005f0e:	4641      	mov	r1, r8
 8005f10:	bf18      	it	ne
 8005f12:	202d      	movne	r0, #45	@ 0x2d
 8005f14:	9203      	str	r2, [sp, #12]
 8005f16:	3501      	adds	r5, #1
 8005f18:	e7e5      	b.n	8005ee6 <__d_vfprintf+0x8b6>
 8005f1a:	4641      	mov	r1, r8
 8005f1c:	2030      	movs	r0, #48	@ 0x30
 8005f1e:	9203      	str	r2, [sp, #12]
 8005f20:	47c8      	blx	r9
 8005f22:	2800      	cmp	r0, #0
 8005f24:	9a03      	ldr	r2, [sp, #12]
 8005f26:	f105 0501 	add.w	r5, r5, #1
 8005f2a:	f6ff ab9c 	blt.w	8005666 <__d_vfprintf+0x36>
 8005f2e:	1b73      	subs	r3, r6, r5
 8005f30:	429a      	cmp	r2, r3
 8005f32:	dbf2      	blt.n	8005f1a <__d_vfprintf+0x8ea>
 8005f34:	4616      	mov	r6, r2
 8005f36:	f10d 0a30 	add.w	sl, sp, #48	@ 0x30
 8005f3a:	b92e      	cbnz	r6, 8005f48 <__d_vfprintf+0x918>
 8005f3c:	eb02 0b05 	add.w	fp, r2, r5
 8005f40:	1b3f      	subs	r7, r7, r4
 8005f42:	e5fd      	b.n	8005b40 <__d_vfprintf+0x510>
 8005f44:	3501      	adds	r5, #1
 8005f46:	e7d3      	b.n	8005ef0 <__d_vfprintf+0x8c0>
 8005f48:	3e01      	subs	r6, #1
 8005f4a:	4641      	mov	r1, r8
 8005f4c:	f81a 0006 	ldrb.w	r0, [sl, r6]
 8005f50:	9203      	str	r2, [sp, #12]
 8005f52:	47c8      	blx	r9
 8005f54:	2800      	cmp	r0, #0
 8005f56:	9a03      	ldr	r2, [sp, #12]
 8005f58:	daef      	bge.n	8005f3a <__d_vfprintf+0x90a>
 8005f5a:	f7ff bb84 	b.w	8005666 <__d_vfprintf+0x36>
 8005f5e:	bf00      	nop
 8005f60:	08007ce4 	.word	0x08007ce4
 8005f64:	4641      	mov	r1, r8
 8005f66:	2020      	movs	r0, #32
 8005f68:	47c8      	blx	r9
 8005f6a:	2800      	cmp	r0, #0
 8005f6c:	f105 0501 	add.w	r5, r5, #1
 8005f70:	f6ff ab79 	blt.w	8005666 <__d_vfprintf+0x36>
 8005f74:	1b7b      	subs	r3, r7, r5
 8005f76:	2b00      	cmp	r3, #0
 8005f78:	dcf4      	bgt.n	8005f64 <__d_vfprintf+0x934>
 8005f7a:	e769      	b.n	8005e50 <__d_vfprintf+0x820>

08005f7c <mulShiftAll64>:
 8005f7c:	e92d 4ff0 	stmdb	sp!, {r4, r5, r6, r7, r8, r9, sl, fp, lr}
 8005f80:	b089      	sub	sp, #36	@ 0x24
 8005f82:	1805      	adds	r5, r0, r0
 8005f84:	9302      	str	r3, [sp, #8]
 8005f86:	ab04      	add	r3, sp, #16
 8005f88:	eb41 0401 	adc.w	r4, r1, r1
 8005f8c:	9300      	str	r3, [sp, #0]
 8005f8e:	4690      	mov	r8, r2
 8005f90:	e9d2 2300 	ldrd	r2, r3, [r2]
 8005f94:	4628      	mov	r0, r5
 8005f96:	4621      	mov	r1, r4
 8005f98:	f000 fc14 	bl	80067c4 <__umul128>
 8005f9c:	ab06      	add	r3, sp, #24
 8005f9e:	9300      	str	r3, [sp, #0]
 8005fa0:	4607      	mov	r7, r0
 8005fa2:	e9d8 2302 	ldrd	r2, r3, [r8, #8]
 8005fa6:	4689      	mov	r9, r1
 8005fa8:	4628      	mov	r0, r5
 8005faa:	4621      	mov	r1, r4
 8005fac:	f000 fc0a 	bl	80067c4 <__umul128>
 8005fb0:	e9dd 2304 	ldrd	r2, r3, [sp, #16]
 8005fb4:	1884      	adds	r4, r0, r2
 8005fb6:	eb51 0603 	adcs.w	r6, r1, r3
 8005fba:	f04f 0500 	mov.w	r5, #0
 8005fbe:	e9d8 1200 	ldrd	r1, r2, [r8]
 8005fc2:	bf28      	it	cs
 8005fc4:	2501      	movcs	r5, #1
 8005fc6:	9b06      	ldr	r3, [sp, #24]
 8005fc8:	18ed      	adds	r5, r5, r3
 8005fca:	9b07      	ldr	r3, [sp, #28]
 8005fcc:	f143 0300 	adc.w	r3, r3, #0
 8005fd0:	1879      	adds	r1, r7, r1
 8005fd2:	eb49 0202 	adc.w	r2, r9, r2
 8005fd6:	42b9      	cmp	r1, r7
 8005fd8:	eb72 0209 	sbcs.w	r2, r2, r9
 8005fdc:	bf38      	it	cc
 8005fde:	2001      	movcc	r0, #1
 8005fe0:	e9d8 2102 	ldrd	r2, r1, [r8, #8]
 8005fe4:	bf28      	it	cs
 8005fe6:	2000      	movcs	r0, #0
 8005fe8:	18a2      	adds	r2, r4, r2
 8005fea:	eb46 0101 	adc.w	r1, r6, r1
 8005fee:	1880      	adds	r0, r0, r2
 8005ff0:	9a02      	ldr	r2, [sp, #8]
 8005ff2:	f141 0100 	adc.w	r1, r1, #0
 8005ff6:	42a0      	cmp	r0, r4
 8005ff8:	f1a2 0a41 	sub.w	sl, r2, #65	@ 0x41
 8005ffc:	eb71 0206 	sbcs.w	r2, r1, r6
 8006000:	bf34      	ite	cc
 8006002:	2201      	movcc	r2, #1
 8006004:	2200      	movcs	r2, #0
 8006006:	1952      	adds	r2, r2, r5
 8006008:	e9cd 5306 	strd	r5, r3, [sp, #24]
 800600c:	f8cd a000 	str.w	sl, [sp]
 8006010:	f143 0300 	adc.w	r3, r3, #0
 8006014:	f000 fbed 	bl	80067f2 <__shiftright128>
 8006018:	9b12      	ldr	r3, [sp, #72]	@ 0x48
 800601a:	e9c3 0100 	strd	r0, r1, [r3]
 800601e:	e9dd 5306 	ldrd	r5, r3, [sp, #24]
 8006022:	e9d8 2102 	ldrd	r2, r1, [r8, #8]
 8006026:	9103      	str	r1, [sp, #12]
 8006028:	9914      	ldr	r1, [sp, #80]	@ 0x50
 800602a:	e9d8 e000 	ldrd	lr, r0, [r8]
 800602e:	2901      	cmp	r1, #1
 8006030:	d127      	bne.n	8006082 <mulShiftAll64+0x106>
 8006032:	9903      	ldr	r1, [sp, #12]
 8006034:	1aa2      	subs	r2, r4, r2
 8006036:	eb66 0101 	sbc.w	r1, r6, r1
 800603a:	4577      	cmp	r7, lr
 800603c:	eb79 0000 	sbcs.w	r0, r9, r0
 8006040:	bf34      	ite	cc
 8006042:	2001      	movcc	r0, #1
 8006044:	2000      	movcs	r0, #0
 8006046:	1a10      	subs	r0, r2, r0
 8006048:	f161 0100 	sbc.w	r1, r1, #0
 800604c:	4284      	cmp	r4, r0
 800604e:	eb76 0201 	sbcs.w	r2, r6, r1
 8006052:	bf34      	ite	cc
 8006054:	2201      	movcc	r2, #1
 8006056:	2200      	movcs	r2, #0
 8006058:	f8cd a000 	str.w	sl, [sp]
 800605c:	1aaa      	subs	r2, r5, r2
 800605e:	f163 0300 	sbc.w	r3, r3, #0
 8006062:	f000 fbc6 	bl	80067f2 <__shiftright128>
 8006066:	9b13      	ldr	r3, [sp, #76]	@ 0x4c
 8006068:	e9c3 0100 	strd	r0, r1, [r3]
 800606c:	e9dd 2306 	ldrd	r2, r3, [sp, #24]
 8006070:	4620      	mov	r0, r4
 8006072:	4631      	mov	r1, r6
 8006074:	f8cd a000 	str.w	sl, [sp]
 8006078:	f000 fbbb 	bl	80067f2 <__shiftright128>
 800607c:	b009      	add	sp, #36	@ 0x24
 800607e:	e8bd 8ff0 	ldmia.w	sp!, {r4, r5, r6, r7, r8, r9, sl, fp, pc}
 8006082:	eb17 0b07 	adds.w	fp, r7, r7
 8006086:	eb49 0c09 	adc.w	ip, r9, r9
 800608a:	eb14 0804 	adds.w	r8, r4, r4
 800608e:	eb46 0106 	adc.w	r1, r6, r6
 8006092:	45bb      	cmp	fp, r7
 8006094:	eb7c 0909 	sbcs.w	r9, ip, r9
 8006098:	bf34      	ite	cc
 800609a:	2701      	movcc	r7, #1
 800609c:	2700      	movcs	r7, #0
 800609e:	eb18 0707 	adds.w	r7, r8, r7
 80060a2:	f141 0800 	adc.w	r8, r1, #0
 80060a6:	45f3      	cmp	fp, lr
 80060a8:	eb7c 0c00 	sbcs.w	ip, ip, r0
 80060ac:	bf34      	ite	cc
 80060ae:	2001      	movcc	r0, #1
 80060b0:	2000      	movcs	r0, #0
 80060b2:	1a38      	subs	r0, r7, r0
 80060b4:	f168 0100 	sbc.w	r1, r8, #0
 80060b8:	1a80      	subs	r0, r0, r2
 80060ba:	9a03      	ldr	r2, [sp, #12]
 80060bc:	eb61 0102 	sbc.w	r1, r1, r2
 80060c0:	196d      	adds	r5, r5, r5
 80060c2:	415b      	adcs	r3, r3
 80060c4:	42a7      	cmp	r7, r4
 80060c6:	eb78 0206 	sbcs.w	r2, r8, r6
 80060ca:	bf34      	ite	cc
 80060cc:	2201      	movcc	r2, #1
 80060ce:	2200      	movcs	r2, #0
 80060d0:	18ad      	adds	r5, r5, r2
 80060d2:	f143 0300 	adc.w	r3, r3, #0
 80060d6:	4287      	cmp	r7, r0
 80060d8:	eb78 0801 	sbcs.w	r8, r8, r1
 80060dc:	bf34      	ite	cc
 80060de:	2201      	movcc	r2, #1
 80060e0:	2200      	movcs	r2, #0
 80060e2:	1aaa      	subs	r2, r5, r2
 80060e4:	9d02      	ldr	r5, [sp, #8]
 80060e6:	f1a5 0540 	sub.w	r5, r5, #64	@ 0x40
 80060ea:	9500      	str	r5, [sp, #0]
 80060ec:	e7b7      	b.n	800605e <mulShiftAll64+0xe2>
	...

080060f0 <div10>:
 80060f0:	b51f      	push	{r0, r1, r2, r3, r4, lr}
 80060f2:	ab02      	add	r3, sp, #8
 80060f4:	9300      	str	r3, [sp, #0]
 80060f6:	4a07      	ldr	r2, [pc, #28]	@ (8006114 <div10+0x24>)
 80060f8:	f04f 33cc 	mov.w	r3, #3435973836	@ 0xcccccccc
 80060fc:	f000 fb62 	bl	80067c4 <__umul128>
 8006100:	e9dd 0102 	ldrd	r0, r1, [sp, #8]
 8006104:	08c0      	lsrs	r0, r0, #3
 8006106:	ea40 7041 	orr.w	r0, r0, r1, lsl #29
 800610a:	08c9      	lsrs	r1, r1, #3
 800610c:	b005      	add	sp, #20
 800610e:	f85d fb04 	ldr.w	pc, [sp], #4
 8006112:	bf00      	nop
 8006114:	cccccccd 	.word	0xcccccccd

08006118 <__dtoa_engine>:
 8006118:	e92d 4ff0 	stmdb	sp!, {r4, r5, r6, r7, r8, r9, sl, fp, lr}
 800611c:	b09b      	sub	sp, #108	@ 0x6c
 800611e:	930a      	str	r3, [sp, #40]	@ 0x28
 8006120:	f89d 3090 	ldrb.w	r3, [sp, #144]	@ 0x90
 8006124:	9205      	str	r2, [sp, #20]
 8006126:	930c      	str	r3, [sp, #48]	@ 0x30
 8006128:	0d0f      	lsrs	r7, r1, #20
 800612a:	f3c1 0313 	ubfx	r3, r1, #0, #20
 800612e:	f3c1 520a 	ubfx	r2, r1, #20, #11
 8006132:	0fc9      	lsrs	r1, r1, #31
 8006134:	4604      	mov	r4, r0
 8006136:	9107      	str	r1, [sp, #28]
 8006138:	b97a      	cbnz	r2, 800615a <__dtoa_engine+0x42>
 800613a:	ea50 0103 	orrs.w	r1, r0, r3
 800613e:	d17d      	bne.n	800623c <__dtoa_engine+0x124>
 8006140:	2330      	movs	r3, #48	@ 0x30
 8006142:	2701      	movs	r7, #1
 8006144:	9905      	ldr	r1, [sp, #20]
 8006146:	714b      	strb	r3, [r1, #5]
 8006148:	9b07      	ldr	r3, [sp, #28]
 800614a:	600a      	str	r2, [r1, #0]
 800614c:	f043 0302 	orr.w	r3, r3, #2
 8006150:	710b      	strb	r3, [r1, #4]
 8006152:	4638      	mov	r0, r7
 8006154:	b01b      	add	sp, #108	@ 0x6c
 8006156:	e8bd 8ff0 	ldmia.w	sp!, {r4, r5, r6, r7, r8, r9, sl, fp, pc}
 800615a:	f240 71ff 	movw	r1, #2047	@ 0x7ff
 800615e:	428a      	cmp	r2, r1
 8006160:	d10a      	bne.n	8006178 <__dtoa_engine+0x60>
 8006162:	4303      	orrs	r3, r0
 8006164:	9b07      	ldr	r3, [sp, #28]
 8006166:	9a05      	ldr	r2, [sp, #20]
 8006168:	bf14      	ite	ne
 800616a:	f043 0308 	orrne.w	r3, r3, #8
 800616e:	f043 0304 	orreq.w	r3, r3, #4
 8006172:	2700      	movs	r7, #0
 8006174:	7113      	strb	r3, [r2, #4]
 8006176:	e7ec      	b.n	8006152 <__dtoa_engine+0x3a>
 8006178:	f2a2 4a35 	subw	sl, r2, #1077	@ 0x435
 800617c:	f443 1580 	orr.w	r5, r3, #1048576	@ 0x100000
 8006180:	4323      	orrs	r3, r4
 8006182:	bf01      	itttt	eq
 8006184:	f027 0701 	biceq.w	r7, r7, #1
 8006188:	057f      	lsleq	r7, r7, #21
 800618a:	0d7f      	lsreq	r7, r7, #21
 800618c:	fab7 f787 	clzeq	r7, r7
 8006190:	bf18      	it	ne
 8006192:	2701      	movne	r7, #1
 8006194:	f004 0201 	and.w	r2, r4, #1
 8006198:	ea4f 0885 	mov.w	r8, r5, lsl #2
 800619c:	bf08      	it	eq
 800619e:	097f      	lsreq	r7, r7, #5
 80061a0:	f1ba 0f00 	cmp.w	sl, #0
 80061a4:	9208      	str	r2, [sp, #32]
 80061a6:	ea48 7894 	orr.w	r8, r8, r4, lsr #30
 80061aa:	ea4f 0684 	mov.w	r6, r4, lsl #2
 80061ae:	f2c0 80b6 	blt.w	800631e <__dtoa_engine+0x206>
 80061b2:	4650      	mov	r0, sl
 80061b4:	f000 f9ec 	bl	8006590 <__log10Pow2>
 80061b8:	f1ba 0f03 	cmp.w	sl, #3
 80061bc:	bfc8      	it	gt
 80061be:	3801      	subgt	r0, #1
 80061c0:	9004      	str	r0, [sp, #16]
 80061c2:	f000 f9f1 	bl	80065a8 <__pow5bits>
 80061c6:	9b04      	ldr	r3, [sp, #16]
 80061c8:	307c      	adds	r0, #124	@ 0x7c
 80061ca:	eba3 0a0a 	sub.w	sl, r3, sl
 80061ce:	4482      	add	sl, r0
 80061d0:	a916      	add	r1, sp, #88	@ 0x58
 80061d2:	4618      	mov	r0, r3
 80061d4:	f000 fa7a 	bl	80066cc <__double_computeInvPow5>
 80061d8:	ab12      	add	r3, sp, #72	@ 0x48
 80061da:	9301      	str	r3, [sp, #4]
 80061dc:	ab10      	add	r3, sp, #64	@ 0x40
 80061de:	4620      	mov	r0, r4
 80061e0:	4629      	mov	r1, r5
 80061e2:	9300      	str	r3, [sp, #0]
 80061e4:	9702      	str	r7, [sp, #8]
 80061e6:	4653      	mov	r3, sl
 80061e8:	aa16      	add	r2, sp, #88	@ 0x58
 80061ea:	f7ff fec7 	bl	8005f7c <mulShiftAll64>
 80061ee:	9b04      	ldr	r3, [sp, #16]
 80061f0:	4604      	mov	r4, r0
 80061f2:	2b15      	cmp	r3, #21
 80061f4:	460d      	mov	r5, r1
 80061f6:	f200 808e 	bhi.w	8006316 <__dtoa_engine+0x1fe>
 80061fa:	e9dd 9a10 	ldrd	r9, sl, [sp, #64]	@ 0x40
 80061fe:	ab14      	add	r3, sp, #80	@ 0x50
 8006200:	4aa7      	ldr	r2, [pc, #668]	@ (80064a0 <__dtoa_engine+0x388>)
 8006202:	9300      	str	r3, [sp, #0]
 8006204:	4630      	mov	r0, r6
 8006206:	f04f 33cc 	mov.w	r3, #3435973836	@ 0xcccccccc
 800620a:	4641      	mov	r1, r8
 800620c:	f000 fada 	bl	80067c4 <__umul128>
 8006210:	9b14      	ldr	r3, [sp, #80]	@ 0x50
 8006212:	9a15      	ldr	r2, [sp, #84]	@ 0x54
 8006214:	089b      	lsrs	r3, r3, #2
 8006216:	ea43 7382 	orr.w	r3, r3, r2, lsl #30
 800621a:	eb03 0383 	add.w	r3, r3, r3, lsl #2
 800621e:	42b3      	cmp	r3, r6
 8006220:	d110      	bne.n	8006244 <__dtoa_engine+0x12c>
 8006222:	4641      	mov	r1, r8
 8006224:	4630      	mov	r0, r6
 8006226:	f000 f9c7 	bl	80065b8 <__pow5Factor>
 800622a:	9b04      	ldr	r3, [sp, #16]
 800622c:	4283      	cmp	r3, r0
 800622e:	bf8c      	ite	hi
 8006230:	f04f 0800 	movhi.w	r8, #0
 8006234:	f04f 0801 	movls.w	r8, #1
 8006238:	2700      	movs	r7, #0
 800623a:	e015      	b.n	8006268 <__dtoa_engine+0x150>
 800623c:	461d      	mov	r5, r3
 800623e:	f8df a264 	ldr.w	sl, [pc, #612]	@ 80064a4 <__dtoa_engine+0x38c>
 8006242:	e79d      	b.n	8006180 <__dtoa_engine+0x68>
 8006244:	9b08      	ldr	r3, [sp, #32]
 8006246:	2b00      	cmp	r3, #0
 8006248:	d155      	bne.n	80062f6 <__dtoa_engine+0x1de>
 800624a:	3e01      	subs	r6, #1
 800624c:	f148 31ff 	adc.w	r1, r8, #4294967295	@ 0xffffffff
 8006250:	1bf0      	subs	r0, r6, r7
 8006252:	f161 0100 	sbc.w	r1, r1, #0
 8006256:	f000 f9af 	bl	80065b8 <__pow5Factor>
 800625a:	9b04      	ldr	r3, [sp, #16]
 800625c:	f8dd 8020 	ldr.w	r8, [sp, #32]
 8006260:	4283      	cmp	r3, r0
 8006262:	bf8c      	ite	hi
 8006264:	2700      	movhi	r7, #0
 8006266:	2701      	movls	r7, #1
 8006268:	9b0c      	ldr	r3, [sp, #48]	@ 0x30
 800626a:	2b00      	cmp	r3, #0
 800626c:	f040 80c8 	bne.w	8006400 <__dtoa_engine+0x2e8>
 8006270:	f8dd 9028 	ldr.w	r9, [sp, #40]	@ 0x28
 8006274:	2600      	movs	r6, #0
 8006276:	f04f 0b0a 	mov.w	fp, #10
 800627a:	9606      	str	r6, [sp, #24]
 800627c:	9609      	str	r6, [sp, #36]	@ 0x24
 800627e:	e9dd 0110 	ldrd	r0, r1, [sp, #64]	@ 0x40
 8006282:	f7ff ff35 	bl	80060f0 <div10>
 8006286:	e9dd a312 	ldrd	sl, r3, [sp, #72]	@ 0x48
 800628a:	e9cd 010d 	strd	r0, r1, [sp, #52]	@ 0x34
 800628e:	4619      	mov	r1, r3
 8006290:	4650      	mov	r0, sl
 8006292:	930f      	str	r3, [sp, #60]	@ 0x3c
 8006294:	f7ff ff2c 	bl	80060f0 <div10>
 8006298:	4603      	mov	r3, r0
 800629a:	460a      	mov	r2, r1
 800629c:	990d      	ldr	r1, [sp, #52]	@ 0x34
 800629e:	900b      	str	r0, [sp, #44]	@ 0x2c
 80062a0:	428b      	cmp	r3, r1
 80062a2:	9b0e      	ldr	r3, [sp, #56]	@ 0x38
 80062a4:	eb72 0103 	sbcs.w	r1, r2, r3
 80062a8:	9b0f      	ldr	r3, [sp, #60]	@ 0x3c
 80062aa:	f080 80c4 	bcs.w	8006436 <__dtoa_engine+0x31e>
 80062ae:	4620      	mov	r0, r4
 80062b0:	4629      	mov	r1, r5
 80062b2:	920f      	str	r2, [sp, #60]	@ 0x3c
 80062b4:	f7ff ff1c 	bl	80060f0 <div10>
 80062b8:	9b0b      	ldr	r3, [sp, #44]	@ 0x2c
 80062ba:	2e00      	cmp	r6, #0
 80062bc:	bf14      	ite	ne
 80062be:	f04f 0800 	movne.w	r8, #0
 80062c2:	f008 0801 	andeq.w	r8, r8, #1
 80062c6:	fb0b f503 	mul.w	r5, fp, r3
 80062ca:	9b0d      	ldr	r3, [sp, #52]	@ 0x34
 80062cc:	fb0b 4610 	mls	r6, fp, r0, r4
 80062d0:	9310      	str	r3, [sp, #64]	@ 0x40
 80062d2:	9b0e      	ldr	r3, [sp, #56]	@ 0x38
 80062d4:	9a0f      	ldr	r2, [sp, #60]	@ 0x3c
 80062d6:	9311      	str	r3, [sp, #68]	@ 0x44
 80062d8:	9b0b      	ldr	r3, [sp, #44]	@ 0x2c
 80062da:	4555      	cmp	r5, sl
 80062dc:	bf14      	ite	ne
 80062de:	2700      	movne	r7, #0
 80062e0:	f007 0701 	andeq.w	r7, r7, #1
 80062e4:	9312      	str	r3, [sp, #72]	@ 0x48
 80062e6:	9b06      	ldr	r3, [sp, #24]
 80062e8:	4604      	mov	r4, r0
 80062ea:	3301      	adds	r3, #1
 80062ec:	460d      	mov	r5, r1
 80062ee:	b2f6      	uxtb	r6, r6
 80062f0:	9213      	str	r2, [sp, #76]	@ 0x4c
 80062f2:	9306      	str	r3, [sp, #24]
 80062f4:	e7c3      	b.n	800627e <__dtoa_engine+0x166>
 80062f6:	1cb0      	adds	r0, r6, #2
 80062f8:	f148 0100 	adc.w	r1, r8, #0
 80062fc:	f000 f95c 	bl	80065b8 <__pow5Factor>
 8006300:	9b04      	ldr	r3, [sp, #16]
 8006302:	4283      	cmp	r3, r0
 8006304:	bf8c      	ite	hi
 8006306:	2000      	movhi	r0, #0
 8006308:	2001      	movls	r0, #1
 800630a:	ebb9 0000 	subs.w	r0, r9, r0
 800630e:	f16a 0200 	sbc.w	r2, sl, #0
 8006312:	e9cd 0210 	strd	r0, r2, [sp, #64]	@ 0x40
 8006316:	f04f 0800 	mov.w	r8, #0
 800631a:	4647      	mov	r7, r8
 800631c:	e7a4      	b.n	8006268 <__dtoa_engine+0x150>
 800631e:	f1ca 0b00 	rsb	fp, sl, #0
 8006322:	4658      	mov	r0, fp
 8006324:	f000 f93a 	bl	800659c <__log10Pow5>
 8006328:	f1ba 3fff 	cmp.w	sl, #4294967295	@ 0xffffffff
 800632c:	bf0c      	ite	eq
 800632e:	4681      	moveq	r9, r0
 8006330:	f1a0 0901 	subne.w	r9, r0, #1
 8006334:	ebab 0b09 	sub.w	fp, fp, r9
 8006338:	eb0a 0309 	add.w	r3, sl, r9
 800633c:	4658      	mov	r0, fp
 800633e:	9304      	str	r3, [sp, #16]
 8006340:	f000 f932 	bl	80065a8 <__pow5bits>
 8006344:	a916      	add	r1, sp, #88	@ 0x58
 8006346:	f1a0 0a7d 	sub.w	sl, r0, #125	@ 0x7d
 800634a:	4658      	mov	r0, fp
 800634c:	f000 f94c 	bl	80065e8 <__double_computePow5>
 8006350:	ab12      	add	r3, sp, #72	@ 0x48
 8006352:	9301      	str	r3, [sp, #4]
 8006354:	eba9 0a0a 	sub.w	sl, r9, sl
 8006358:	ab10      	add	r3, sp, #64	@ 0x40
 800635a:	4620      	mov	r0, r4
 800635c:	4629      	mov	r1, r5
 800635e:	9300      	str	r3, [sp, #0]
 8006360:	9702      	str	r7, [sp, #8]
 8006362:	4653      	mov	r3, sl
 8006364:	aa16      	add	r2, sp, #88	@ 0x58
 8006366:	f7ff fe09 	bl	8005f7c <mulShiftAll64>
 800636a:	f1b9 0f01 	cmp.w	r9, #1
 800636e:	4604      	mov	r4, r0
 8006370:	460d      	mov	r5, r1
 8006372:	d80e      	bhi.n	8006392 <__dtoa_engine+0x27a>
 8006374:	9b08      	ldr	r3, [sp, #32]
 8006376:	b913      	cbnz	r3, 800637e <__dtoa_engine+0x266>
 8006378:	f04f 0801 	mov.w	r8, #1
 800637c:	e774      	b.n	8006268 <__dtoa_engine+0x150>
 800637e:	9b10      	ldr	r3, [sp, #64]	@ 0x40
 8006380:	9a11      	ldr	r2, [sp, #68]	@ 0x44
 8006382:	3b01      	subs	r3, #1
 8006384:	f142 32ff 	adc.w	r2, r2, #4294967295	@ 0xffffffff
 8006388:	f04f 0801 	mov.w	r8, #1
 800638c:	e9cd 3210 	strd	r3, r2, [sp, #64]	@ 0x40
 8006390:	e752      	b.n	8006238 <__dtoa_engine+0x120>
 8006392:	f1b9 0f3e 	cmp.w	r9, #62	@ 0x3e
 8006396:	d8be      	bhi.n	8006316 <__dtoa_engine+0x1fe>
 8006398:	f04f 33ff 	mov.w	r3, #4294967295	@ 0xffffffff
 800639c:	f1a9 0020 	sub.w	r0, r9, #32
 80063a0:	fa03 f209 	lsl.w	r2, r3, r9
 80063a4:	fa03 f000 	lsl.w	r0, r3, r0
 80063a8:	f1c9 0120 	rsb	r1, r9, #32
 80063ac:	fa23 f101 	lsr.w	r1, r3, r1
 80063b0:	4302      	orrs	r2, r0
 80063b2:	430a      	orrs	r2, r1
 80063b4:	fa03 f309 	lsl.w	r3, r3, r9
 80063b8:	ea28 0802 	bic.w	r8, r8, r2
 80063bc:	ea26 0603 	bic.w	r6, r6, r3
 80063c0:	ea56 0608 	orrs.w	r6, r6, r8
 80063c4:	bf0c      	ite	eq
 80063c6:	f04f 0801 	moveq.w	r8, #1
 80063ca:	f04f 0800 	movne.w	r8, #0
 80063ce:	e733      	b.n	8006238 <__dtoa_engine+0x120>
 80063d0:	fb00 f602 	mul.w	r6, r0, r2
 80063d4:	fba1 1200 	umull	r1, r2, r1, r0
 80063d8:	3301      	adds	r3, #1
 80063da:	4432      	add	r2, r6
 80063dc:	428c      	cmp	r4, r1
 80063de:	eb75 0602 	sbcs.w	r6, r5, r2
 80063e2:	d2f5      	bcs.n	80063d0 <__dtoa_engine+0x2b8>
 80063e4:	9a04      	ldr	r2, [sp, #16]
 80063e6:	f8dd 9028 	ldr.w	r9, [sp, #40]	@ 0x28
 80063ea:	4413      	add	r3, r2
 80063ec:	9a25      	ldr	r2, [sp, #148]	@ 0x94
 80063ee:	4413      	add	r3, r2
 80063f0:	0fd2      	lsrs	r2, r2, #31
 80063f2:	4293      	cmp	r3, r2
 80063f4:	bfb8      	it	lt
 80063f6:	4613      	movlt	r3, r2
 80063f8:	4599      	cmp	r9, r3
 80063fa:	bfa8      	it	ge
 80063fc:	4699      	movge	r9, r3
 80063fe:	e739      	b.n	8006274 <__dtoa_engine+0x15c>
 8006400:	210a      	movs	r1, #10
 8006402:	2200      	movs	r2, #0
 8006404:	2301      	movs	r3, #1
 8006406:	4608      	mov	r0, r1
 8006408:	e7e8      	b.n	80063dc <__dtoa_engine+0x2c4>
 800640a:	fb0b fe01 	mul.w	lr, fp, r1
 800640e:	fba0 010b 	umull	r0, r1, r0, fp
 8006412:	f10c 0c01 	add.w	ip, ip, #1
 8006416:	4471      	add	r1, lr
 8006418:	4284      	cmp	r4, r0
 800641a:	eb75 0e01 	sbcs.w	lr, r5, r1
 800641e:	d2f4      	bcs.n	800640a <__dtoa_engine+0x2f2>
 8006420:	45cc      	cmp	ip, r9
 8006422:	dd0d      	ble.n	8006440 <__dtoa_engine+0x328>
 8006424:	f1b9 0f00 	cmp.w	r9, #0
 8006428:	d102      	bne.n	8006430 <__dtoa_engine+0x318>
 800642a:	ea54 0105 	orrs.w	r1, r4, r5
 800642e:	d007      	beq.n	8006440 <__dtoa_engine+0x328>
 8006430:	2301      	movs	r3, #1
 8006432:	9309      	str	r3, [sp, #36]	@ 0x24
 8006434:	e73b      	b.n	80062ae <__dtoa_engine+0x196>
 8006436:	200a      	movs	r0, #10
 8006438:	2100      	movs	r1, #0
 800643a:	f04f 0c01 	mov.w	ip, #1
 800643e:	e7eb      	b.n	8006418 <__dtoa_engine+0x300>
 8006440:	2f00      	cmp	r7, #0
 8006442:	d031      	beq.n	80064a8 <__dtoa_engine+0x390>
 8006444:	f04f 0b0a 	mov.w	fp, #10
 8006448:	4650      	mov	r0, sl
 800644a:	4619      	mov	r1, r3
 800644c:	f7ff fe50 	bl	80060f0 <div10>
 8006450:	fb0b f200 	mul.w	r2, fp, r0
 8006454:	4552      	cmp	r2, sl
 8006456:	910b      	str	r1, [sp, #44]	@ 0x2c
 8006458:	900e      	str	r0, [sp, #56]	@ 0x38
 800645a:	d125      	bne.n	80064a8 <__dtoa_engine+0x390>
 800645c:	e9dd 0110 	ldrd	r0, r1, [sp, #64]	@ 0x40
 8006460:	f7ff fe46 	bl	80060f0 <div10>
 8006464:	468a      	mov	sl, r1
 8006466:	900d      	str	r0, [sp, #52]	@ 0x34
 8006468:	4629      	mov	r1, r5
 800646a:	4620      	mov	r0, r4
 800646c:	f7ff fe40 	bl	80060f0 <div10>
 8006470:	9a0d      	ldr	r2, [sp, #52]	@ 0x34
 8006472:	2e00      	cmp	r6, #0
 8006474:	bf14      	ite	ne
 8006476:	f04f 0800 	movne.w	r8, #0
 800647a:	f008 0801 	andeq.w	r8, r8, #1
 800647e:	e9cd 2a10 	strd	r2, sl, [sp, #64]	@ 0x40
 8006482:	9a0b      	ldr	r2, [sp, #44]	@ 0x2c
 8006484:	fb0b 4610 	mls	r6, fp, r0, r4
 8006488:	9213      	str	r2, [sp, #76]	@ 0x4c
 800648a:	9a06      	ldr	r2, [sp, #24]
 800648c:	9b0e      	ldr	r3, [sp, #56]	@ 0x38
 800648e:	3201      	adds	r2, #1
 8006490:	469a      	mov	sl, r3
 8006492:	9312      	str	r3, [sp, #72]	@ 0x48
 8006494:	4604      	mov	r4, r0
 8006496:	460d      	mov	r5, r1
 8006498:	9b0b      	ldr	r3, [sp, #44]	@ 0x2c
 800649a:	b2f6      	uxtb	r6, r6
 800649c:	9206      	str	r2, [sp, #24]
 800649e:	e7d3      	b.n	8006448 <__dtoa_engine+0x330>
 80064a0:	cccccccd 	.word	0xcccccccd
 80064a4:	fffffbcc 	.word	0xfffffbcc
 80064a8:	f1b8 0f00 	cmp.w	r8, #0
 80064ac:	d005      	beq.n	80064ba <__dtoa_engine+0x3a2>
 80064ae:	2e05      	cmp	r6, #5
 80064b0:	d103      	bne.n	80064ba <__dtoa_engine+0x3a2>
 80064b2:	f004 0601 	and.w	r6, r4, #1
 80064b6:	3604      	adds	r6, #4
 80064b8:	b2f6      	uxtb	r6, r6
 80064ba:	9b06      	ldr	r3, [sp, #24]
 80064bc:	f8dd 8010 	ldr.w	r8, [sp, #16]
 80064c0:	4498      	add	r8, r3
 80064c2:	9b09      	ldr	r3, [sp, #36]	@ 0x24
 80064c4:	b953      	cbnz	r3, 80064dc <__dtoa_engine+0x3c4>
 80064c6:	e9dd 2312 	ldrd	r2, r3, [sp, #72]	@ 0x48
 80064ca:	429d      	cmp	r5, r3
 80064cc:	bf08      	it	eq
 80064ce:	4294      	cmpeq	r4, r2
 80064d0:	d104      	bne.n	80064dc <__dtoa_engine+0x3c4>
 80064d2:	9b08      	ldr	r3, [sp, #32]
 80064d4:	2b00      	cmp	r3, #0
 80064d6:	d148      	bne.n	800656a <__dtoa_engine+0x452>
 80064d8:	2f00      	cmp	r7, #0
 80064da:	d046      	beq.n	800656a <__dtoa_engine+0x452>
 80064dc:	2e04      	cmp	r6, #4
 80064de:	bf94      	ite	ls
 80064e0:	2600      	movls	r6, #0
 80064e2:	2601      	movhi	r6, #1
 80064e4:	220a      	movs	r2, #10
 80064e6:	1930      	adds	r0, r6, r4
 80064e8:	f04f 0300 	mov.w	r3, #0
 80064ec:	f04f 0701 	mov.w	r7, #1
 80064f0:	4614      	mov	r4, r2
 80064f2:	f145 0100 	adc.w	r1, r5, #0
 80064f6:	4290      	cmp	r0, r2
 80064f8:	eb71 0503 	sbcs.w	r5, r1, r3
 80064fc:	d237      	bcs.n	800656e <__dtoa_engine+0x456>
 80064fe:	b1ee      	cbz	r6, 800653c <__dtoa_engine+0x424>
 8006500:	45b9      	cmp	r9, r7
 8006502:	da1b      	bge.n	800653c <__dtoa_engine+0x424>
 8006504:	9b0c      	ldr	r3, [sp, #48]	@ 0x30
 8006506:	b16b      	cbz	r3, 8006524 <__dtoa_engine+0x40c>
 8006508:	9a25      	ldr	r2, [sp, #148]	@ 0x94
 800650a:	eb08 0307 	add.w	r3, r8, r7
 800650e:	4413      	add	r3, r2
 8006510:	2b01      	cmp	r3, #1
 8006512:	bfb8      	it	lt
 8006514:	2301      	movlt	r3, #1
 8006516:	f8dd 9028 	ldr.w	r9, [sp, #40]	@ 0x28
 800651a:	4599      	cmp	r9, r3
 800651c:	bfa8      	it	ge
 800651e:	4699      	movge	r9, r3
 8006520:	454f      	cmp	r7, r9
 8006522:	dd0b      	ble.n	800653c <__dtoa_engine+0x424>
 8006524:	3005      	adds	r0, #5
 8006526:	f04f 020a 	mov.w	r2, #10
 800652a:	f04f 0300 	mov.w	r3, #0
 800652e:	f141 0100 	adc.w	r1, r1, #0
 8006532:	f000 fcc1 	bl	8006eb8 <__aeabi_uldivmod>
 8006536:	f108 0801 	add.w	r8, r8, #1
 800653a:	3f01      	subs	r7, #1
 800653c:	454f      	cmp	r7, r9
 800653e:	bfa8      	it	ge
 8006540:	464f      	movge	r7, r9
 8006542:	f04f 0900 	mov.w	r9, #0
 8006546:	b23f      	sxth	r7, r7
 8006548:	fa0f f888 	sxth.w	r8, r8
 800654c:	44b8      	add	r8, r7
 800654e:	9b05      	ldr	r3, [sp, #20]
 8006550:	f108 36ff 	add.w	r6, r8, #4294967295	@ 0xffffffff
 8006554:	f107 0805 	add.w	r8, r7, #5
 8006558:	4498      	add	r8, r3
 800655a:	45b9      	cmp	r9, r7
 800655c:	db0e      	blt.n	800657c <__dtoa_engine+0x464>
 800655e:	9b05      	ldr	r3, [sp, #20]
 8006560:	461a      	mov	r2, r3
 8006562:	601e      	str	r6, [r3, #0]
 8006564:	9b07      	ldr	r3, [sp, #28]
 8006566:	7113      	strb	r3, [r2, #4]
 8006568:	e5f3      	b.n	8006152 <__dtoa_engine+0x3a>
 800656a:	2601      	movs	r6, #1
 800656c:	e7ba      	b.n	80064e4 <__dtoa_engine+0x3cc>
 800656e:	fb04 f503 	mul.w	r5, r4, r3
 8006572:	fba2 2304 	umull	r2, r3, r2, r4
 8006576:	3701      	adds	r7, #1
 8006578:	442b      	add	r3, r5
 800657a:	e7bc      	b.n	80064f6 <__dtoa_engine+0x3de>
 800657c:	220a      	movs	r2, #10
 800657e:	2300      	movs	r3, #0
 8006580:	f000 fc9a 	bl	8006eb8 <__aeabi_uldivmod>
 8006584:	3230      	adds	r2, #48	@ 0x30
 8006586:	f808 2d01 	strb.w	r2, [r8, #-1]!
 800658a:	f109 0901 	add.w	r9, r9, #1
 800658e:	e7e4      	b.n	800655a <__dtoa_engine+0x442>

08006590 <__log10Pow2>:
 8006590:	4b01      	ldr	r3, [pc, #4]	@ (8006598 <__log10Pow2+0x8>)
 8006592:	4358      	muls	r0, r3
 8006594:	0c80      	lsrs	r0, r0, #18
 8006596:	4770      	bx	lr
 8006598:	00013441 	.word	0x00013441

0800659c <__log10Pow5>:
 800659c:	4b01      	ldr	r3, [pc, #4]	@ (80065a4 <__log10Pow5+0x8>)
 800659e:	4358      	muls	r0, r3
 80065a0:	0d00      	lsrs	r0, r0, #20
 80065a2:	4770      	bx	lr
 80065a4:	000b2efb 	.word	0x000b2efb

080065a8 <__pow5bits>:
 80065a8:	4b02      	ldr	r3, [pc, #8]	@ (80065b4 <__pow5bits+0xc>)
 80065aa:	4358      	muls	r0, r3
 80065ac:	0cc0      	lsrs	r0, r0, #19
 80065ae:	3001      	adds	r0, #1
 80065b0:	4770      	bx	lr
 80065b2:	bf00      	nop
 80065b4:	0012934f 	.word	0x0012934f

080065b8 <__pow5Factor>:
 80065b8:	b570      	push	{r4, r5, r6, lr}
 80065ba:	4603      	mov	r3, r0
 80065bc:	f04f 36cc 	mov.w	r6, #3435973836	@ 0xcccccccc
 80065c0:	2000      	movs	r0, #0
 80065c2:	f04f 3533 	mov.w	r5, #858993459	@ 0x33333333
 80065c6:	4a07      	ldr	r2, [pc, #28]	@ (80065e4 <__pow5Factor+0x2c>)
 80065c8:	fb06 f403 	mul.w	r4, r6, r3
 80065cc:	fb02 4401 	mla	r4, r2, r1, r4
 80065d0:	fba3 3102 	umull	r3, r1, r3, r2
 80065d4:	4421      	add	r1, r4
 80065d6:	429d      	cmp	r5, r3
 80065d8:	eb75 0401 	sbcs.w	r4, r5, r1
 80065dc:	d301      	bcc.n	80065e2 <__pow5Factor+0x2a>
 80065de:	3001      	adds	r0, #1
 80065e0:	e7f2      	b.n	80065c8 <__pow5Factor+0x10>
 80065e2:	bd70      	pop	{r4, r5, r6, pc}
 80065e4:	cccccccd 	.word	0xcccccccd

080065e8 <__double_computePow5>:
 80065e8:	231a      	movs	r3, #26
 80065ea:	e92d 4ff0 	stmdb	sp!, {r4, r5, r6, r7, r8, r9, sl, fp, lr}
 80065ee:	fbb0 fbf3 	udiv	fp, r0, r3
 80065f2:	fb03 031b 	mls	r3, r3, fp, r0
 80065f6:	4e34      	ldr	r6, [pc, #208]	@ (80066c8 <__double_computePow5+0xe0>)
 80065f8:	4604      	mov	r4, r0
 80065fa:	460d      	mov	r5, r1
 80065fc:	b089      	sub	sp, #36	@ 0x24
 80065fe:	eb06 170b 	add.w	r7, r6, fp, lsl #4
 8006602:	b953      	cbnz	r3, 800661a <__double_computePow5+0x32>
 8006604:	e9d7 2300 	ldrd	r2, r3, [r7]
 8006608:	e9c1 2300 	strd	r2, r3, [r1]
 800660c:	e9d7 0102 	ldrd	r0, r1, [r7, #8]
 8006610:	e9c5 0102 	strd	r0, r1, [r5, #8]
 8006614:	b009      	add	sp, #36	@ 0x24
 8006616:	e8bd 8ff0 	ldmia.w	sp!, {r4, r5, r6, r7, r8, r9, sl, fp, pc}
 800661a:	eb06 03c3 	add.w	r3, r6, r3, lsl #3
 800661e:	e9d3 8934 	ldrd	r8, r9, [r3, #208]	@ 0xd0
 8006622:	ab04      	add	r3, sp, #16
 8006624:	9300      	str	r3, [sp, #0]
 8006626:	e9d7 2302 	ldrd	r2, r3, [r7, #8]
 800662a:	4640      	mov	r0, r8
 800662c:	4649      	mov	r1, r9
 800662e:	f000 f8c9 	bl	80067c4 <__umul128>
 8006632:	ab06      	add	r3, sp, #24
 8006634:	9300      	str	r3, [sp, #0]
 8006636:	e9d7 2300 	ldrd	r2, r3, [r7]
 800663a:	4682      	mov	sl, r0
 800663c:	9103      	str	r1, [sp, #12]
 800663e:	4640      	mov	r0, r8
 8006640:	4649      	mov	r1, r9
 8006642:	f000 f8bf 	bl	80067c4 <__umul128>
 8006646:	e9dd 7206 	ldrd	r7, r2, [sp, #24]
 800664a:	4680      	mov	r8, r0
 800664c:	9803      	ldr	r0, [sp, #12]
 800664e:	eb17 070a 	adds.w	r7, r7, sl
 8006652:	eb52 0900 	adcs.w	r9, r2, r0
 8006656:	f04f 0300 	mov.w	r3, #0
 800665a:	bf28      	it	cs
 800665c:	2301      	movcs	r3, #1
 800665e:	b133      	cbz	r3, 800666e <__double_computePow5+0x86>
 8006660:	9b04      	ldr	r3, [sp, #16]
 8006662:	9a05      	ldr	r2, [sp, #20]
 8006664:	3301      	adds	r3, #1
 8006666:	f142 0200 	adc.w	r2, r2, #0
 800666a:	e9cd 3204 	strd	r3, r2, [sp, #16]
 800666e:	4620      	mov	r0, r4
 8006670:	9103      	str	r1, [sp, #12]
 8006672:	f7ff ff99 	bl	80065a8 <__pow5bits>
 8006676:	4682      	mov	sl, r0
 8006678:	201a      	movs	r0, #26
 800667a:	fb00 f00b 	mul.w	r0, r0, fp
 800667e:	f7ff ff93 	bl	80065a8 <__pow5bits>
 8006682:	ebaa 0a00 	sub.w	sl, sl, r0
 8006686:	463a      	mov	r2, r7
 8006688:	464b      	mov	r3, r9
 800668a:	4640      	mov	r0, r8
 800668c:	9903      	ldr	r1, [sp, #12]
 800668e:	f8cd a000 	str.w	sl, [sp]
 8006692:	f000 f8ae 	bl	80067f2 <__shiftright128>
 8006696:	0923      	lsrs	r3, r4, #4
 8006698:	eb06 0683 	add.w	r6, r6, r3, lsl #2
 800669c:	0064      	lsls	r4, r4, #1
 800669e:	f004 031e 	and.w	r3, r4, #30
 80066a2:	f8d6 41a0 	ldr.w	r4, [r6, #416]	@ 0x1a0
 80066a6:	40dc      	lsrs	r4, r3
 80066a8:	f004 0403 	and.w	r4, r4, #3
 80066ac:	1824      	adds	r4, r4, r0
 80066ae:	f141 0100 	adc.w	r1, r1, #0
 80066b2:	e9c5 4100 	strd	r4, r1, [r5]
 80066b6:	e9dd 2304 	ldrd	r2, r3, [sp, #16]
 80066ba:	4638      	mov	r0, r7
 80066bc:	4649      	mov	r1, r9
 80066be:	f8cd a000 	str.w	sl, [sp]
 80066c2:	f000 f896 	bl	80067f2 <__shiftright128>
 80066c6:	e7a3      	b.n	8006610 <__double_computePow5+0x28>
 80066c8:	08008528 	.word	0x08008528

080066cc <__double_computeInvPow5>:
 80066cc:	e92d 4ff0 	stmdb	sp!, {r4, r5, r6, r7, r8, r9, sl, fp, lr}
 80066d0:	271a      	movs	r7, #26
 80066d2:	f100 0519 	add.w	r5, r0, #25
 80066d6:	fbb5 f5f7 	udiv	r5, r5, r7
 80066da:	436f      	muls	r7, r5
 80066dc:	f8df 80e0 	ldr.w	r8, [pc, #224]	@ 80067c0 <__double_computeInvPow5+0xf4>
 80066e0:	012b      	lsls	r3, r5, #4
 80066e2:	b08b      	sub	sp, #44	@ 0x2c
 80066e4:	f508 7bfc 	add.w	fp, r8, #504	@ 0x1f8
 80066e8:	9305      	str	r3, [sp, #20]
 80066ea:	1a3b      	subs	r3, r7, r0
 80066ec:	4604      	mov	r4, r0
 80066ee:	460e      	mov	r6, r1
 80066f0:	eb0b 1505 	add.w	r5, fp, r5, lsl #4
 80066f4:	d10a      	bne.n	800670c <__double_computeInvPow5+0x40>
 80066f6:	e9d5 2300 	ldrd	r2, r3, [r5]
 80066fa:	e9c1 2300 	strd	r2, r3, [r1]
 80066fe:	e9d5 0102 	ldrd	r0, r1, [r5, #8]
 8006702:	e9c6 0102 	strd	r0, r1, [r6, #8]
 8006706:	b00b      	add	sp, #44	@ 0x2c
 8006708:	e8bd 8ff0 	ldmia.w	sp!, {r4, r5, r6, r7, r8, r9, sl, fp, pc}
 800670c:	eb08 03c3 	add.w	r3, r8, r3, lsl #3
 8006710:	e9d3 2334 	ldrd	r2, r3, [r3, #208]	@ 0xd0
 8006714:	e9cd 2302 	strd	r2, r3, [sp, #8]
 8006718:	e9dd 0102 	ldrd	r0, r1, [sp, #8]
 800671c:	ab06      	add	r3, sp, #24
 800671e:	9300      	str	r3, [sp, #0]
 8006720:	e9d5 2302 	ldrd	r2, r3, [r5, #8]
 8006724:	f000 f84e 	bl	80067c4 <__umul128>
 8006728:	4682      	mov	sl, r0
 800672a:	4689      	mov	r9, r1
 800672c:	9b05      	ldr	r3, [sp, #20]
 800672e:	a908      	add	r1, sp, #32
 8006730:	f85b 2003 	ldr.w	r2, [fp, r3]
 8006734:	686b      	ldr	r3, [r5, #4]
 8006736:	3a01      	subs	r2, #1
 8006738:	f163 0300 	sbc.w	r3, r3, #0
 800673c:	9100      	str	r1, [sp, #0]
 800673e:	e9dd 0102 	ldrd	r0, r1, [sp, #8]
 8006742:	f000 f83f 	bl	80067c4 <__umul128>
 8006746:	e9dd 5208 	ldrd	r5, r2, [sp, #32]
 800674a:	eb15 050a 	adds.w	r5, r5, sl
 800674e:	eb52 0909 	adcs.w	r9, r2, r9
 8006752:	f04f 0300 	mov.w	r3, #0
 8006756:	bf28      	it	cs
 8006758:	2301      	movcs	r3, #1
 800675a:	4683      	mov	fp, r0
 800675c:	b133      	cbz	r3, 800676c <__double_computeInvPow5+0xa0>
 800675e:	9b06      	ldr	r3, [sp, #24]
 8006760:	9a07      	ldr	r2, [sp, #28]
 8006762:	3301      	adds	r3, #1
 8006764:	f142 0200 	adc.w	r2, r2, #0
 8006768:	e9cd 3206 	strd	r3, r2, [sp, #24]
 800676c:	4638      	mov	r0, r7
 800676e:	9102      	str	r1, [sp, #8]
 8006770:	f7ff ff1a 	bl	80065a8 <__pow5bits>
 8006774:	4607      	mov	r7, r0
 8006776:	4620      	mov	r0, r4
 8006778:	f7ff ff16 	bl	80065a8 <__pow5bits>
 800677c:	1a3f      	subs	r7, r7, r0
 800677e:	462a      	mov	r2, r5
 8006780:	464b      	mov	r3, r9
 8006782:	4658      	mov	r0, fp
 8006784:	9902      	ldr	r1, [sp, #8]
 8006786:	9700      	str	r7, [sp, #0]
 8006788:	f000 f833 	bl	80067f2 <__shiftright128>
 800678c:	0923      	lsrs	r3, r4, #4
 800678e:	eb08 0883 	add.w	r8, r8, r3, lsl #2
 8006792:	0064      	lsls	r4, r4, #1
 8006794:	f004 031e 	and.w	r3, r4, #30
 8006798:	f8d8 42e8 	ldr.w	r4, [r8, #744]	@ 0x2e8
 800679c:	40dc      	lsrs	r4, r3
 800679e:	f004 0403 	and.w	r4, r4, #3
 80067a2:	3401      	adds	r4, #1
 80067a4:	1824      	adds	r4, r4, r0
 80067a6:	f141 0100 	adc.w	r1, r1, #0
 80067aa:	e9c6 4100 	strd	r4, r1, [r6]
 80067ae:	e9dd 2306 	ldrd	r2, r3, [sp, #24]
 80067b2:	4628      	mov	r0, r5
 80067b4:	4649      	mov	r1, r9
 80067b6:	9700      	str	r7, [sp, #0]
 80067b8:	f000 f81b 	bl	80067f2 <__shiftright128>
 80067bc:	e7a1      	b.n	8006702 <__double_computeInvPow5+0x36>
 80067be:	bf00      	nop
 80067c0:	08008528 	.word	0x08008528

080067c4 <__umul128>:
 80067c4:	b5f0      	push	{r4, r5, r6, r7, lr}
 80067c6:	2400      	movs	r4, #0
 80067c8:	460d      	mov	r5, r1
 80067ca:	4606      	mov	r6, r0
 80067cc:	4694      	mov	ip, r2
 80067ce:	fba0 0102 	umull	r0, r1, r0, r2
 80067d2:	4622      	mov	r2, r4
 80067d4:	fbe5 120c 	umlal	r1, r2, r5, ip
 80067d8:	46a4      	mov	ip, r4
 80067da:	fbe5 2403 	umlal	r2, r4, r5, r3
 80067de:	fbe3 1c06 	umlal	r1, ip, r3, r6
 80067e2:	9f05      	ldr	r7, [sp, #20]
 80067e4:	eb12 020c 	adds.w	r2, r2, ip
 80067e8:	f144 0400 	adc.w	r4, r4, #0
 80067ec:	e9c7 2400 	strd	r2, r4, [r7]
 80067f0:	bdf0      	pop	{r4, r5, r6, r7, pc}

080067f2 <__shiftright128>:
 80067f2:	b5f0      	push	{r4, r5, r6, r7, lr}
 80067f4:	9c05      	ldr	r4, [sp, #20]
 80067f6:	f1c4 0740 	rsb	r7, r4, #64	@ 0x40
 80067fa:	f1c4 0620 	rsb	r6, r4, #32
 80067fe:	fa02 f606 	lsl.w	r6, r2, r6
 8006802:	f1a4 0520 	sub.w	r5, r4, #32
 8006806:	40bb      	lsls	r3, r7
 8006808:	fa22 f505 	lsr.w	r5, r2, r5
 800680c:	4333      	orrs	r3, r6
 800680e:	f1c4 0620 	rsb	r6, r4, #32
 8006812:	432b      	orrs	r3, r5
 8006814:	fa01 f606 	lsl.w	r6, r1, r6
 8006818:	f1a4 0520 	sub.w	r5, r4, #32
 800681c:	40e0      	lsrs	r0, r4
 800681e:	fa21 f505 	lsr.w	r5, r1, r5
 8006822:	4330      	orrs	r0, r6
 8006824:	40ba      	lsls	r2, r7
 8006826:	4328      	orrs	r0, r5
 8006828:	40e1      	lsrs	r1, r4
 800682a:	4310      	orrs	r0, r2
 800682c:	4319      	orrs	r1, r3
 800682e:	bdf0      	pop	{r4, r5, r6, r7, pc}

08006830 <roundf>:
 8006830:	f3c0 53c7 	ubfx	r3, r0, #23, #8
 8006834:	3b7f      	subs	r3, #127	@ 0x7f
 8006836:	2b16      	cmp	r3, #22
 8006838:	4601      	mov	r1, r0
 800683a:	b510      	push	{r4, lr}
 800683c:	dc14      	bgt.n	8006868 <roundf+0x38>
 800683e:	2b00      	cmp	r3, #0
 8006840:	da07      	bge.n	8006852 <roundf+0x22>
 8006842:	3301      	adds	r3, #1
 8006844:	f000 4100 	and.w	r1, r0, #2147483648	@ 0x80000000
 8006848:	d101      	bne.n	800684e <roundf+0x1e>
 800684a:	f041 517e 	orr.w	r1, r1, #1065353216	@ 0x3f800000
 800684e:	4608      	mov	r0, r1
 8006850:	bd10      	pop	{r4, pc}
 8006852:	4a08      	ldr	r2, [pc, #32]	@ (8006874 <roundf+0x44>)
 8006854:	411a      	asrs	r2, r3
 8006856:	4202      	tst	r2, r0
 8006858:	d0f9      	beq.n	800684e <roundf+0x1e>
 800685a:	f44f 0180 	mov.w	r1, #4194304	@ 0x400000
 800685e:	4119      	asrs	r1, r3
 8006860:	4401      	add	r1, r0
 8006862:	ea21 0102 	bic.w	r1, r1, r2
 8006866:	e7f2      	b.n	800684e <roundf+0x1e>
 8006868:	2b80      	cmp	r3, #128	@ 0x80
 800686a:	d1f0      	bne.n	800684e <roundf+0x1e>
 800686c:	f7fe f86c 	bl	8004948 <__addsf3>
 8006870:	4601      	mov	r1, r0
 8006872:	e7ec      	b.n	800684e <roundf+0x1e>
 8006874:	007fffff 	.word	0x007fffff

08006878 <strcpy>:
 8006878:	4603      	mov	r3, r0
 800687a:	f811 2b01 	ldrb.w	r2, [r1], #1
 800687e:	f803 2b01 	strb.w	r2, [r3], #1
 8006882:	2a00      	cmp	r2, #0
 8006884:	d1f9      	bne.n	800687a <strcpy+0x2>
 8006886:	4770      	bx	lr

08006888 <raise>:
 8006888:	281f      	cmp	r0, #31
 800688a:	b510      	push	{r4, lr}
 800688c:	d905      	bls.n	800689a <raise+0x12>
 800688e:	2216      	movs	r2, #22
 8006890:	f04f 30ff 	mov.w	r0, #4294967295	@ 0xffffffff
 8006894:	4b11      	ldr	r3, [pc, #68]	@ (80068dc <raise+0x54>)
 8006896:	601a      	str	r2, [r3, #0]
 8006898:	bd10      	pop	{r4, pc}
 800689a:	4b11      	ldr	r3, [pc, #68]	@ (80068e0 <raise+0x58>)
 800689c:	eb03 0380 	add.w	r3, r3, r0, lsl #2
 80068a0:	f3bf 8f5b 	dmb	ish
 80068a4:	681a      	ldr	r2, [r3, #0]
 80068a6:	f3bf 8f5b 	dmb	ish
 80068aa:	2a01      	cmp	r2, #1
 80068ac:	d101      	bne.n	80068b2 <raise+0x2a>
 80068ae:	2000      	movs	r0, #0
 80068b0:	e7f2      	b.n	8006898 <raise+0x10>
 80068b2:	b912      	cbnz	r2, 80068ba <raise+0x32>
 80068b4:	3080      	adds	r0, #128	@ 0x80
 80068b6:	f7f9 fbef 	bl	8000098 <_exit>
 80068ba:	2400      	movs	r4, #0
 80068bc:	f3bf 8f5b 	dmb	ish
 80068c0:	e853 1f00 	ldrex	r1, [r3]
 80068c4:	4291      	cmp	r1, r2
 80068c6:	d104      	bne.n	80068d2 <raise+0x4a>
 80068c8:	e843 4c00 	strex	ip, r4, [r3]
 80068cc:	f1bc 0f00 	cmp.w	ip, #0
 80068d0:	d1f6      	bne.n	80068c0 <raise+0x38>
 80068d2:	f3bf 8f5b 	dmb	ish
 80068d6:	d1e3      	bne.n	80068a0 <raise+0x18>
 80068d8:	4788      	blx	r1
 80068da:	e7e8      	b.n	80068ae <raise+0x26>
 80068dc:	200001d0 	.word	0x200001d0
 80068e0:	20000358 	.word	0x20000358

080068e4 <_strerror_r>:
 80068e4:	b508      	push	{r3, lr}
 80068e6:	288f      	cmp	r0, #143	@ 0x8f
 80068e8:	f200 814e 	bhi.w	8006b88 <_strerror_r+0x2a4>
 80068ec:	e8df f010 	tbh	[pc, r0, lsl #1]
 80068f0:	01590090 	.word	0x01590090
 80068f4:	00940092 	.word	0x00940092
 80068f8:	00980096 	.word	0x00980096
 80068fc:	009c009a 	.word	0x009c009a
 8006900:	00a2009e 	.word	0x00a2009e
 8006904:	00a800a4 	.word	0x00a800a4
 8006908:	00ac00aa 	.word	0x00ac00aa
 800690c:	00b000ae 	.word	0x00b000ae
 8006910:	00b400b2 	.word	0x00b400b2
 8006914:	00b800b6 	.word	0x00b800b6
 8006918:	00c000ba 	.word	0x00c000ba
 800691c:	00c800c2 	.word	0x00c800c2
 8006920:	00cc00ca 	.word	0x00cc00ca
 8006924:	00d000ce 	.word	0x00d000ce
 8006928:	00d800d4 	.word	0x00d800d4
 800692c:	00dc00da 	.word	0x00dc00da
 8006930:	00e000de 	.word	0x00e000de
 8006934:	00e400e2 	.word	0x00e400e2
 8006938:	014c00e6 	.word	0x014c00e6
 800693c:	014c014c 	.word	0x014c014c
 8006940:	014c014c 	.word	0x014c014c
 8006944:	014c014c 	.word	0x014c014c
 8006948:	00ea014c 	.word	0x00ea014c
 800694c:	014c00ee 	.word	0x014c00ee
 8006950:	014c014c 	.word	0x014c014c
 8006954:	014c014c 	.word	0x014c014c
 8006958:	014c014c 	.word	0x014c014c
 800695c:	014c014c 	.word	0x014c014c
 8006960:	014c014c 	.word	0x014c014c
 8006964:	014c014c 	.word	0x014c014c
 8006968:	012000f0 	.word	0x012000f0
 800696c:	00f400f2 	.word	0x00f400f2
 8006970:	00f800f6 	.word	0x00f800f6
 8006974:	00fc00fa 	.word	0x00fc00fa
 8006978:	010000fe 	.word	0x010000fe
 800697c:	01040102 	.word	0x01040102
 8006980:	014c014c 	.word	0x014c014c
 8006984:	014c0108 	.word	0x014c0108
 8006988:	010a014c 	.word	0x010a014c
 800698c:	014c014c 	.word	0x014c014c
 8006990:	014c014c 	.word	0x014c014c
 8006994:	010c014c 	.word	0x010c014c
 8006998:	0110010e 	.word	0x0110010e
 800699c:	01140112 	.word	0x01140112
 80069a0:	014c0116 	.word	0x014c0116
 80069a4:	011a0118 	.word	0x011a0118
 80069a8:	014c011c 	.word	0x014c011c
 80069ac:	0144014c 	.word	0x0144014c
 80069b0:	014c014c 	.word	0x014c014c
 80069b4:	014c014c 	.word	0x014c014c
 80069b8:	014c014c 	.word	0x014c014c
 80069bc:	014c014c 	.word	0x014c014c
 80069c0:	011e012e 	.word	0x011e012e
 80069c4:	01240122 	.word	0x01240122
 80069c8:	01280126 	.word	0x01280126
 80069cc:	012c012a 	.word	0x012c012a
 80069d0:	01340130 	.word	0x01340130
 80069d4:	00c400ec 	.word	0x00c400ec
 80069d8:	00bc014a 	.word	0x00bc014a
 80069dc:	00be00d2 	.word	0x00be00d2
 80069e0:	00a600a0 	.word	0x00a600a0
 80069e4:	01060148 	.word	0x01060148
 80069e8:	01320138 	.word	0x01320138
 80069ec:	013a00c6 	.word	0x013a00c6
 80069f0:	014c0136 	.word	0x014c0136
 80069f4:	014c014c 	.word	0x014c014c
 80069f8:	014c014c 	.word	0x014c014c
 80069fc:	014c00d6 	.word	0x014c00d6
 8006a00:	014c014c 	.word	0x014c014c
 8006a04:	014600e8 	.word	0x014600e8
 8006a08:	013e013c 	.word	0x013e013c
 8006a0c:	01420140 	.word	0x01420140
 8006a10:	4865      	ldr	r0, [pc, #404]	@ (8006ba8 <_strerror_r+0x2c4>)
 8006a12:	bd08      	pop	{r3, pc}
 8006a14:	4865      	ldr	r0, [pc, #404]	@ (8006bac <_strerror_r+0x2c8>)
 8006a16:	e7fc      	b.n	8006a12 <_strerror_r+0x12e>
 8006a18:	4865      	ldr	r0, [pc, #404]	@ (8006bb0 <_strerror_r+0x2cc>)
 8006a1a:	e7fa      	b.n	8006a12 <_strerror_r+0x12e>
 8006a1c:	4865      	ldr	r0, [pc, #404]	@ (8006bb4 <_strerror_r+0x2d0>)
 8006a1e:	e7f8      	b.n	8006a12 <_strerror_r+0x12e>
 8006a20:	4865      	ldr	r0, [pc, #404]	@ (8006bb8 <_strerror_r+0x2d4>)
 8006a22:	e7f6      	b.n	8006a12 <_strerror_r+0x12e>
 8006a24:	4865      	ldr	r0, [pc, #404]	@ (8006bbc <_strerror_r+0x2d8>)
 8006a26:	e7f4      	b.n	8006a12 <_strerror_r+0x12e>
 8006a28:	4865      	ldr	r0, [pc, #404]	@ (8006bc0 <_strerror_r+0x2dc>)
 8006a2a:	e7f2      	b.n	8006a12 <_strerror_r+0x12e>
 8006a2c:	4865      	ldr	r0, [pc, #404]	@ (8006bc4 <_strerror_r+0x2e0>)
 8006a2e:	e7f0      	b.n	8006a12 <_strerror_r+0x12e>
 8006a30:	4865      	ldr	r0, [pc, #404]	@ (8006bc8 <_strerror_r+0x2e4>)
 8006a32:	e7ee      	b.n	8006a12 <_strerror_r+0x12e>
 8006a34:	4865      	ldr	r0, [pc, #404]	@ (8006bcc <_strerror_r+0x2e8>)
 8006a36:	e7ec      	b.n	8006a12 <_strerror_r+0x12e>
 8006a38:	4865      	ldr	r0, [pc, #404]	@ (8006bd0 <_strerror_r+0x2ec>)
 8006a3a:	e7ea      	b.n	8006a12 <_strerror_r+0x12e>
 8006a3c:	4865      	ldr	r0, [pc, #404]	@ (8006bd4 <_strerror_r+0x2f0>)
 8006a3e:	e7e8      	b.n	8006a12 <_strerror_r+0x12e>
 8006a40:	4865      	ldr	r0, [pc, #404]	@ (8006bd8 <_strerror_r+0x2f4>)
 8006a42:	e7e6      	b.n	8006a12 <_strerror_r+0x12e>
 8006a44:	4865      	ldr	r0, [pc, #404]	@ (8006bdc <_strerror_r+0x2f8>)
 8006a46:	e7e4      	b.n	8006a12 <_strerror_r+0x12e>
 8006a48:	4865      	ldr	r0, [pc, #404]	@ (8006be0 <_strerror_r+0x2fc>)
 8006a4a:	e7e2      	b.n	8006a12 <_strerror_r+0x12e>
 8006a4c:	4865      	ldr	r0, [pc, #404]	@ (8006be4 <_strerror_r+0x300>)
 8006a4e:	e7e0      	b.n	8006a12 <_strerror_r+0x12e>
 8006a50:	4865      	ldr	r0, [pc, #404]	@ (8006be8 <_strerror_r+0x304>)
 8006a52:	e7de      	b.n	8006a12 <_strerror_r+0x12e>
 8006a54:	4865      	ldr	r0, [pc, #404]	@ (8006bec <_strerror_r+0x308>)
 8006a56:	e7dc      	b.n	8006a12 <_strerror_r+0x12e>
 8006a58:	4865      	ldr	r0, [pc, #404]	@ (8006bf0 <_strerror_r+0x30c>)
 8006a5a:	e7da      	b.n	8006a12 <_strerror_r+0x12e>
 8006a5c:	4865      	ldr	r0, [pc, #404]	@ (8006bf4 <_strerror_r+0x310>)
 8006a5e:	e7d8      	b.n	8006a12 <_strerror_r+0x12e>
 8006a60:	4865      	ldr	r0, [pc, #404]	@ (8006bf8 <_strerror_r+0x314>)
 8006a62:	e7d6      	b.n	8006a12 <_strerror_r+0x12e>
 8006a64:	4865      	ldr	r0, [pc, #404]	@ (8006bfc <_strerror_r+0x318>)
 8006a66:	e7d4      	b.n	8006a12 <_strerror_r+0x12e>
 8006a68:	4865      	ldr	r0, [pc, #404]	@ (8006c00 <_strerror_r+0x31c>)
 8006a6a:	e7d2      	b.n	8006a12 <_strerror_r+0x12e>
 8006a6c:	4865      	ldr	r0, [pc, #404]	@ (8006c04 <_strerror_r+0x320>)
 8006a6e:	e7d0      	b.n	8006a12 <_strerror_r+0x12e>
 8006a70:	4865      	ldr	r0, [pc, #404]	@ (8006c08 <_strerror_r+0x324>)
 8006a72:	e7ce      	b.n	8006a12 <_strerror_r+0x12e>
 8006a74:	4865      	ldr	r0, [pc, #404]	@ (8006c0c <_strerror_r+0x328>)
 8006a76:	e7cc      	b.n	8006a12 <_strerror_r+0x12e>
 8006a78:	4865      	ldr	r0, [pc, #404]	@ (8006c10 <_strerror_r+0x32c>)
 8006a7a:	e7ca      	b.n	8006a12 <_strerror_r+0x12e>
 8006a7c:	4865      	ldr	r0, [pc, #404]	@ (8006c14 <_strerror_r+0x330>)
 8006a7e:	e7c8      	b.n	8006a12 <_strerror_r+0x12e>
 8006a80:	4865      	ldr	r0, [pc, #404]	@ (8006c18 <_strerror_r+0x334>)
 8006a82:	e7c6      	b.n	8006a12 <_strerror_r+0x12e>
 8006a84:	4865      	ldr	r0, [pc, #404]	@ (8006c1c <_strerror_r+0x338>)
 8006a86:	e7c4      	b.n	8006a12 <_strerror_r+0x12e>
 8006a88:	4865      	ldr	r0, [pc, #404]	@ (8006c20 <_strerror_r+0x33c>)
 8006a8a:	e7c2      	b.n	8006a12 <_strerror_r+0x12e>
 8006a8c:	4865      	ldr	r0, [pc, #404]	@ (8006c24 <_strerror_r+0x340>)
 8006a8e:	e7c0      	b.n	8006a12 <_strerror_r+0x12e>
 8006a90:	4865      	ldr	r0, [pc, #404]	@ (8006c28 <_strerror_r+0x344>)
 8006a92:	e7be      	b.n	8006a12 <_strerror_r+0x12e>
 8006a94:	4865      	ldr	r0, [pc, #404]	@ (8006c2c <_strerror_r+0x348>)
 8006a96:	e7bc      	b.n	8006a12 <_strerror_r+0x12e>
 8006a98:	4865      	ldr	r0, [pc, #404]	@ (8006c30 <_strerror_r+0x34c>)
 8006a9a:	e7ba      	b.n	8006a12 <_strerror_r+0x12e>
 8006a9c:	4865      	ldr	r0, [pc, #404]	@ (8006c34 <_strerror_r+0x350>)
 8006a9e:	e7b8      	b.n	8006a12 <_strerror_r+0x12e>
 8006aa0:	4865      	ldr	r0, [pc, #404]	@ (8006c38 <_strerror_r+0x354>)
 8006aa2:	e7b6      	b.n	8006a12 <_strerror_r+0x12e>
 8006aa4:	4865      	ldr	r0, [pc, #404]	@ (8006c3c <_strerror_r+0x358>)
 8006aa6:	e7b4      	b.n	8006a12 <_strerror_r+0x12e>
 8006aa8:	4865      	ldr	r0, [pc, #404]	@ (8006c40 <_strerror_r+0x35c>)
 8006aaa:	e7b2      	b.n	8006a12 <_strerror_r+0x12e>
 8006aac:	4865      	ldr	r0, [pc, #404]	@ (8006c44 <_strerror_r+0x360>)
 8006aae:	e7b0      	b.n	8006a12 <_strerror_r+0x12e>
 8006ab0:	4865      	ldr	r0, [pc, #404]	@ (8006c48 <_strerror_r+0x364>)
 8006ab2:	e7ae      	b.n	8006a12 <_strerror_r+0x12e>
 8006ab4:	4865      	ldr	r0, [pc, #404]	@ (8006c4c <_strerror_r+0x368>)
 8006ab6:	e7ac      	b.n	8006a12 <_strerror_r+0x12e>
 8006ab8:	4865      	ldr	r0, [pc, #404]	@ (8006c50 <_strerror_r+0x36c>)
 8006aba:	e7aa      	b.n	8006a12 <_strerror_r+0x12e>
 8006abc:	4865      	ldr	r0, [pc, #404]	@ (8006c54 <_strerror_r+0x370>)
 8006abe:	e7a8      	b.n	8006a12 <_strerror_r+0x12e>
 8006ac0:	4865      	ldr	r0, [pc, #404]	@ (8006c58 <_strerror_r+0x374>)
 8006ac2:	e7a6      	b.n	8006a12 <_strerror_r+0x12e>
 8006ac4:	4865      	ldr	r0, [pc, #404]	@ (8006c5c <_strerror_r+0x378>)
 8006ac6:	e7a4      	b.n	8006a12 <_strerror_r+0x12e>
 8006ac8:	4865      	ldr	r0, [pc, #404]	@ (8006c60 <_strerror_r+0x37c>)
 8006aca:	e7a2      	b.n	8006a12 <_strerror_r+0x12e>
 8006acc:	4865      	ldr	r0, [pc, #404]	@ (8006c64 <_strerror_r+0x380>)
 8006ace:	e7a0      	b.n	8006a12 <_strerror_r+0x12e>
 8006ad0:	4865      	ldr	r0, [pc, #404]	@ (8006c68 <_strerror_r+0x384>)
 8006ad2:	e79e      	b.n	8006a12 <_strerror_r+0x12e>
 8006ad4:	4865      	ldr	r0, [pc, #404]	@ (8006c6c <_strerror_r+0x388>)
 8006ad6:	e79c      	b.n	8006a12 <_strerror_r+0x12e>
 8006ad8:	4865      	ldr	r0, [pc, #404]	@ (8006c70 <_strerror_r+0x38c>)
 8006ada:	e79a      	b.n	8006a12 <_strerror_r+0x12e>
 8006adc:	4865      	ldr	r0, [pc, #404]	@ (8006c74 <_strerror_r+0x390>)
 8006ade:	e798      	b.n	8006a12 <_strerror_r+0x12e>
 8006ae0:	4865      	ldr	r0, [pc, #404]	@ (8006c78 <_strerror_r+0x394>)
 8006ae2:	e796      	b.n	8006a12 <_strerror_r+0x12e>
 8006ae4:	4865      	ldr	r0, [pc, #404]	@ (8006c7c <_strerror_r+0x398>)
 8006ae6:	e794      	b.n	8006a12 <_strerror_r+0x12e>
 8006ae8:	4865      	ldr	r0, [pc, #404]	@ (8006c80 <_strerror_r+0x39c>)
 8006aea:	e792      	b.n	8006a12 <_strerror_r+0x12e>
 8006aec:	4865      	ldr	r0, [pc, #404]	@ (8006c84 <_strerror_r+0x3a0>)
 8006aee:	e790      	b.n	8006a12 <_strerror_r+0x12e>
 8006af0:	4865      	ldr	r0, [pc, #404]	@ (8006c88 <_strerror_r+0x3a4>)
 8006af2:	e78e      	b.n	8006a12 <_strerror_r+0x12e>
 8006af4:	4865      	ldr	r0, [pc, #404]	@ (8006c8c <_strerror_r+0x3a8>)
 8006af6:	e78c      	b.n	8006a12 <_strerror_r+0x12e>
 8006af8:	4865      	ldr	r0, [pc, #404]	@ (8006c90 <_strerror_r+0x3ac>)
 8006afa:	e78a      	b.n	8006a12 <_strerror_r+0x12e>
 8006afc:	4865      	ldr	r0, [pc, #404]	@ (8006c94 <_strerror_r+0x3b0>)
 8006afe:	e788      	b.n	8006a12 <_strerror_r+0x12e>
 8006b00:	4865      	ldr	r0, [pc, #404]	@ (8006c98 <_strerror_r+0x3b4>)
 8006b02:	e786      	b.n	8006a12 <_strerror_r+0x12e>
 8006b04:	4865      	ldr	r0, [pc, #404]	@ (8006c9c <_strerror_r+0x3b8>)
 8006b06:	e784      	b.n	8006a12 <_strerror_r+0x12e>
 8006b08:	4865      	ldr	r0, [pc, #404]	@ (8006ca0 <_strerror_r+0x3bc>)
 8006b0a:	e782      	b.n	8006a12 <_strerror_r+0x12e>
 8006b0c:	4865      	ldr	r0, [pc, #404]	@ (8006ca4 <_strerror_r+0x3c0>)
 8006b0e:	e780      	b.n	8006a12 <_strerror_r+0x12e>
 8006b10:	4865      	ldr	r0, [pc, #404]	@ (8006ca8 <_strerror_r+0x3c4>)
 8006b12:	e77e      	b.n	8006a12 <_strerror_r+0x12e>
 8006b14:	4865      	ldr	r0, [pc, #404]	@ (8006cac <_strerror_r+0x3c8>)
 8006b16:	e77c      	b.n	8006a12 <_strerror_r+0x12e>
 8006b18:	4865      	ldr	r0, [pc, #404]	@ (8006cb0 <_strerror_r+0x3cc>)
 8006b1a:	e77a      	b.n	8006a12 <_strerror_r+0x12e>
 8006b1c:	4865      	ldr	r0, [pc, #404]	@ (8006cb4 <_strerror_r+0x3d0>)
 8006b1e:	e778      	b.n	8006a12 <_strerror_r+0x12e>
 8006b20:	4865      	ldr	r0, [pc, #404]	@ (8006cb8 <_strerror_r+0x3d4>)
 8006b22:	e776      	b.n	8006a12 <_strerror_r+0x12e>
 8006b24:	4865      	ldr	r0, [pc, #404]	@ (8006cbc <_strerror_r+0x3d8>)
 8006b26:	e774      	b.n	8006a12 <_strerror_r+0x12e>
 8006b28:	4865      	ldr	r0, [pc, #404]	@ (8006cc0 <_strerror_r+0x3dc>)
 8006b2a:	e772      	b.n	8006a12 <_strerror_r+0x12e>
 8006b2c:	4865      	ldr	r0, [pc, #404]	@ (8006cc4 <_strerror_r+0x3e0>)
 8006b2e:	e770      	b.n	8006a12 <_strerror_r+0x12e>
 8006b30:	4865      	ldr	r0, [pc, #404]	@ (8006cc8 <_strerror_r+0x3e4>)
 8006b32:	e76e      	b.n	8006a12 <_strerror_r+0x12e>
 8006b34:	4865      	ldr	r0, [pc, #404]	@ (8006ccc <_strerror_r+0x3e8>)
 8006b36:	e76c      	b.n	8006a12 <_strerror_r+0x12e>
 8006b38:	4865      	ldr	r0, [pc, #404]	@ (8006cd0 <_strerror_r+0x3ec>)
 8006b3a:	e76a      	b.n	8006a12 <_strerror_r+0x12e>
 8006b3c:	4865      	ldr	r0, [pc, #404]	@ (8006cd4 <_strerror_r+0x3f0>)
 8006b3e:	e768      	b.n	8006a12 <_strerror_r+0x12e>
 8006b40:	4865      	ldr	r0, [pc, #404]	@ (8006cd8 <_strerror_r+0x3f4>)
 8006b42:	e766      	b.n	8006a12 <_strerror_r+0x12e>
 8006b44:	4865      	ldr	r0, [pc, #404]	@ (8006cdc <_strerror_r+0x3f8>)
 8006b46:	e764      	b.n	8006a12 <_strerror_r+0x12e>
 8006b48:	4865      	ldr	r0, [pc, #404]	@ (8006ce0 <_strerror_r+0x3fc>)
 8006b4a:	e762      	b.n	8006a12 <_strerror_r+0x12e>
 8006b4c:	4865      	ldr	r0, [pc, #404]	@ (8006ce4 <_strerror_r+0x400>)
 8006b4e:	e760      	b.n	8006a12 <_strerror_r+0x12e>
 8006b50:	4865      	ldr	r0, [pc, #404]	@ (8006ce8 <_strerror_r+0x404>)
 8006b52:	e75e      	b.n	8006a12 <_strerror_r+0x12e>
 8006b54:	4865      	ldr	r0, [pc, #404]	@ (8006cec <_strerror_r+0x408>)
 8006b56:	e75c      	b.n	8006a12 <_strerror_r+0x12e>
 8006b58:	4865      	ldr	r0, [pc, #404]	@ (8006cf0 <_strerror_r+0x40c>)
 8006b5a:	e75a      	b.n	8006a12 <_strerror_r+0x12e>
 8006b5c:	4865      	ldr	r0, [pc, #404]	@ (8006cf4 <_strerror_r+0x410>)
 8006b5e:	e758      	b.n	8006a12 <_strerror_r+0x12e>
 8006b60:	4865      	ldr	r0, [pc, #404]	@ (8006cf8 <_strerror_r+0x414>)
 8006b62:	e756      	b.n	8006a12 <_strerror_r+0x12e>
 8006b64:	4865      	ldr	r0, [pc, #404]	@ (8006cfc <_strerror_r+0x418>)
 8006b66:	e754      	b.n	8006a12 <_strerror_r+0x12e>
 8006b68:	4865      	ldr	r0, [pc, #404]	@ (8006d00 <_strerror_r+0x41c>)
 8006b6a:	e752      	b.n	8006a12 <_strerror_r+0x12e>
 8006b6c:	4865      	ldr	r0, [pc, #404]	@ (8006d04 <_strerror_r+0x420>)
 8006b6e:	e750      	b.n	8006a12 <_strerror_r+0x12e>
 8006b70:	4865      	ldr	r0, [pc, #404]	@ (8006d08 <_strerror_r+0x424>)
 8006b72:	e74e      	b.n	8006a12 <_strerror_r+0x12e>
 8006b74:	4865      	ldr	r0, [pc, #404]	@ (8006d0c <_strerror_r+0x428>)
 8006b76:	e74c      	b.n	8006a12 <_strerror_r+0x12e>
 8006b78:	4865      	ldr	r0, [pc, #404]	@ (8006d10 <_strerror_r+0x42c>)
 8006b7a:	e74a      	b.n	8006a12 <_strerror_r+0x12e>
 8006b7c:	4865      	ldr	r0, [pc, #404]	@ (8006d14 <_strerror_r+0x430>)
 8006b7e:	e748      	b.n	8006a12 <_strerror_r+0x12e>
 8006b80:	4865      	ldr	r0, [pc, #404]	@ (8006d18 <_strerror_r+0x434>)
 8006b82:	e746      	b.n	8006a12 <_strerror_r+0x12e>
 8006b84:	4865      	ldr	r0, [pc, #404]	@ (8006d1c <_strerror_r+0x438>)
 8006b86:	e744      	b.n	8006a12 <_strerror_r+0x12e>
 8006b88:	4b65      	ldr	r3, [pc, #404]	@ (8006d20 <_strerror_r+0x43c>)
 8006b8a:	2a00      	cmp	r2, #0
 8006b8c:	bf08      	it	eq
 8006b8e:	461a      	moveq	r2, r3
 8006b90:	4b64      	ldr	r3, [pc, #400]	@ (8006d24 <_strerror_r+0x440>)
 8006b92:	b123      	cbz	r3, 8006b9e <_strerror_r+0x2ba>
 8006b94:	f3af 8000 	nop.w
 8006b98:	2800      	cmp	r0, #0
 8006b9a:	f47f af3a 	bne.w	8006a12 <_strerror_r+0x12e>
 8006b9e:	4862      	ldr	r0, [pc, #392]	@ (8006d28 <_strerror_r+0x444>)
 8006ba0:	e737      	b.n	8006a12 <_strerror_r+0x12e>
 8006ba2:	4862      	ldr	r0, [pc, #392]	@ (8006d2c <_strerror_r+0x448>)
 8006ba4:	e735      	b.n	8006a12 <_strerror_r+0x12e>
 8006ba6:	bf00      	nop
 8006ba8:	08007ceb 	.word	0x08007ceb
 8006bac:	08007cfd 	.word	0x08007cfd
 8006bb0:	08007d17 	.word	0x08007d17
 8006bb4:	08007d27 	.word	0x08007d27
 8006bb8:	08007d3f 	.word	0x08007d3f
 8006bbc:	08007d49 	.word	0x08007d49
 8006bc0:	08007d63 	.word	0x08007d63
 8006bc4:	08007d75 	.word	0x08007d75
 8006bc8:	08007d87 	.word	0x08007d87
 8006bcc:	08007da0 	.word	0x08007da0
 8006bd0:	08007db0 	.word	0x08007db0
 8006bd4:	08007dbc 	.word	0x08007dbc
 8006bd8:	08007dd9 	.word	0x08007dd9
 8006bdc:	08007deb 	.word	0x08007deb
 8006be0:	08007dfc 	.word	0x08007dfc
 8006be4:	08007e0e 	.word	0x08007e0e
 8006be8:	08007e1a 	.word	0x08007e1a
 8006bec:	08007e30 	.word	0x08007e30
 8006bf0:	08007e48 	.word	0x08007e48
 8006bf4:	08007e54 	.word	0x08007e54
 8006bf8:	08007e66 	.word	0x08007e66
 8006bfc:	08007e75 	.word	0x08007e75
 8006c00:	08007e85 	.word	0x08007e85
 8006c04:	08007e92 	.word	0x08007e92
 8006c08:	08007eb1 	.word	0x08007eb1
 8006c0c:	08007ec0 	.word	0x08007ec0
 8006c10:	08007ed1 	.word	0x08007ed1
 8006c14:	08007ef5 	.word	0x08007ef5
 8006c18:	08007f13 	.word	0x08007f13
 8006c1c:	08007f31 	.word	0x08007f31
 8006c20:	08007f51 	.word	0x08007f51
 8006c24:	08007f68 	.word	0x08007f68
 8006c28:	08007f77 	.word	0x08007f77
 8006c2c:	08007f86 	.word	0x08007f86
 8006c30:	08007f9a 	.word	0x08007f9a
 8006c34:	08007fb2 	.word	0x08007fb2
 8006c38:	08007fc0 	.word	0x08007fc0
 8006c3c:	08007fcd 	.word	0x08007fcd
 8006c40:	08007fe3 	.word	0x08007fe3
 8006c44:	08007ff2 	.word	0x08007ff2
 8006c48:	08007ffe 	.word	0x08007ffe
 8006c4c:	0800802d 	.word	0x0800802d
 8006c50:	0800803e 	.word	0x0800803e
 8006c54:	08008059 	.word	0x08008059
 8006c58:	0800806c 	.word	0x0800806c
 8006c5c:	08008082 	.word	0x08008082
 8006c60:	0800808b 	.word	0x0800808b
 8006c64:	080080a2 	.word	0x080080a2
 8006c68:	080080aa 	.word	0x080080aa
 8006c6c:	080080b7 	.word	0x080080b7
 8006c70:	080080cc 	.word	0x080080cc
 8006c74:	080080e0 	.word	0x080080e0
 8006c78:	080080fe 	.word	0x080080fe
 8006c7c:	08008109 	.word	0x08008109
 8006c80:	0800811c 	.word	0x0800811c
 8006c84:	08008134 	.word	0x08008134
 8006c88:	08008144 	.word	0x08008144
 8006c8c:	08008152 	.word	0x08008152
 8006c90:	08008166 	.word	0x08008166
 8006c94:	08008175 	.word	0x08008175
 8006c98:	08008186 	.word	0x08008186
 8006c9c:	08008199 	.word	0x08008199
 8006ca0:	080081a5 	.word	0x080081a5
 8006ca4:	080081cb 	.word	0x080081cb
 8006ca8:	080081f0 	.word	0x080081f0
 8006cac:	08008210 	.word	0x08008210
 8006cb0:	0800824e 	.word	0x0800824e
 8006cb4:	08008274 	.word	0x08008274
 8006cb8:	0800828d 	.word	0x0800828d
 8006cbc:	080082a1 	.word	0x080082a1
 8006cc0:	080082bc 	.word	0x080082bc
 8006cc4:	080082d4 	.word	0x080082d4
 8006cc8:	080082ee 	.word	0x080082ee
 8006ccc:	080082f6 	.word	0x080082f6
 8006cd0:	08008326 	.word	0x08008326
 8006cd4:	08008345 	.word	0x08008345
 8006cd8:	08008364 	.word	0x08008364
 8006cdc:	0800837b 	.word	0x0800837b
 8006ce0:	0800839c 	.word	0x0800839c
 8006ce4:	080083af 	.word	0x080083af
 8006ce8:	080083c8 	.word	0x080083c8
 8006cec:	080083df 	.word	0x080083df
 8006cf0:	080083f5 	.word	0x080083f5
 8006cf4:	08008416 	.word	0x08008416
 8006cf8:	0800842e 	.word	0x0800842e
 8006cfc:	08008448 	.word	0x08008448
 8006d00:	08008464 	.word	0x08008464
 8006d04:	08008477 	.word	0x08008477
 8006d08:	0800848d 	.word	0x0800848d
 8006d0c:	080084a1 	.word	0x080084a1
 8006d10:	080084b4 	.word	0x080084b4
 8006d14:	080084d6 	.word	0x080084d6
 8006d18:	080084fc 	.word	0x080084fc
 8006d1c:	0800850d 	.word	0x0800850d
 8006d20:	200001d0 	.word	0x200001d0
 8006d24:	00000000 	.word	0x00000000
 8006d28:	08007cea 	.word	0x08007cea
 8006d2c:	08007cf3 	.word	0x08007cf3

08006d30 <strnlen>:
 8006d30:	4602      	mov	r2, r0
 8006d32:	b510      	push	{r4, lr}
 8006d34:	4401      	add	r1, r0
 8006d36:	428a      	cmp	r2, r1
 8006d38:	4613      	mov	r3, r2
 8006d3a:	d003      	beq.n	8006d44 <strnlen+0x14>
 8006d3c:	781c      	ldrb	r4, [r3, #0]
 8006d3e:	3201      	adds	r2, #1
 8006d40:	2c00      	cmp	r4, #0
 8006d42:	d1f8      	bne.n	8006d36 <strnlen+0x6>
 8006d44:	1a18      	subs	r0, r3, r0
 8006d46:	bd10      	pop	{r4, pc}

08006d48 <__dtox_engine>:
 8006d48:	e92d 41f0 	stmdb	sp!, {r4, r5, r6, r7, r8, lr}
 8006d4c:	4604      	mov	r4, r0
 8006d4e:	0fcd      	lsrs	r5, r1, #31
 8006d50:	f3c1 500a 	ubfx	r0, r1, #20, #11
 8006d54:	f3c1 0113 	ubfx	r1, r1, #0, #20
 8006d58:	ea54 0701 	orrs.w	r7, r4, r1
 8006d5c:	f240 76ff 	movw	r6, #2047	@ 0x7ff
 8006d60:	7115      	strb	r5, [r2, #4]
 8006d62:	d16a      	bne.n	8006e3a <__dtox_engine+0xf2>
 8006d64:	2800      	cmp	r0, #0
 8006d66:	d170      	bne.n	8006e4a <__dtox_engine+0x102>
 8006d68:	4604      	mov	r4, r0
 8006d6a:	4601      	mov	r1, r0
 8006d6c:	2b00      	cmp	r3, #0
 8006d6e:	6010      	str	r0, [r2, #0]
 8006d70:	db5f      	blt.n	8006e32 <__dtox_engine+0xea>
 8006d72:	2b0c      	cmp	r3, #12
 8006d74:	dc5f      	bgt.n	8006e36 <__dtox_engine+0xee>
 8006d76:	2001      	movs	r0, #1
 8006d78:	f1c3 050d 	rsb	r5, r3, #13
 8006d7c:	00ad      	lsls	r5, r5, #2
 8006d7e:	f105 3cff 	add.w	ip, r5, #4294967295	@ 0xffffffff
 8006d82:	f1a5 0721 	sub.w	r7, r5, #33	@ 0x21
 8006d86:	f1c5 0621 	rsb	r6, r5, #33	@ 0x21
 8006d8a:	fa20 f606 	lsr.w	r6, r0, r6
 8006d8e:	fa00 f707 	lsl.w	r7, r0, r7
 8006d92:	fa00 f00c 	lsl.w	r0, r0, ip
 8006d96:	4337      	orrs	r7, r6
 8006d98:	1806      	adds	r6, r0, r0
 8006d9a:	eb47 0807 	adc.w	r8, r7, r7
 8006d9e:	f1d6 0e00 	rsbs	lr, r6, #0
 8006da2:	eb68 0c48 	sbc.w	ip, r8, r8, lsl #1
 8006da6:	3e01      	subs	r6, #1
 8006da8:	f148 38ff 	adc.w	r8, r8, #4294967295	@ 0xffffffff
 8006dac:	4026      	ands	r6, r4
 8006dae:	ea08 0801 	and.w	r8, r8, r1
 8006db2:	42b0      	cmp	r0, r6
 8006db4:	eb77 0808 	sbcs.w	r8, r7, r8
 8006db8:	db0f      	blt.n	8006dda <__dtox_engine+0x92>
 8006dba:	f1c5 0820 	rsb	r8, r5, #32
 8006dbe:	f1b5 0620 	subs.w	r6, r5, #32
 8006dc2:	fa01 f808 	lsl.w	r8, r1, r8
 8006dc6:	fa24 f505 	lsr.w	r5, r4, r5
 8006dca:	ea45 0508 	orr.w	r5, r5, r8
 8006dce:	bf5c      	itt	pl
 8006dd0:	fa41 f606 	asrpl.w	r6, r1, r6
 8006dd4:	4335      	orrpl	r5, r6
 8006dd6:	07ed      	lsls	r5, r5, #31
 8006dd8:	d503      	bpl.n	8006de2 <__dtox_engine+0x9a>
 8006dda:	1820      	adds	r0, r4, r0
 8006ddc:	4604      	mov	r4, r0
 8006dde:	eb41 0107 	adc.w	r1, r1, r7
 8006de2:	ea04 040e 	and.w	r4, r4, lr
 8006de6:	ea01 010c 	and.w	r1, r1, ip
 8006dea:	4618      	mov	r0, r3
 8006dec:	250d      	movs	r5, #13
 8006dee:	f89d 6018 	ldrb.w	r6, [sp, #24]
 8006df2:	3205      	adds	r2, #5
 8006df4:	f1c6 0627 	rsb	r6, r6, #39	@ 0x27
 8006df8:	f004 030f 	and.w	r3, r4, #15
 8006dfc:	0924      	lsrs	r4, r4, #4
 8006dfe:	ea44 7401 	orr.w	r4, r4, r1, lsl #28
 8006e02:	1109      	asrs	r1, r1, #4
 8006e04:	b963      	cbnz	r3, 8006e20 <__dtox_engine+0xd8>
 8006e06:	42a8      	cmp	r0, r5
 8006e08:	da0d      	bge.n	8006e26 <__dtox_engine+0xde>
 8006e0a:	3d01      	subs	r5, #1
 8006e0c:	d2f4      	bcs.n	8006df8 <__dtox_engine+0xb0>
 8006e0e:	e01a      	b.n	8006e46 <__dtox_engine+0xfe>
 8006e10:	b918      	cbnz	r0, 8006e1a <__dtox_engine+0xd2>
 8006e12:	2001      	movs	r0, #1
 8006e14:	f2a0 30ff 	subw	r0, r0, #1023	@ 0x3ff
 8006e18:	e7a8      	b.n	8006d6c <__dtox_engine+0x24>
 8006e1a:	f441 1180 	orr.w	r1, r1, #1048576	@ 0x100000
 8006e1e:	e7f9      	b.n	8006e14 <__dtox_engine+0xcc>
 8006e20:	2b09      	cmp	r3, #9
 8006e22:	bfc8      	it	gt
 8006e24:	199b      	addgt	r3, r3, r6
 8006e26:	3330      	adds	r3, #48	@ 0x30
 8006e28:	42a8      	cmp	r0, r5
 8006e2a:	bfb8      	it	lt
 8006e2c:	4628      	movlt	r0, r5
 8006e2e:	5553      	strb	r3, [r2, r5]
 8006e30:	e7eb      	b.n	8006e0a <__dtox_engine+0xc2>
 8006e32:	2300      	movs	r3, #0
 8006e34:	e7d9      	b.n	8006dea <__dtox_engine+0xa2>
 8006e36:	230d      	movs	r3, #13
 8006e38:	e7d7      	b.n	8006dea <__dtox_engine+0xa2>
 8006e3a:	42b0      	cmp	r0, r6
 8006e3c:	d1e8      	bne.n	8006e10 <__dtox_engine+0xc8>
 8006e3e:	f045 0508 	orr.w	r5, r5, #8
 8006e42:	2000      	movs	r0, #0
 8006e44:	7115      	strb	r5, [r2, #4]
 8006e46:	e8bd 81f0 	ldmia.w	sp!, {r4, r5, r6, r7, r8, pc}
 8006e4a:	42b0      	cmp	r0, r6
 8006e4c:	d1e5      	bne.n	8006e1a <__dtox_engine+0xd2>
 8006e4e:	f045 0504 	orr.w	r5, r5, #4
 8006e52:	e7f6      	b.n	8006e42 <__dtox_engine+0xfa>

08006e54 <__file_str_put>:
 8006e54:	e9d1 3204 	ldrd	r3, r2, [r1, #16]
 8006e58:	4293      	cmp	r3, r2
 8006e5a:	bf1e      	ittt	ne
 8006e5c:	1c5a      	addne	r2, r3, #1
 8006e5e:	610a      	strne	r2, [r1, #16]
 8006e60:	7018      	strbne	r0, [r3, #0]
 8006e62:	4770      	bx	lr

08006e64 <snprintf>:
 8006e64:	b40c      	push	{r2, r3}
 8006e66:	b530      	push	{r4, r5, lr}
 8006e68:	b08b      	sub	sp, #44	@ 0x2c
 8006e6a:	4604      	mov	r4, r0
 8006e6c:	460d      	mov	r5, r1
 8006e6e:	2220      	movs	r2, #32
 8006e70:	2100      	movs	r1, #0
 8006e72:	a802      	add	r0, sp, #8
 8006e74:	f7fe f940 	bl	80050f8 <memset>
 8006e78:	2302      	movs	r3, #2
 8006e7a:	f88d 300a 	strb.w	r3, [sp, #10]
 8006e7e:	4b0d      	ldr	r3, [pc, #52]	@ (8006eb4 <snprintf+0x50>)
 8006e80:	2d00      	cmp	r5, #0
 8006e82:	9303      	str	r3, [sp, #12]
 8006e84:	9406      	str	r4, [sp, #24]
 8006e86:	db12      	blt.n	8006eae <snprintf+0x4a>
 8006e88:	d001      	beq.n	8006e8e <snprintf+0x2a>
 8006e8a:	1e6b      	subs	r3, r5, #1
 8006e8c:	441c      	add	r4, r3
 8006e8e:	aa0f      	add	r2, sp, #60	@ 0x3c
 8006e90:	990e      	ldr	r1, [sp, #56]	@ 0x38
 8006e92:	a802      	add	r0, sp, #8
 8006e94:	9407      	str	r4, [sp, #28]
 8006e96:	9201      	str	r2, [sp, #4]
 8006e98:	f7fe fbca 	bl	8005630 <__d_vfprintf>
 8006e9c:	b115      	cbz	r5, 8006ea4 <snprintf+0x40>
 8006e9e:	2200      	movs	r2, #0
 8006ea0:	9b06      	ldr	r3, [sp, #24]
 8006ea2:	701a      	strb	r2, [r3, #0]
 8006ea4:	b00b      	add	sp, #44	@ 0x2c
 8006ea6:	e8bd 4030 	ldmia.w	sp!, {r4, r5, lr}
 8006eaa:	b002      	add	sp, #8
 8006eac:	4770      	bx	lr
 8006eae:	2400      	movs	r4, #0
 8006eb0:	e7ed      	b.n	8006e8e <snprintf+0x2a>
 8006eb2:	bf00      	nop
 8006eb4:	08006e55 	.word	0x08006e55

08006eb8 <__aeabi_uldivmod>:
 8006eb8:	b953      	cbnz	r3, 8006ed0 <__aeabi_uldivmod+0x18>
 8006eba:	b94a      	cbnz	r2, 8006ed0 <__aeabi_uldivmod+0x18>
 8006ebc:	2900      	cmp	r1, #0
 8006ebe:	bf08      	it	eq
 8006ec0:	2800      	cmpeq	r0, #0
 8006ec2:	bf1c      	itt	ne
 8006ec4:	f04f 31ff 	movne.w	r1, #4294967295	@ 0xffffffff
 8006ec8:	f04f 30ff 	movne.w	r0, #4294967295	@ 0xffffffff
 8006ecc:	f000 b986 	b.w	80071dc <__aeabi_idiv0>
 8006ed0:	f1ad 0c08 	sub.w	ip, sp, #8
 8006ed4:	e96d ce04 	strd	ip, lr, [sp, #-16]!
 8006ed8:	f000 f806 	bl	8006ee8 <__udivmoddi4>
 8006edc:	f8dd e004 	ldr.w	lr, [sp, #4]
 8006ee0:	e9dd 2302 	ldrd	r2, r3, [sp, #8]
 8006ee4:	b004      	add	sp, #16
 8006ee6:	4770      	bx	lr

08006ee8 <__udivmoddi4>:
 8006ee8:	e92d 47f0 	stmdb	sp!, {r4, r5, r6, r7, r8, r9, sl, lr}
 8006eec:	9d08      	ldr	r5, [sp, #32]
 8006eee:	460f      	mov	r7, r1
 8006ef0:	4604      	mov	r4, r0
 8006ef2:	468e      	mov	lr, r1
 8006ef4:	2b00      	cmp	r3, #0
 8006ef6:	d148      	bne.n	8006f8a <__udivmoddi4+0xa2>
 8006ef8:	428a      	cmp	r2, r1
 8006efa:	4616      	mov	r6, r2
 8006efc:	d961      	bls.n	8006fc2 <__udivmoddi4+0xda>
 8006efe:	fab2 f282 	clz	r2, r2
 8006f02:	b14a      	cbz	r2, 8006f18 <__udivmoddi4+0x30>
 8006f04:	f1c2 0320 	rsb	r3, r2, #32
 8006f08:	fa01 fe02 	lsl.w	lr, r1, r2
 8006f0c:	fa20 f303 	lsr.w	r3, r0, r3
 8006f10:	4096      	lsls	r6, r2
 8006f12:	ea43 0e0e 	orr.w	lr, r3, lr
 8006f16:	4094      	lsls	r4, r2
 8006f18:	ea4f 4c16 	mov.w	ip, r6, lsr #16
 8006f1c:	fbbe f1fc 	udiv	r1, lr, ip
 8006f20:	b2b7      	uxth	r7, r6
 8006f22:	fb0c ee11 	mls	lr, ip, r1, lr
 8006f26:	fb01 f007 	mul.w	r0, r1, r7
 8006f2a:	0c23      	lsrs	r3, r4, #16
 8006f2c:	ea43 430e 	orr.w	r3, r3, lr, lsl #16
 8006f30:	4298      	cmp	r0, r3
 8006f32:	d909      	bls.n	8006f48 <__udivmoddi4+0x60>
 8006f34:	18f3      	adds	r3, r6, r3
 8006f36:	f101 3eff 	add.w	lr, r1, #4294967295	@ 0xffffffff
 8006f3a:	f080 80ed 	bcs.w	8007118 <__udivmoddi4+0x230>
 8006f3e:	4298      	cmp	r0, r3
 8006f40:	f240 80ea 	bls.w	8007118 <__udivmoddi4+0x230>
 8006f44:	3902      	subs	r1, #2
 8006f46:	4433      	add	r3, r6
 8006f48:	1a1b      	subs	r3, r3, r0
 8006f4a:	fbb3 f0fc 	udiv	r0, r3, ip
 8006f4e:	fb0c 3310 	mls	r3, ip, r0, r3
 8006f52:	fb00 f707 	mul.w	r7, r0, r7
 8006f56:	b2a4      	uxth	r4, r4
 8006f58:	ea44 4403 	orr.w	r4, r4, r3, lsl #16
 8006f5c:	42a7      	cmp	r7, r4
 8006f5e:	d909      	bls.n	8006f74 <__udivmoddi4+0x8c>
 8006f60:	1934      	adds	r4, r6, r4
 8006f62:	f100 33ff 	add.w	r3, r0, #4294967295	@ 0xffffffff
 8006f66:	f080 80d9 	bcs.w	800711c <__udivmoddi4+0x234>
 8006f6a:	42a7      	cmp	r7, r4
 8006f6c:	f240 80d6 	bls.w	800711c <__udivmoddi4+0x234>
 8006f70:	4434      	add	r4, r6
 8006f72:	3802      	subs	r0, #2
 8006f74:	ea40 4001 	orr.w	r0, r0, r1, lsl #16
 8006f78:	2100      	movs	r1, #0
 8006f7a:	1be4      	subs	r4, r4, r7
 8006f7c:	b11d      	cbz	r5, 8006f86 <__udivmoddi4+0x9e>
 8006f7e:	2300      	movs	r3, #0
 8006f80:	40d4      	lsrs	r4, r2
 8006f82:	e9c5 4300 	strd	r4, r3, [r5]
 8006f86:	e8bd 87f0 	ldmia.w	sp!, {r4, r5, r6, r7, r8, r9, sl, pc}
 8006f8a:	428b      	cmp	r3, r1
 8006f8c:	d906      	bls.n	8006f9c <__udivmoddi4+0xb4>
 8006f8e:	b10d      	cbz	r5, 8006f94 <__udivmoddi4+0xac>
 8006f90:	e9c5 0100 	strd	r0, r1, [r5]
 8006f94:	2100      	movs	r1, #0
 8006f96:	4608      	mov	r0, r1
 8006f98:	e8bd 87f0 	ldmia.w	sp!, {r4, r5, r6, r7, r8, r9, sl, pc}
 8006f9c:	fab3 f183 	clz	r1, r3
 8006fa0:	2900      	cmp	r1, #0
 8006fa2:	d147      	bne.n	8007034 <__udivmoddi4+0x14c>
 8006fa4:	42bb      	cmp	r3, r7
 8006fa6:	d302      	bcc.n	8006fae <__udivmoddi4+0xc6>
 8006fa8:	4282      	cmp	r2, r0
 8006faa:	f200 8104 	bhi.w	80071b6 <__udivmoddi4+0x2ce>
 8006fae:	1a84      	subs	r4, r0, r2
 8006fb0:	eb67 0203 	sbc.w	r2, r7, r3
 8006fb4:	2001      	movs	r0, #1
 8006fb6:	4696      	mov	lr, r2
 8006fb8:	2d00      	cmp	r5, #0
 8006fba:	d0e4      	beq.n	8006f86 <__udivmoddi4+0x9e>
 8006fbc:	e9c5 4e00 	strd	r4, lr, [r5]
 8006fc0:	e7e1      	b.n	8006f86 <__udivmoddi4+0x9e>
 8006fc2:	2a00      	cmp	r2, #0
 8006fc4:	f000 8090 	beq.w	80070e8 <__udivmoddi4+0x200>
 8006fc8:	fab2 f282 	clz	r2, r2
 8006fcc:	2a00      	cmp	r2, #0
 8006fce:	f040 80a7 	bne.w	8007120 <__udivmoddi4+0x238>
 8006fd2:	1b88      	subs	r0, r1, r6
 8006fd4:	2101      	movs	r1, #1
 8006fd6:	0c37      	lsrs	r7, r6, #16
 8006fd8:	fa1f fe86 	uxth.w	lr, r6
 8006fdc:	fbb0 fcf7 	udiv	ip, r0, r7
 8006fe0:	fb07 001c 	mls	r0, r7, ip, r0
 8006fe4:	0c23      	lsrs	r3, r4, #16
 8006fe6:	ea43 4300 	orr.w	r3, r3, r0, lsl #16
 8006fea:	fb0e f00c 	mul.w	r0, lr, ip
 8006fee:	4298      	cmp	r0, r3
 8006ff0:	d907      	bls.n	8007002 <__udivmoddi4+0x11a>
 8006ff2:	18f3      	adds	r3, r6, r3
 8006ff4:	f10c 38ff 	add.w	r8, ip, #4294967295	@ 0xffffffff
 8006ff8:	d202      	bcs.n	8007000 <__udivmoddi4+0x118>
 8006ffa:	4298      	cmp	r0, r3
 8006ffc:	f200 80e0 	bhi.w	80071c0 <__udivmoddi4+0x2d8>
 8007000:	46c4      	mov	ip, r8
 8007002:	1a1b      	subs	r3, r3, r0
 8007004:	fbb3 f0f7 	udiv	r0, r3, r7
 8007008:	fb07 3310 	mls	r3, r7, r0, r3
 800700c:	fb0e fe00 	mul.w	lr, lr, r0
 8007010:	b2a4      	uxth	r4, r4
 8007012:	ea44 4403 	orr.w	r4, r4, r3, lsl #16
 8007016:	45a6      	cmp	lr, r4
 8007018:	d907      	bls.n	800702a <__udivmoddi4+0x142>
 800701a:	1934      	adds	r4, r6, r4
 800701c:	f100 33ff 	add.w	r3, r0, #4294967295	@ 0xffffffff
 8007020:	d202      	bcs.n	8007028 <__udivmoddi4+0x140>
 8007022:	45a6      	cmp	lr, r4
 8007024:	f200 80c9 	bhi.w	80071ba <__udivmoddi4+0x2d2>
 8007028:	4618      	mov	r0, r3
 800702a:	eba4 040e 	sub.w	r4, r4, lr
 800702e:	ea40 400c 	orr.w	r0, r0, ip, lsl #16
 8007032:	e7a3      	b.n	8006f7c <__udivmoddi4+0x94>
 8007034:	f1c1 0620 	rsb	r6, r1, #32
 8007038:	408b      	lsls	r3, r1
 800703a:	fa22 fc06 	lsr.w	ip, r2, r6
 800703e:	ea4c 0c03 	orr.w	ip, ip, r3
 8007042:	fa27 fa06 	lsr.w	sl, r7, r6
 8007046:	ea4f 491c 	mov.w	r9, ip, lsr #16
 800704a:	fbba f8f9 	udiv	r8, sl, r9
 800704e:	408f      	lsls	r7, r1
 8007050:	fa20 f306 	lsr.w	r3, r0, r6
 8007054:	fb09 aa18 	mls	sl, r9, r8, sl
 8007058:	fa1f fe8c 	uxth.w	lr, ip
 800705c:	433b      	orrs	r3, r7
 800705e:	fa00 f701 	lsl.w	r7, r0, r1
 8007062:	fb08 f00e 	mul.w	r0, r8, lr
 8007066:	0c1c      	lsrs	r4, r3, #16
 8007068:	ea44 440a 	orr.w	r4, r4, sl, lsl #16
 800706c:	42a0      	cmp	r0, r4
 800706e:	fa02 f201 	lsl.w	r2, r2, r1
 8007072:	d90b      	bls.n	800708c <__udivmoddi4+0x1a4>
 8007074:	eb1c 0404 	adds.w	r4, ip, r4
 8007078:	f108 3aff 	add.w	sl, r8, #4294967295	@ 0xffffffff
 800707c:	f080 8099 	bcs.w	80071b2 <__udivmoddi4+0x2ca>
 8007080:	42a0      	cmp	r0, r4
 8007082:	f240 8096 	bls.w	80071b2 <__udivmoddi4+0x2ca>
 8007086:	f1a8 0802 	sub.w	r8, r8, #2
 800708a:	4464      	add	r4, ip
 800708c:	1a24      	subs	r4, r4, r0
 800708e:	b298      	uxth	r0, r3
 8007090:	fbb4 f3f9 	udiv	r3, r4, r9
 8007094:	fb09 4413 	mls	r4, r9, r3, r4
 8007098:	fb03 fe0e 	mul.w	lr, r3, lr
 800709c:	ea40 4404 	orr.w	r4, r0, r4, lsl #16
 80070a0:	45a6      	cmp	lr, r4
 80070a2:	d908      	bls.n	80070b6 <__udivmoddi4+0x1ce>
 80070a4:	eb1c 0404 	adds.w	r4, ip, r4
 80070a8:	f103 30ff 	add.w	r0, r3, #4294967295	@ 0xffffffff
 80070ac:	d27f      	bcs.n	80071ae <__udivmoddi4+0x2c6>
 80070ae:	45a6      	cmp	lr, r4
 80070b0:	d97d      	bls.n	80071ae <__udivmoddi4+0x2c6>
 80070b2:	3b02      	subs	r3, #2
 80070b4:	4464      	add	r4, ip
 80070b6:	ea43 4008 	orr.w	r0, r3, r8, lsl #16
 80070ba:	eba4 040e 	sub.w	r4, r4, lr
 80070be:	fba0 8e02 	umull	r8, lr, r0, r2
 80070c2:	4574      	cmp	r4, lr
 80070c4:	4643      	mov	r3, r8
 80070c6:	46f1      	mov	r9, lr
 80070c8:	d361      	bcc.n	800718e <__udivmoddi4+0x2a6>
 80070ca:	d05e      	beq.n	800718a <__udivmoddi4+0x2a2>
 80070cc:	b155      	cbz	r5, 80070e4 <__udivmoddi4+0x1fc>
 80070ce:	1afa      	subs	r2, r7, r3
 80070d0:	eb64 0409 	sbc.w	r4, r4, r9
 80070d4:	fa04 f606 	lsl.w	r6, r4, r6
 80070d8:	fa22 f301 	lsr.w	r3, r2, r1
 80070dc:	431e      	orrs	r6, r3
 80070de:	40cc      	lsrs	r4, r1
 80070e0:	e9c5 6400 	strd	r6, r4, [r5]
 80070e4:	2100      	movs	r1, #0
 80070e6:	e74e      	b.n	8006f86 <__udivmoddi4+0x9e>
 80070e8:	0843      	lsrs	r3, r0, #1
 80070ea:	ea4f 0c51 	mov.w	ip, r1, lsr #1
 80070ee:	ea43 71c1 	orr.w	r1, r3, r1, lsl #31
 80070f2:	0c0a      	lsrs	r2, r1, #16
 80070f4:	ea42 420c 	orr.w	r2, r2, ip, lsl #16
 80070f8:	b28b      	uxth	r3, r1
 80070fa:	07c4      	lsls	r4, r0, #31
 80070fc:	fbb2 f1f6 	udiv	r1, r2, r6
 8007100:	ea43 4302 	orr.w	r3, r3, r2, lsl #16
 8007104:	fbbc fcf6 	udiv	ip, ip, r6
 8007108:	46b6      	mov	lr, r6
 800710a:	4630      	mov	r0, r6
 800710c:	4637      	mov	r7, r6
 800710e:	221f      	movs	r2, #31
 8007110:	1a18      	subs	r0, r3, r0
 8007112:	ea41 410c 	orr.w	r1, r1, ip, lsl #16
 8007116:	e761      	b.n	8006fdc <__udivmoddi4+0xf4>
 8007118:	4671      	mov	r1, lr
 800711a:	e715      	b.n	8006f48 <__udivmoddi4+0x60>
 800711c:	4618      	mov	r0, r3
 800711e:	e729      	b.n	8006f74 <__udivmoddi4+0x8c>
 8007120:	f1c2 0320 	rsb	r3, r2, #32
 8007124:	fa21 f003 	lsr.w	r0, r1, r3
 8007128:	4096      	lsls	r6, r2
 800712a:	fa24 f303 	lsr.w	r3, r4, r3
 800712e:	4097      	lsls	r7, r2
 8007130:	433b      	orrs	r3, r7
 8007132:	0c37      	lsrs	r7, r6, #16
 8007134:	fbb0 f8f7 	udiv	r8, r0, r7
 8007138:	fb07 0018 	mls	r0, r7, r8, r0
 800713c:	fa1f fe86 	uxth.w	lr, r6
 8007140:	0c19      	lsrs	r1, r3, #16
 8007142:	ea41 4100 	orr.w	r1, r1, r0, lsl #16
 8007146:	fb08 f00e 	mul.w	r0, r8, lr
 800714a:	4288      	cmp	r0, r1
 800714c:	fa04 f402 	lsl.w	r4, r4, r2
 8007150:	d93a      	bls.n	80071c8 <__udivmoddi4+0x2e0>
 8007152:	1871      	adds	r1, r6, r1
 8007154:	f108 3cff 	add.w	ip, r8, #4294967295	@ 0xffffffff
 8007158:	d201      	bcs.n	800715e <__udivmoddi4+0x276>
 800715a:	4288      	cmp	r0, r1
 800715c:	d81e      	bhi.n	800719c <__udivmoddi4+0x2b4>
 800715e:	1a09      	subs	r1, r1, r0
 8007160:	fbb1 f8f7 	udiv	r8, r1, r7
 8007164:	fb08 f00e 	mul.w	r0, r8, lr
 8007168:	fb07 1118 	mls	r1, r7, r8, r1
 800716c:	b29b      	uxth	r3, r3
 800716e:	ea43 4301 	orr.w	r3, r3, r1, lsl #16
 8007172:	4283      	cmp	r3, r0
 8007174:	d22f      	bcs.n	80071d6 <__udivmoddi4+0x2ee>
 8007176:	18f3      	adds	r3, r6, r3
 8007178:	f108 31ff 	add.w	r1, r8, #4294967295	@ 0xffffffff
 800717c:	d2c8      	bcs.n	8007110 <__udivmoddi4+0x228>
 800717e:	4283      	cmp	r3, r0
 8007180:	d2c6      	bcs.n	8007110 <__udivmoddi4+0x228>
 8007182:	f1a8 0102 	sub.w	r1, r8, #2
 8007186:	4433      	add	r3, r6
 8007188:	e7c2      	b.n	8007110 <__udivmoddi4+0x228>
 800718a:	4547      	cmp	r7, r8
 800718c:	d29e      	bcs.n	80070cc <__udivmoddi4+0x1e4>
 800718e:	ebb8 0302 	subs.w	r3, r8, r2
 8007192:	eb6e 0e0c 	sbc.w	lr, lr, ip
 8007196:	3801      	subs	r0, #1
 8007198:	46f1      	mov	r9, lr
 800719a:	e797      	b.n	80070cc <__udivmoddi4+0x1e4>
 800719c:	1a30      	subs	r0, r6, r0
 800719e:	4401      	add	r1, r0
 80071a0:	f1a8 0c02 	sub.w	ip, r8, #2
 80071a4:	fbb1 f8f7 	udiv	r8, r1, r7
 80071a8:	fb08 f00e 	mul.w	r0, r8, lr
 80071ac:	e7dc      	b.n	8007168 <__udivmoddi4+0x280>
 80071ae:	4603      	mov	r3, r0
 80071b0:	e781      	b.n	80070b6 <__udivmoddi4+0x1ce>
 80071b2:	46d0      	mov	r8, sl
 80071b4:	e76a      	b.n	800708c <__udivmoddi4+0x1a4>
 80071b6:	4608      	mov	r0, r1
 80071b8:	e6fe      	b.n	8006fb8 <__udivmoddi4+0xd0>
 80071ba:	4434      	add	r4, r6
 80071bc:	3802      	subs	r0, #2
 80071be:	e734      	b.n	800702a <__udivmoddi4+0x142>
 80071c0:	f1ac 0c02 	sub.w	ip, ip, #2
 80071c4:	4433      	add	r3, r6
 80071c6:	e71c      	b.n	8007002 <__udivmoddi4+0x11a>
 80071c8:	1a09      	subs	r1, r1, r0
 80071ca:	46c4      	mov	ip, r8
 80071cc:	fbb1 f8f7 	udiv	r8, r1, r7
 80071d0:	fb08 f00e 	mul.w	r0, r8, lr
 80071d4:	e7c8      	b.n	8007168 <__udivmoddi4+0x280>
 80071d6:	4641      	mov	r1, r8
 80071d8:	e79a      	b.n	8007110 <__udivmoddi4+0x228>
 80071da:	bf00      	nop

080071dc <__aeabi_idiv0>:
 80071dc:	4770      	bx	lr
 80071de:	bf00      	nop

080071e0 <__frame_dummy_init_array_entry>:
 80071e0:	08ed 0800 0309 0800 07dd 0800 081d 0800     ................

080071f0 <__do_global_dtors_aux_fini_array_entry>:
 80071f0:	08c5 0800                                   ....

080071f4 <__call_exitprocs_ref>:
 80071f4:	5385 0800                                   .S..
