08000274 t _GLOBAL__sub_I__ZN10__cxxabiv119__terminate_handlerE
080000f0 t _GLOBAL__sub_I__ZNSt3pmr15memory_resourceD2Ev
08000134 t _GLOBAL__sub_I___cxa_get_globals_fast
0800382c T _Unwind_Backtrace
08002e48 t _Unwind_DebugHook
08003808 T _Unwind_ForcedUnwind
08003070 t _Unwind_GetGR
0800379c T _Unwind_RaiseException
080037c0 T _Unwind_Resume
080037e4 T _Unwind_Resume_or_Rethrow
080030bc t _Unwind_SetGR
08003040 T _Unwind_VRS_Get
08003404 T _Unwind_VRS_Pop
0800308c T _Unwind_VRS_Set
08002e3c t _Unwind_decode_typeinfo_ptr.constprop.0
080014a8 T _Z11applicationR13resource_list
080014e4 T _Z17terminate_handlerv
08001508 T _Z19initialize_platformv
08001454 T _Z3foov
08000210 t _Z41__static_initialization_and_destruction_0ii
0800263c T _ZGTtNKSt9exception4whatEv
20000290 b _ZGVZ19initialize_platformvE16dwt_steady_clock
08001db0 T _ZN10__cxxabiv111__terminateEPFvvE
08001d04 T _ZN10__cxxabiv117__class_type_infoD0Ev
08001cf0 T _ZN10__cxxabiv117__class_type_infoD1Ev
08001cf0 T _ZN10__cxxabiv117__class_type_infoD2Ev
2000010c D _ZN10__cxxabiv119__terminate_handlerE
08000284 W _ZN10__cxxabiv119__terminate_handlerMUlvE_4_FUNEv
08001e6c T _ZN10__cxxabiv120__si_class_type_infoD0Ev
08001e58 T _ZN10__cxxabiv120__si_class_type_infoD1Ev
08001e58 T _ZN10__cxxabiv120__si_class_type_infoD2Ev
08001fbc T _ZN10__cxxabiv121__vmi_class_type_infoD0Ev
08001fa8 T _ZN10__cxxabiv121__vmi_class_type_infoD1Ev
08001fa8 T _ZN10__cxxabiv121__vmi_class_type_infoD2Ev
200002b0 b _ZN12_GLOBAL__N_110eh_globalsE
200002bc b _ZN12_GLOBAL__N_113__new_handlerE
080026cc t _ZN12_GLOBAL__N_113constant_initD1Ev
080026cc t _ZN12_GLOBAL__N_113constant_initD2Ev
2000016c b _ZN2ke12_GLOBAL__N_116active_exceptionE
20000170 b _ZN2ke12_GLOBAL__N_116exception_bufferE
08001138 W _ZN2ke12parse_headerEPPKh
08000346 T _ZN2ke12unwind_frameERKNS_14instructions_tERNS_12cortex_m_cpuE
08000bf6 W _ZN2ke14action_decoder19get_next_catch_typeEv
08000bce W _ZN2ke14action_decoder33get_current_type_info_from_filterEv
0800121a W _ZN2ke14enter_functionERNS_16exception_objectE
0800085a T _ZN2ke15get_index_entryEm
08000ae8 W _ZN2ke15index_less_thanclEmRKNS_13index_entry_tE
08000f7e W _ZN2ke15parse_call_siteILNS_13lsda_encodingE10EEENS_14call_site_infoEPPKhmS4_
08000ff0 W _ZN2ke15parse_call_siteILNS_13lsda_encodingE11EEENS_14call_site_infoEPPKhmS4_
0800105e W _ZN2ke15parse_call_siteILNS_13lsda_encodingE12EEENS_14call_site_infoEPPKhmS4_
08000ea4 W _ZN2ke15parse_call_siteILNS_13lsda_encodingE2EEENS_14call_site_infoEPPKhmS4_
08000f10 W _ZN2ke15parse_call_siteILNS_13lsda_encodingE3EEENS_14call_site_infoEPPKhmS4_
080011ac W _ZN2ke15parse_call_siteILNS_13lsda_encodingE4EEENS_14call_site_infoEPPKhmS4_
08000c94 W _ZN2ke15parse_call_siteILNS_13lsda_encodingE9EEENS_14call_site_infoEPPKhmS4_
08000884 T _ZN2ke15raise_exceptionERNS_16exception_objectE
080010ce W _ZN2ke15skip_dwarf_infoEPPKh
080002fc T _ZN2ke17current_exceptionEv
08000b40 W _ZN2ke18multi_read_uleb128ILj4EEENS_17decoded_uleb128_tIXT_EEEPKh
08000e82 W _ZN2ke18pop_register_rangeILj1ELNS_6pop_lrE1EEEPKmS3_RNS_12cortex_m_cpuE
08000e64 W _ZN2ke18pop_register_rangeILj2ELNS_6pop_lrE1EEEPKmS3_RNS_12cortex_m_cpuE
08000e46 W _ZN2ke18pop_register_rangeILj3ELNS_6pop_lrE1EEEPKmS3_RNS_12cortex_m_cpuE
08000e28 W _ZN2ke18pop_register_rangeILj4ELNS_6pop_lrE1EEEPKmS3_RNS_12cortex_m_cpuE
08000e0a W _ZN2ke18pop_register_rangeILj5ELNS_6pop_lrE1EEEPKmS3_RNS_12cortex_m_cpuE
08000dec W _ZN2ke18pop_register_rangeILj6ELNS_6pop_lrE1EEEPKmS3_RNS_12cortex_m_cpuE
08000dce W _ZN2ke18pop_register_rangeILj7ELNS_6pop_lrE1EEEPKmS3_RNS_12cortex_m_cpuE
08000308 T _ZN2ke23get_arm_exception_indexEv
08000b86 W _ZN2ke23parse_uleb128_call_siteEPKhmS1_
0800084e T _ZN2ke29get_type_info_from_class_typeEPKv
08000ea0 W _ZN2ke2asIKjEEPKT_PKv
08000bcc W _ZN2ke2asIPKjEEPKT_PKv
08000fee W _ZN2ke2asIlEEPKT_PKv
08000f0e W _ZN2ke2asImEEPKT_PKv
08000f7c W _ZN2ke2asIsEEPKT_PKv
08000ea2 W _ZN2ke2asItEEPKT_PKv
0800105c W _ZN2ke2asIxEEPKT_PKv
080010cc W _ZN2ke2asIyEEPKT_PKv
080002fa T _ZN2ke6get_luEPv
08000afc W _ZN2ke7to_lsdaERNS_16exception_objectE
080002f8 T _ZN2ke8get_su16EPv
08000250 T _ZN3hal13get_terminateEv
0800023c T _ZN3hal13set_terminateEPFvvE
20000004 D _ZN3hal18_default_allocatorE
20000110 D _ZN3hal20_exception_allocatorE
08000268 T _ZN3hal23get_exception_allocatorEv
0800025c T _ZN3hal23set_exception_allocatorEPNSt3pmr15memory_resourceE
08000286 W _ZN3hal26single_exception_allocatorILj256EE11do_allocateEjj
080002ae W _ZN3hal26single_exception_allocatorILj256EE13do_deallocateEPvjj
080002d8 W _ZN3hal26single_exception_allocatorILj256EED0Ev
080002c4 W _ZN3hal26single_exception_allocatorILj256EED1Ev
080002c4 W _ZN3hal26single_exception_allocatorILj256EED2Ev
20000134 d _ZN3hal7stm32f112_GLOBAL__N_114adc_clock_rateE
20000120 d _ZN3hal7stm32f112_GLOBAL__N_114ahb_clock_rateE
200002a4 b _ZN3hal7stm32f112_GLOBAL__N_114pll_clock_rateE
200002a8 b _ZN3hal7stm32f112_GLOBAL__N_114rtc_clock_rateE
200002ac b _ZN3hal7stm32f112_GLOBAL__N_114usb_clock_rateE
20000124 d _ZN3hal7stm32f112_GLOBAL__N_115apb1_clock_rateE
20000128 d _ZN3hal7stm32f112_GLOBAL__N_115apb2_clock_rateE
2000012c d _ZN3hal7stm32f112_GLOBAL__N_121timer_apb1_clock_rateE
20000130 d _ZN3hal7stm32f112_GLOBAL__N_121timer_apb2_clock_rateE
080043d0 V _ZN3hal7stm32f112rtc_register19backup_domain_resetE
080043c8 V _ZN3hal7stm32f112rtc_register20low_speed_osc_enableE
080043e0 V _ZN3hal7stm32f113clock_control10pll_enableE
080043d8 V _ZN3hal7stm32f113clock_control19external_osc_enableE
08001600 T _ZN3hal7stm32f116configure_clocksENS0_10clock_treeE
08001c7c T _ZN3hal7stm32f139maximum_speed_using_internal_oscillatorEv
20000138 V _ZN3hal7stm32f13rccE
2000013c V _ZN3hal7stm32f15flashE
08001bb0 T _ZN3hal7stm32f19frequencyENS0_10peripheralE
0800159c T _ZN3hal8cortex_m11dwt_counter13driver_uptimeEv
080015bc T _ZN3hal8cortex_m11dwt_counter16driver_frequencyEv
080015fc T _ZN3hal8cortex_m11dwt_counter22register_cpu_frequencyEf
080015c0 T _ZN3hal8cortex_m11dwt_counterC1Ef
080015c0 T _ZN3hal8cortex_m11dwt_counterC2Ef
0800157c W _ZN3hal8cortex_m11dwt_counterD0Ev
08001568 W _ZN3hal8cortex_m11dwt_counterD1Ev
08001568 W _ZN3hal8cortex_m11dwt_counterD2Ev
2000011c V _ZN3hal8cortex_m3dwtE
20000118 V _ZN3hal8cortex_m4coreE
08001e4c T _ZN9__gnu_cxx20recursive_init_errorC1Ev
08001e4c T _ZN9__gnu_cxx20recursive_init_errorC2Ev
08001e30 T _ZN9__gnu_cxx20recursive_init_errorD0Ev
08001e1c T _ZN9__gnu_cxx20recursive_init_errorD1Ev
08001e1c T _ZN9__gnu_cxx20recursive_init_errorD2Ev
08001d80 T _ZNK10__cxxabiv117__class_type_info10__do_catchEPKSt9type_infoPPvj
08001d64 T _ZNK10__cxxabiv117__class_type_info11__do_upcastEPKS0_PKvRNS0_15__upcast_resultE
08001cb0 T _ZNK10__cxxabiv117__class_type_info11__do_upcastEPKS0_PPv
08001d20 T _ZNK10__cxxabiv117__class_type_info12__do_dyncastEiNS0_10__sub_kindEPKS0_PKvS3_S5_RNS0_16__dyncast_resultE
08001ce4 T _ZNK10__cxxabiv117__class_type_info20__do_find_public_srcEiPKvPKS0_S2_
08001f48 T _ZNK10__cxxabiv120__si_class_type_info11__do_upcastEPKNS_17__class_type_infoEPKvRNS1_15__upcast_resultE
08001ec4 T _ZNK10__cxxabiv120__si_class_type_info12__do_dyncastEiNS_17__class_type_info10__sub_kindEPKS1_PKvS4_S6_RNS1_16__dyncast_resultE
08001e88 T _ZNK10__cxxabiv120__si_class_type_info20__do_find_public_srcEiPKvPKNS_17__class_type_infoES2_
0800248c T _ZNK10__cxxabiv121__vmi_class_type_info11__do_upcastEPKNS_17__class_type_infoEPKvRNS1_15__upcast_resultE
08002060 T _ZNK10__cxxabiv121__vmi_class_type_info12__do_dyncastEiNS_17__class_type_info10__sub_kindEPKS1_PKvS4_S6_RNS1_16__dyncast_resultE
08001fd8 T _ZNK10__cxxabiv121__vmi_class_type_info20__do_find_public_srcEiPKvPKNS_17__class_type_infoES2_
080002a4 W _ZNK3hal26single_exception_allocatorILj256EE11do_is_equalERKNSt3pmr15memory_resourceE
080025c8 t _ZNKSt3pmr12_GLOBAL__N_110null_res_t11do_is_equalERKNS_15memory_resourceE
080025c8 t _ZNKSt3pmr12_GLOBAL__N_112newdel_res_t11do_is_equalERKNS_15memory_resourceE
08002690 T _ZNKSt9bad_alloc4whatEv
0800263c T _ZNKSt9exception4whatEv
08001f78 T _ZNKSt9type_info14__is_pointer_pEv
08001f78 T _ZNKSt9type_info15__is_function_pEv
08001f7c T _ZNKSt9type_info7__equalERKS_
08001f7c T _ZNKSt9type_infoeqERKS_
20000148 d _ZNSt3pmr12_GLOBAL__N_110newdel_resE
08002620 t _ZNSt3pmr12_GLOBAL__N_110null_res_t11do_allocateEjj
080025d4 t _ZNSt3pmr12_GLOBAL__N_110null_res_t13do_deallocateEPvjj
080025fc t _ZNSt3pmr12_GLOBAL__N_110null_res_tD0Ev
080025d8 t _ZNSt3pmr12_GLOBAL__N_110null_res_tD1Ev
080025d8 t _ZNSt3pmr12_GLOBAL__N_110null_res_tD2Ev
20000140 d _ZNSt3pmr12_GLOBAL__N_111default_resE
08002618 t _ZNSt3pmr12_GLOBAL__N_112newdel_res_t11do_allocateEjj
0800260c t _ZNSt3pmr12_GLOBAL__N_112newdel_res_t13do_deallocateEPvjj
080025ec t _ZNSt3pmr12_GLOBAL__N_112newdel_res_tD0Ev
080025dc t _ZNSt3pmr12_GLOBAL__N_112newdel_res_tD1Ev
080025dc t _ZNSt3pmr12_GLOBAL__N_112newdel_res_tD2Ev
080025e4 t _ZNSt3pmr12_GLOBAL__N_113constant_initINS0_10null_res_tEED1Ev
080025e4 t _ZNSt3pmr12_GLOBAL__N_113constant_initINS0_10null_res_tEED2Ev
080025e0 t _ZNSt3pmr12_GLOBAL__N_113constant_initINS0_12newdel_res_tEED1Ev
080025e0 t _ZNSt3pmr12_GLOBAL__N_113constant_initINS0_12newdel_res_tEED2Ev
080025e8 t _ZNSt3pmr12_GLOBAL__N_113constant_initISt6atomicIPNS_15memory_resourceEEED1Ev
080025e8 t _ZNSt3pmr12_GLOBAL__N_113constant_initISt6atomicIPNS_15memory_resourceEEED2Ev
20000144 d _ZNSt3pmr12_GLOBAL__N_18null_resE
08002628 T _ZNSt3pmr15memory_resourceD1Ev
08002628 T _ZNSt3pmr15memory_resourceD2Ev
080026ac T _ZNSt9bad_allocD0Ev
08002698 T _ZNSt9bad_allocD1Ev
08002698 T _ZNSt9bad_allocD2Ev
08002638 T _ZNSt9exceptionD1Ev
08002638 T _ZNSt9exceptionD2Ev
08001f74 T _ZNSt9type_infoD1Ev
08001f74 T _ZNSt9type_infoD2Ev
080013ee W _ZSt13__upper_boundIN9__gnu_cxx17__normal_iteratorIPKN2ke13index_entry_tESt4spanIS4_Lj4294967295EEEEmNS0_5__ops14_Val_comp_iterINS2_15index_less_thanEEEET_SD_SD_RKT0_T1_
080026d0 T _ZSt15get_new_handlerv
080000c0 T _ZSt17__throw_bad_allocv
080013e4 W _ZSt9__advanceIN9__gnu_cxx17__normal_iteratorIPKN2ke13index_entry_tESt4spanIS4_Lj4294967295EEEEiEvRT_T0_St26random_access_iterator_tag
08001434 W _ZSt9__fill_a1IhEN9__gnu_cxx11__enable_ifIXsrSt9__is_byteIT_E7__valueEvE6__typeEPS3_S7_RKS3_
08001dc0 T _ZSt9terminatev
08004358 V _ZTI1S
0800434c V _ZTI1T
08004390 V _ZTI1V
08004380 V _ZTI5error
08004420 T _ZTIN10__cxxabiv117__class_type_infoE
080044c4 T _ZTIN10__cxxabiv120__si_class_type_infoE
0800453c T _ZTIN10__cxxabiv121__vmi_class_type_infoE
0800447c T _ZTIN9__gnu_cxx20recursive_init_errorE
080045cc t _ZTINSt3pmr12_GLOBAL__N_110null_res_tE
08004598 t _ZTINSt3pmr12_GLOBAL__N_112newdel_res_tE
08004590 T _ZTINSt3pmr15memory_resourceE
0800467c T _ZTISt9bad_alloc
08004654 T _ZTISt9exception
0800450c T _ZTISt9type_info
08004354 V _ZTS1S
08004348 V _ZTS1T
0800438c V _ZTS1V
08004378 V _ZTS5error
080043fc T _ZTSN10__cxxabiv117__class_type_infoE
0800449c T _ZTSN10__cxxabiv120__si_class_type_infoE
08004514 T _ZTSN10__cxxabiv121__vmi_class_type_infoE
08004458 T _ZTSN9__gnu_cxx20recursive_init_errorE
080045d8 t _ZTSNSt3pmr12_GLOBAL__N_110null_res_tE
080045a4 t _ZTSNSt3pmr12_GLOBAL__N_112newdel_res_tE
08004574 T _ZTSNSt3pmr15memory_resourceE
0800466c T _ZTSSt9bad_alloc
08004644 T _ZTSSt9exception
080044fc T _ZTSSt9type_info
0800442c T _ZTVN10__cxxabiv117__class_type_infoE
080044d0 T _ZTVN10__cxxabiv120__si_class_type_infoE
08004548 T _ZTVN10__cxxabiv121__vmi_class_type_infoE
08004398 V _ZTVN3hal12steady_clockE
08003f14 V _ZTVN3hal26single_exception_allocatorILj256EEE
080043b0 T _ZTVN3hal8cortex_m11dwt_counterE
08004488 T _ZTVN9__gnu_cxx20recursive_init_errorE
08004618 t _ZTVNSt3pmr12_GLOBAL__N_110null_res_tE
080045fc t _ZTVNSt3pmr12_GLOBAL__N_112newdel_res_tE
08004688 T _ZTVSt9bad_alloc
20000294 b _ZZ19initialize_platformvE16dwt_steady_clock
08003f38 t _ZZN2ke12unwind_frameERKNS_14instructions_tERNS_12cortex_m_cpuEE10jump_table
0800262c T _ZdlPv
080026c8 T _ZdlPvSt11align_val_t
08001dac T _ZdlPvj
08002630 T _ZdlPvjSt11align_val_t
08002644 T _ZnwjSt11align_val_t
080046b4 r __EH_FRAME_BEGIN__
080046dc r __FRAME_END__
20000150 D __TMC_END__
0800382c T ___Unwind_Backtrace
08003808 T ___Unwind_ForcedUnwind
0800379c T ___Unwind_RaiseException
080037c0 T ___Unwind_Resume
080037e4 T ___Unwind_Resume_or_Rethrow
080026ec T __addsf3
08001ca4 T __aeabi_atexit
08002c14 T __aeabi_cfcmpeq
08002c14 T __aeabi_cfcmple
08002c0c T __aeabi_cfrcmple
080026ec T __aeabi_fadd
08002c24 T __aeabi_fcmpeq
08002c60 T __aeabi_fcmpge
08002c74 T __aeabi_fcmpgt
08002c4c T __aeabi_fcmple
08002c38 T __aeabi_fcmplt
08002a64 T __aeabi_fdiv
080028fc T __aeabi_fmul
080026e0 T __aeabi_frsub
080026e8 T __aeabi_fsub
08002854 T __aeabi_i2f
08002880 T __aeabi_l2f
08003b70 T __aeabi_memcpy
08003b70 T __aeabi_memcpy4
08003b70 T __aeabi_memcpy8
0800284c T __aeabi_ui2f
08002870 T __aeabi_ul2f
080033ec T __aeabi_unwind_cpp_pr0
080033f4 W __aeabi_unwind_cpp_pr1
080033fc W __aeabi_unwind_cpp_pr2
200004d8 B __bss_end
200004d8 B __bss_end__
00000388 A __bss_size
20000150 D __bss_start
08002bac T __cmpsf2
08003e1c T __cxa_atexit
08001e0c T __cxa_guard_abort
08001dd4 T __cxa_guard_acquire
08001e14 T __cxa_guard_release
20000150 D __data_end
00000150 A __data_size
08004898 A __data_source
20000000 D __data_start
08002a64 T __divsf3
080001c4 t __do_global_dtors_aux
080046b0 t __do_global_dtors_aux_fini_array_entry
20000000 D __dso_handle
200004d8 B __end
08002bac T __eqsf2
08004898 R __exidx_end
08004758 R __exidx_start
08000000 A __flash
00010000 A __flash_size
08002880 T __floatdisf
08002854 T __floatsisf
08002870 T __floatundisf
0800284c T __floatunsisf
080046a0 t __frame_dummy_init_array_entry
08002b9c T __gesf2
080030d4 T __gnu_Unwind_Backtrace
08002fd0 T __gnu_Unwind_ForcedUnwind
08002f68 T __gnu_Unwind_RaiseException
080036bc T __gnu_Unwind_Restore_VFP
080036cc T __gnu_Unwind_Restore_VFP_D
080036dc T __gnu_Unwind_Restore_VFP_D_16_to_31
08003774 T __gnu_Unwind_Restore_WMMXC
080036ec T __gnu_Unwind_Restore_WMMXD
08002fe8 T __gnu_Unwind_Resume
08003028 T __gnu_Unwind_Resume_or_Rethrow
080036c4 T __gnu_Unwind_Save_VFP
080036d4 T __gnu_Unwind_Save_VFP_D
080036e4 T __gnu_Unwind_Save_VFP_D_16_to_31
08003788 T __gnu_Unwind_Save_WMMXC
08003730 T __gnu_Unwind_Save_WMMXD
08003888 T __gnu_unwind_execute
08002d28 t __gnu_unwind_get_pr_addr
08003154 t __gnu_unwind_pr_common
08002b9c T __gtsf2
20002400 A __heap_end
200004d8 B __heap_start
080046b0 t __init_array_end
080046a0 t __init_array_start
08000080 V __interrupt_vector
08002ba4 T __lesf2
08003dc8 T __libc_init_array
200002d0 B __lock___libc_recursive_mutex
08002ba4 T __ltsf2
08003b9c T __malloc_free
200002c8 B __malloc_free_list
08003c58 T __malloc_grow_chunk
08003c98 T __malloc_malloc
08003c10 T __malloc_sbrk_aligned
200002c4 B __malloc_sbrk_start
200002c0 B __malloc_sbrk_top
080028fc T __mulsf3
08002bac T __nesf2
08002c88 T __popcountsi2
080046a0 t __preinit_array_end
080046a0 t __preinit_array_start
20000000 A __ram
00002800 A __ram_size
080036a4 T __restore_core_regs
08003e18 T __retarget_lock_acquire_recursive
08003e1a T __retarget_lock_release_recursive
20002800 D __stack
00000400 A __stack_size
080026e8 T __subsf3
00000000 A __tbss_size
08003f14 T __text_end
08000080 D __weak_interrupt_vector
08001448 T __wrap___aeabi_unwind_cpp_pr0
08000326 T __wrap___cxa_allocate_exception
08000342 T __wrap___cxa_begin_catch
0800033c T __wrap___cxa_call_unexpected
08000ac8 T __wrap___cxa_end_catch
08000a08 T __wrap___cxa_end_cleanup
08000aa4 T __wrap___cxa_free_exception
08000a20 T __wrap___cxa_rethrow
08000a60 T __wrap___cxa_throw
08001446 T __wrap___gnu_unwind_pr_common
0800144c T __wrap___gxx_personality_v0
0800144a T __wrap__sig_func
0800144e T __wrap_deregister_tm_clones
08001450 T __wrap_register_tm_clones
08000320 T _exit
08003ec8 T _on_exit
200002d4 b _sig_func
0800014c T _start
080000e0 T abort
08003d30 T aligned_alloc
08003e68 W arm_busfault_isr
08003e6a W arm_debugmon_isr
08003e68 T arm_halt_isr
08003e68 W arm_hardfault_isr
08003e6a T arm_ignore_isr
08003e68 W arm_memmanage_isr
08003e6a W arm_nmi_isr
08003e6a W arm_pendsv_isr
08003e6a W arm_svc_isr
08003e6a W arm_systick_isr
08003e68 W arm_usagefault_isr
2000014c d brk
20000270 B cached_type_info
08003b9c T cfree
20000150 b completed.1
08000184 t deregister_tm_clones
20000288 B end
200002cc B errno
080001ec t frame_dummy
08003b9c T free
08002d50 t get_eit_entry
080014e6 T main
08003c98 T malloc
08003d30 T memalign
08003b70 T memcpy
08003b8c T memset
08003850 t next_unwind_byte
20000154 b object.0
20000354 b on_exits
08003e6c T raise
080001a0 t register_tm_clones
20000278 B resources
080036a4 T restore_core_regs
08002de4 t restore_non_core_regs
08003e28 T sbrk
08002cc4 t search_EIT_table
08002cb0 t selfrel_offset31
20000280 B start
08003b5c T strcmp
08002e4c t unwind_phase2
08002e88 t unwind_phase2_forced
20000114 D value
